
NanostackRfPhyMcr20a.o:

mbed_tz_context.o:

rf_configuration.o:

MCR20Drv.o:

NanostackRfPhys2lp.o:

NanostackRfPhyAtmel.o:

at24mac.o:

at24mac_s2lp.o:

AnalogIn.o:

AnalogOut.o:

BusIn.o:
         U _ZdlPvj
00000000 T _ZN4mbed5BusIn4lockEv
00000000 T _ZN4mbed5BusIn4modeE7PinMode
00000000 T _ZN4mbed5BusIn4readEv
00000000 T _ZN4mbed5BusIn6unlockEv
00000000 T _ZN4mbed5BusInC1E7PinNameS1_S1_S1_S1_S1_S1_S1_S1_S1_S1_S1_S1_S1_S1_S1_
00000000 T _ZN4mbed5BusInC1EP7PinName
00000000 T _ZN4mbed5BusInC2E7PinNameS1_S1_S1_S1_S1_S1_S1_S1_S1_S1_S1_S1_S1_S1_S1_
00000000 T _ZN4mbed5BusInC2EP7PinName
00000000 T _ZN4mbed5BusIncviEv
00000000 T _ZN4mbed5BusInD0Ev
00000000 T _ZN4mbed5BusInD1Ev
00000000 T _ZN4mbed5BusInD2Ev
00000000 T _ZN4mbed5BusInixEi
         U _ZN4mbed9DigitalIn4modeE7PinMode
         U _ZN4rtos5Mutex4lockEv
         U _ZN4rtos5Mutex6unlockEv
         U _ZN4rtos5MutexC1Ev
         U _ZN4rtos5MutexD1Ev
         U _Znwj
00000000 R _ZTVN4mbed5BusInE
         U gpio_init_in
         U gpio_read
         U mbed_assert_internal

CAN.o:

BusInOut.o:
         U _ZdlPvj
         U _ZN4mbed12DigitalInOut4modeE7PinMode
         U _ZN4mbed12DigitalInOut5inputEv
         U _ZN4mbed12DigitalInOut6outputEv
00000000 T _ZN4mbed8BusInOut4lockEv
00000000 T _ZN4mbed8BusInOut4modeE7PinMode
00000000 T _ZN4mbed8BusInOut4readEv
00000000 T _ZN4mbed8BusInOut5inputEv
00000000 T _ZN4mbed8BusInOut5writeEi
00000000 T _ZN4mbed8BusInOut6outputEv
00000000 T _ZN4mbed8BusInOut6unlockEv
00000000 T _ZN4mbed8BusInOutaSEi
00000000 T _ZN4mbed8BusInOutaSERS0_
00000000 T _ZN4mbed8BusInOutC1E7PinNameS1_S1_S1_S1_S1_S1_S1_S1_S1_S1_S1_S1_S1_S1_S1_
00000000 T _ZN4mbed8BusInOutC1EP7PinName
00000000 T _ZN4mbed8BusInOutC2E7PinNameS1_S1_S1_S1_S1_S1_S1_S1_S1_S1_S1_S1_S1_S1_S1_
00000000 T _ZN4mbed8BusInOutC2EP7PinName
00000000 T _ZN4mbed8BusInOutcviEv
00000000 T _ZN4mbed8BusInOutD0Ev
00000000 T _ZN4mbed8BusInOutD1Ev
00000000 T _ZN4mbed8BusInOutD2Ev
00000000 T _ZN4mbed8BusInOutixEi
         U _ZN4rtos5Mutex4lockEv
         U _ZN4rtos5Mutex6unlockEv
         U _ZN4rtos5MutexC1Ev
         U _ZN4rtos5MutexD1Ev
         U _Znwj
00000000 R _ZTVN4mbed8BusInOutE
         U gpio_init_in
         U gpio_read
         U gpio_write
         U mbed_assert_internal

BusOut.o:
         U _ZdlPvj
00000000 T _ZN4mbed6BusOut4lockEv
00000000 T _ZN4mbed6BusOut4readEv
00000000 T _ZN4mbed6BusOut5writeEi
00000000 T _ZN4mbed6BusOut6unlockEv
00000000 T _ZN4mbed6BusOutaSEi
00000000 T _ZN4mbed6BusOutaSERS0_
00000000 T _ZN4mbed6BusOutC1E7PinNameS1_S1_S1_S1_S1_S1_S1_S1_S1_S1_S1_S1_S1_S1_S1_
00000000 T _ZN4mbed6BusOutC1EP7PinName
00000000 T _ZN4mbed6BusOutC2E7PinNameS1_S1_S1_S1_S1_S1_S1_S1_S1_S1_S1_S1_S1_S1_S1_
00000000 T _ZN4mbed6BusOutC2EP7PinName
00000000 T _ZN4mbed6BusOutcviEv
00000000 T _ZN4mbed6BusOutD0Ev
00000000 T _ZN4mbed6BusOutD1Ev
00000000 T _ZN4mbed6BusOutD2Ev
00000000 T _ZN4mbed6BusOutixEi
         U _ZN4rtos5Mutex4lockEv
         U _ZN4rtos5Mutex6unlockEv
         U _ZN4rtos5MutexC1Ev
         U _ZN4rtos5MutexD1Ev
         U _Znwj
00000000 R _ZTVN4mbed6BusOutE
         U gpio_init_out
         U gpio_read
         U gpio_write
         U mbed_assert_internal

ESP8266.o:
         U _ZN15WiFiAccessPointC1E13nsapi_wifi_ap
         U _ZN15WiFiAccessPointC1Ev
         U _ZN4mbed10UARTSerial12enable_inputEb
         U _ZN4mbed10UARTSerial5sigioENS_8CallbackIFvvEEE
         U _ZN4mbed10UARTSerial8set_baudEi
         U _ZN4mbed10UARTSerialC1E7PinNameS1_i
         U _ZN4mbed11ATCmdParser10remove_oobEPKc
         U _ZN4mbed11ATCmdParser11process_oobEv
         U _ZN4mbed11ATCmdParser3oobEPKcNS_8CallbackIFvvEEE
         U _ZN4mbed11ATCmdParser4readEPci
         U _ZN4mbed11ATCmdParser4recvEPKcz
         U _ZN4mbed11ATCmdParser4sendEPKcz
         U _ZN4mbed11ATCmdParser5abortEv
         U _ZN4mbed11ATCmdParser5flushEv
         U _ZN4mbed11ATCmdParser5scanfEPKcz
         U _ZN4mbed11ATCmdParser5writeEPKci
00000000 W _ZN4mbed8CallbackIFvvEE13function_callINS2_14method_contextI7ESP8266MS5_FvvEEEEEvPKv
00000000 W _ZN4mbed8CallbackIFvvEE13function_callIPS1_EEvPKv
00000000 W _ZN4mbed8CallbackIFvvEE13function_dtorINS2_14method_contextI7ESP8266MS5_FvvEEEEEvPv
00000000 W _ZN4mbed8CallbackIFvvEE13function_dtorIPS1_EEvPv
00000000 W _ZN4mbed8CallbackIFvvEE13function_moveINS2_14method_contextI7ESP8266MS5_FvvEEEEEvPvPKv
00000000 W _ZN4mbed8CallbackIFvvEE13function_moveIPS1_EEvPvPKv
00000000 W _ZN4mbed8CallbackIFvvEEC1ERKS2_
00000000 W _ZN4mbed8CallbackIFvvEEC1I7ESP8266S4_EEPT0_MT_FvvE
00000000 W _ZN4mbed8CallbackIFvvEEC2ERKS2_
00000000 W _ZN4mbed8CallbackIFvvEEC2I7ESP8266S4_EEPT0_MT_FvvE
00000000 n _ZN4mbed8CallbackIFvvEEC5ERKS2_
00000000 n _ZN4mbed8CallbackIFvvEEC5I7ESP8266S4_EEPT0_MT_FvvE
00000000 W _ZN4mbed8CallbackIFvvEED1Ev
00000000 W _ZN4mbed8CallbackIFvvEED2Ev
00000000 n _ZN4mbed8CallbackIFvvEED5Ev
         U _ZN4rtos10ThisThread9sleep_forEm
         U _ZN4rtos5Mutex4lockEv
         U _ZN4rtos5Mutex6unlockEv
         U _ZN4rtos5MutexC1Ev
         U _ZN4rtos6Kernel12get_ms_countEv
00000000 T _ZN7ESP826610_oob_readyEv
00000000 T _ZN7ESP826610at_versionEv
00000000 T _ZN7ESP826610disconnectEv
00000000 T _ZN7ESP826610dns_lookupEPKcPc
00000000 T _ZN7ESP826611sdk_versionEv
00000000 T _ZN7ESP826611set_timeoutEm
00000000 T _ZN7ESP826612_process_oobEmb
00000000 T _ZN7ESP826612at_availableEv
00000000 T _ZN7ESP826614bg_process_oobEmb
00000000 T _ZN7ESP826616_oob_connect_errEv
00000000 T _ZN7ESP826616_oob_ok_receivedEv
00000000 T _ZN7ESP826616_oob_packet_hdlrEv
00000000 T _ZN7ESP826617_oob_conn_alreadyEv
00000000 T _ZN7ESP826617_oob_scan_resultsEv
00000000 T _ZN7ESP826617_recv_tcp_passiveEiPvmm
00000000 T _ZN7ESP826617default_wifi_modeEv
00000000 T _ZN7ESP826617uart_enable_inputEb
00000000 T _ZN7ESP826618_oob_tcp_data_hdlrEv
00000000 T _ZN7ESP826619_oob_socket0_closedEv
00000000 T _ZN7ESP826619_oob_socket1_closedEv
00000000 T _ZN7ESP826619_oob_socket2_closedEv
00000000 T _ZN7ESP826619_oob_socket3_closedEv
00000000 T _ZN7ESP826619_oob_socket4_closedEv
00000000 T _ZN7ESP826619_oob_watchdog_resetEv
00000000 T _ZN7ESP826621_clear_socket_packetsEi
00000000 T _ZN7ESP826621_oob_socket_close_errEv
00000000 T _ZN7ESP826621set_default_wifi_modeEa
00000000 T _ZN7ESP826622_oob_connection_statusEv
00000000 T _ZN7ESP826622stop_uart_hw_flow_ctrlEv
00000000 T _ZN7ESP826623set_country_code_policyEbPKcii
00000000 T _ZN7ESP826623start_uart_hw_flow_ctrlEv
00000000 T _ZN7ESP826628cond_enable_tcp_passive_modeEv
00000000 T _ZN7ESP82664dhcpEbi
00000000 T _ZN7ESP82664rssiEv
00000000 T _ZN7ESP82664scanEP15WiFiAccessPointjNS_9scan_modeEjj
00000000 T _ZN7ESP82664sendEiPKvm
00000000 T _ZN7ESP82665closeEi
00000000 t _ZN7ESP82665closeEi.part.6
00000000 T _ZN7ESP82665flushEv
00000000 T _ZN7ESP82665resetEv
00000000 T _ZN7ESP82665sigioEN4mbed8CallbackIFvvEEE
00000000 T _ZN7ESP82666attachEN4mbed8CallbackIFvvEEE
00000000 T _ZN7ESP82667connectEPKcS1_
00000000 T _ZN7ESP82667gatewayEv
00000000 T _ZN7ESP82667ip_addrEv
00000000 T _ZN7ESP82667netmaskEv
00000000 T _ZN7ESP82667startupEi
00000000 T _ZN7ESP82668_oob_errEv
00000000 T _ZN7ESP82668_recv_apEP13nsapi_wifi_ap
00000000 T _ZN7ESP82668echo_offEv
00000000 T _ZN7ESP82668mac_addrEv
00000000 T _ZN7ESP82668open_tcpEiPKcii
00000000 T _ZN7ESP82668open_udpEiPKcii
00000000 T _ZN7ESP82668readableEv
00000000 T _ZN7ESP82668recv_tcpEiPvmm
00000000 T _ZN7ESP82668recv_udpEiPvmm
00000000 T _ZN7ESP82669_oob_busyEv
00000000 T _ZN7ESP82669writeableEv
00000000 T _ZN7ESP8266C1E7PinNameS0_bS0_S0_
00000000 T _ZN7ESP8266C2E7PinNameS0_bS0_S0_
         U _Znaj
         U _ZNK15WiFiAccessPoint8get_rssiEv
00000000 W _ZNK4mbed8CallbackIFvvEE4callEv
00000000 T _ZNK7ESP826617connection_statusEv
         U _ZThn76_NK4mbed10UARTSerial4pollEs
00000000 V _ZZN4mbed8CallbackIFvvEE8generateINS2_14method_contextI7ESP8266MS5_FvvEEEEEvRKT_E3ops
         U free
         U malloc
         U mbed_assert_internal
         U mbed_error
         U memcpy
         U memmove
         U memset
         U strcmp

DigitalIn.o:
00000000 T _ZN4mbed9DigitalIn4modeE7PinMode
         U core_util_critical_section_enter
         U core_util_critical_section_exit
         U gpio_mode

DigitalInOut.o:
00000000 T _ZN4mbed12DigitalInOut4modeE7PinMode
00000000 T _ZN4mbed12DigitalInOut5inputEv
00000000 T _ZN4mbed12DigitalInOut6outputEv
00000000 T _ZN4mbed12DigitalInOutaSERS0_
         U core_util_critical_section_enter
         U core_util_critical_section_exit
         U gpio_dir
         U gpio_mode
         U gpio_read
         U gpio_write

Ethernet.o:

DigitalOut.o:
00000000 T _ZN4mbed10DigitalOutaSERS0_
         U core_util_critical_section_enter
         U core_util_critical_section_exit
         U gpio_read
         U gpio_write

I2CSlave.o:

ESP8266Interface.o:
00000000 t .LTHUNK10
00000000 t .LTHUNK11
00000000 t .LTHUNK12
00000000 t .LTHUNK13
00000000 t .LTHUNK15
00000000 t .LTHUNK16
00000000 t .LTHUNK17
00000000 t .LTHUNK18
00000000 t .LTHUNK19
00000000 t .LTHUNK20
00000000 t .LTHUNK21
00000000 t .LTHUNK22
00000000 t .LTHUNK23
00000000 t .LTHUNK24
00000000 t .LTHUNK25
00000000 t .LTHUNK26
00000000 t .LTHUNK27
00000000 t .LTHUNK6
00000000 t .LTHUNK7
00000000 t .LTHUNK8
00000000 t .LTHUNK9
         U __cxa_pure_virtual
         U _impure_ptr
         U _ZdaPv
         U _ZdlPvj
         U _ZN12NetworkStack11getaddrinfoEPKcP13SocketAddressPS3_S1_
         U _ZN12NetworkStack11getstackoptEiiPvPj
         U _ZN12NetworkStack11setstackoptEiiPKvj
         U _ZN12NetworkStack13gethostbynameEPKcP13SocketAddress13nsapi_versionS1_
         U _ZN12NetworkStack14add_dns_serverERK13SocketAddressPKc
         U _ZN12NetworkStack14get_dns_serverEiP13SocketAddressPKc
         U _ZN12NetworkStack17get_ip_address_ifEP13SocketAddressPKc
         U _ZN12NetworkStack17get_ip_address_ifEPKc
         U _ZN12NetworkStack17getaddrinfo_asyncEPKcP13SocketAddressN4mbed8CallbackIFviS3_EEES1_
         U _ZN12NetworkStack19gethostbyname_asyncEPKcN4mbed8CallbackIFviP13SocketAddressEEE13nsapi_versionS1_
00000000 W _ZN12NetworkStack19onboardNetworkStackEv
         U _ZN12NetworkStack20get_call_in_callbackEv
         U _ZN12NetworkStack26gethostbyname_async_cancelEi
         U _ZN12NetworkStack27get_ipv6_link_local_addressEP13SocketAddress
         U _ZN12NetworkStack7call_inEiN4mbed8CallbackIFvvEEE
         U _ZN13SocketAddress14set_ip_addressEPKc
         U _ZN13SocketAddressaSERKS_
         U _ZN13SocketAddressC1E10nsapi_addrt
         U _ZN13SocketAddressD1Ev
00000000 W _ZN13WiFiInterface13wifiInterfaceEv
         U _ZN13WiFiInterface22set_default_parametersEv
00000000 T _ZN16ESP8266Interface10_power_offEv
00000000 T _ZN16ESP8266Interface10disconnectEv
00000000 T _ZN16ESP8266Interface10getsockoptEPviiS0_Pj
00000000 T _ZN16ESP8266Interface10setsockoptEPviiPKvj
00000000 T _ZN16ESP8266Interface11get_gatewayEP13SocketAddress
00000000 T _ZN16ESP8266Interface11get_gatewayEv
00000000 T _ZN16ESP8266Interface11get_netmaskEP13SocketAddress
00000000 T _ZN16ESP8266Interface11get_netmaskEv
00000000 T _ZN16ESP8266Interface11set_channelEh
00000000 T _ZN16ESP8266Interface11socket_bindEPvRK13SocketAddress
00000000 T _ZN16ESP8266Interface11socket_openEPPv14nsapi_protocol
00000000 T _ZN16ESP8266Interface11socket_recvEPvS0_j
00000000 T _ZN16ESP8266Interface11socket_sendEPvPKvj
00000000 T _ZN16ESP8266Interface12set_blockingEb
00000000 T _ZN16ESP8266Interface12socket_closeEPv
00000000 T _ZN16ESP8266Interface13proc_oob_evntEv
00000000 T _ZN16ESP8266Interface13socket_acceptEPvPS0_P13SocketAddress
00000000 T _ZN16ESP8266Interface13socket_attachEPvPFvS0_ES0_
00000000 T _ZN16ESP8266Interface13socket_listenEPvi
00000000 T _ZN16ESP8266Interface13socket_sendtoEPvRK13SocketAddressPKvj
00000000 T _ZN16ESP8266Interface14_connect_asyncEv
00000000 T _ZN16ESP8266Interface14event_deferredEv
00000000 T _ZN16ESP8266Interface14get_ip_addressEP13SocketAddress
00000000 T _ZN16ESP8266Interface14get_ip_addressEv
00000000 T _ZN16ESP8266Interface14socket_connectEPvRK13SocketAddress
00000000 T _ZN16ESP8266Interface15get_mac_addressEv
00000000 T _ZN16ESP8266Interface15set_credentialsEPKcS1_14nsapi_security
00000000 T _ZN16ESP8266Interface15socket_recvfromEPvP13SocketAddressS0_j
00000000 T _ZN16ESP8266Interface16_get_firmware_okEv
00000000 T _ZN16ESP8266Interface16set_country_codeEbPKciii
00000000 T _ZN16ESP8266Interface17_disconnect_asyncEv
00000000 T _ZN16ESP8266Interface18get_interface_nameEPc
00000000 T _ZN16ESP8266Interface21_conn_status_to_errorEv
00000000 T _ZN16ESP8266Interface21refresh_conn_state_cbEv
00000000 T _ZN16ESP8266Interface4scanEP15WiFiAccessPointj
00000000 T _ZN16ESP8266Interface4scanEP15WiFiAccessPointjNS_9scan_modeEjj
00000000 T _ZN16ESP8266Interface5_initEv
00000000 T _ZN16ESP8266Interface5eventEv
00000000 T _ZN16ESP8266Interface6_resetEv
00000000 T _ZN16ESP8266Interface6attachEN4mbed8CallbackIFv11nsapi_eventiEEE
00000000 T _ZN16ESP8266Interface7connectEPKcS1_14nsapi_securityh
00000000 T _ZN16ESP8266Interface7connectEv
00000000 T _ZN16ESP8266Interface8get_rssiEv
00000000 T _ZN16ESP8266Interface8PowerPin12is_connectedEv
00000000 T _ZN16ESP8266Interface8PowerPin8power_onEv
00000000 T _ZN16ESP8266Interface8PowerPin9power_offEv
00000000 T _ZN16ESP8266Interface8PowerPinC1E7PinName
00000000 T _ZN16ESP8266Interface8PowerPinC2E7PinName
00000000 T _ZN16ESP8266Interface8ResetPin10rst_assertEv
00000000 T _ZN16ESP8266Interface8ResetPin12is_connectedEv
00000000 T _ZN16ESP8266Interface8ResetPin12rst_deassertEv
00000000 T _ZN16ESP8266Interface8ResetPinC1E7PinName
00000000 T _ZN16ESP8266Interface8ResetPinC2E7PinName
00000000 W _ZN16ESP8266Interface9get_stackEv
00000000 T _ZN16ESP8266InterfaceC1E7PinNameS0_bS0_S0_S0_S0_
00000000 T _ZN16ESP8266InterfaceC2E7PinNameS0_bS0_S0_S0_S0_
00000000 t _ZN16ESP8266InterfaceC4E7PinNameS0_bS0_S0_S0_S0_
00000000 T _ZN16ESP8266InterfaceD0Ev
00000000 T _ZN16ESP8266InterfaceD1Ev
00000000 T _ZN16ESP8266InterfaceD2Ev
00000000 t _ZN16ESP8266InterfaceD4Ev
         U _ZN16NetworkInterface11get_gatewayEP13SocketAddress
         U _ZN16NetworkInterface11get_gatewayEv
         U _ZN16NetworkInterface11get_netmaskEP13SocketAddress
         U _ZN16NetworkInterface11get_netmaskEv
         U _ZN16NetworkInterface11getaddrinfoEPKcP13SocketAddressPS3_S1_
         U _ZN16NetworkInterface11set_networkEPKcS1_S1_
         U _ZN16NetworkInterface11set_networkERK13SocketAddressS2_S2_
00000000 W _ZN16NetworkInterface12ethInterfaceEv
         U _ZN16NetworkInterface12set_blockingEb
00000000 W _ZN16NetworkInterface13emacInterfaceEv
         U _ZN16NetworkInterface13gethostbynameEPKcP13SocketAddress13nsapi_versionS1_
00000000 W _ZN16NetworkInterface13meshInterfaceEv
         U _ZN16NetworkInterface14add_dns_serverERK13SocketAddressPKc
         U _ZN16NetworkInterface14get_ip_addressEP13SocketAddress
         U _ZN16NetworkInterface14get_ip_addressEv
         U _ZN16NetworkInterface14set_as_defaultEv
         U _ZN16NetworkInterface15get_mac_addressEv
00000000 W _ZN16NetworkInterface17cellularInterfaceEv
         U _ZN16NetworkInterface17getaddrinfo_asyncEPKcP13SocketAddressN4mbed8CallbackIFviS3_EEES1_
         U _ZN16NetworkInterface18get_interface_nameEPc
         U _ZN16NetworkInterface19gethostbyname_asyncEPKcN4mbed8CallbackIFviP13SocketAddressEEE13nsapi_versionS1_
         U _ZN16NetworkInterface26gethostbyname_async_cancelEi
         U _ZN16NetworkInterface27get_ipv6_link_local_addressEP13SocketAddress
         U _ZN16NetworkInterface6attachEN4mbed8CallbackIFv11nsapi_eventiEEE
         U _ZN16NetworkInterface8set_dhcpEb
         U _ZN16NetworkInterfaceD2Ev
         U _ZN4mbed10UARTSerialD1Ev
         U _ZN4mbed16mbed_event_queueEv
         U _ZN4mbed5Timer4stopEv
         U _ZN4mbed5Timer5resetEv
         U _ZN4mbed5Timer5startEv
         U _ZN4mbed5Timer7read_msEv
         U _ZN4mbed5TimerC1Ev
         U _ZN4mbed5TimerD1Ev
00000000 W _ZN4mbed8CallbackIFv11nsapi_eventiEE13function_callIPS2_EEvPKvS1_i
00000000 W _ZN4mbed8CallbackIFv11nsapi_eventiEE13function_dtorIPS2_EEvPv
00000000 W _ZN4mbed8CallbackIFv11nsapi_eventiEE13function_moveIPS2_EEvPvPKv
00000000 W _ZN4mbed8CallbackIFv11nsapi_eventiEED1Ev
00000000 W _ZN4mbed8CallbackIFv11nsapi_eventiEED2Ev
00000000 n _ZN4mbed8CallbackIFv11nsapi_eventiEED5Ev
00000000 W _ZN4mbed8CallbackIFvvEE13function_callINS2_14method_contextI16ESP8266InterfaceMS5_FvvEEEEEvPKv
00000000 W _ZN4mbed8CallbackIFvvEE13function_dtorINS2_14method_contextI16ESP8266InterfaceMS5_FvvEEEEEvPv
00000000 W _ZN4mbed8CallbackIFvvEE13function_moveINS2_14method_contextI16ESP8266InterfaceMS5_FvvEEEEEvPvPKv
00000000 W _ZN4mbed8CallbackIFvvEE8generateINS2_14method_contextI16ESP8266InterfaceMS5_FvvEEEEEvRKT_
00000000 W _ZN4mbed8CallbackIFvvEEC1ERKS2_
00000000 W _ZN4mbed8CallbackIFvvEEC2ERKS2_
00000000 n _ZN4mbed8CallbackIFvvEEC5ERKS2_
00000000 W _ZN4mbed8CallbackIFvvEED1Ev
00000000 W _ZN4mbed8CallbackIFvvEED2Ev
00000000 n _ZN4mbed8CallbackIFvvEED5Ev
         U _ZN4rtos10ThisThread9sleep_forEm
         U _ZN4rtos17ConditionVariable10notify_allEv
         U _ZN4rtos17ConditionVariable4waitEv
         U _ZN4rtos17ConditionVariableC1ERNS_5MutexE
         U _ZN4rtos17ConditionVariableD1Ev
         U _ZN4rtos5Mutex4lockEv
         U _ZN4rtos5Mutex6unlockEv
         U _ZN4rtos5Mutex7trylockEv
         U _ZN4rtos5MutexC1Ev
         U _ZN4rtos5MutexD1Ev
00000000 W _ZN6events10EventQueue13function_callIN4mbed8CallbackIFvvEEEEEvPv
00000000 W _ZN6events10EventQueue13function_dtorIN4mbed8CallbackIFvvEEEEEvPv
00000000 W _ZN6events10EventQueue4callIN4mbed8CallbackIFvvEEEEEiT_
         U _ZN6events10EventQueue6cancelEi
00000000 W _ZN6events10EventQueue7call_inIN4mbed8CallbackIFvvEEEEEiiT_
         U _ZN7ESP826610at_versionEv
         U _ZN7ESP826610disconnectEv
         U _ZN7ESP826611sdk_versionEv
         U _ZN7ESP826611set_timeoutEm
         U _ZN7ESP826612at_availableEv
         U _ZN7ESP826614bg_process_oobEmb
         U _ZN7ESP826617uart_enable_inputEb
         U _ZN7ESP826621set_default_wifi_modeEa
         U _ZN7ESP826623set_country_code_policyEbPKcii
         U _ZN7ESP826623start_uart_hw_flow_ctrlEv
         U _ZN7ESP826628cond_enable_tcp_passive_modeEv
         U _ZN7ESP82664dhcpEbi
         U _ZN7ESP82664rssiEv
         U _ZN7ESP82664scanEP15WiFiAccessPointjNS_9scan_modeEjj
         U _ZN7ESP82664sendEiPKvm
         U _ZN7ESP82665closeEi
         U _ZN7ESP82665flushEv
         U _ZN7ESP82665resetEv
         U _ZN7ESP82665sigioEN4mbed8CallbackIFvvEEE
         U _ZN7ESP82666attachEN4mbed8CallbackIFvvEEE
         U _ZN7ESP82667connectEPKcS1_
         U _ZN7ESP82667gatewayEv
         U _ZN7ESP82667ip_addrEv
         U _ZN7ESP82667netmaskEv
         U _ZN7ESP82667startupEi
         U _ZN7ESP82668echo_offEv
         U _ZN7ESP82668mac_addrEv
         U _ZN7ESP82668open_tcpEiPKcii
         U _ZN7ESP82668open_udpEiPKcii
         U _ZN7ESP82668recv_tcpEiPvmm
         U _ZN7ESP82668recv_udpEiPvmm
         U _ZN7ESP8266C1E7PinNameS0_bS0_S0_
         U _ZneRK13SocketAddressS1_
         U _ZNK13SocketAddress14get_ip_addressEv
         U _ZNK13SocketAddress8get_addrEv
         U _ZNK13SocketAddress8get_portEv
00000000 T _ZNK16ESP8266Interface21get_connection_statusEv
         U _ZNK16NetworkInterface21get_connection_statusEv
00000000 W _ZNK4mbed8CallbackIFv11nsapi_eventiEE4callES1_i
         U _ZNK7ESP826617connection_statusEv
         U _Znwj
00000000 R _ZTC16ESP8266Interface4_13WiFiInterface
00000000 T _ZThn4_N16ESP8266Interface10disconnectEv
00000000 T _ZThn4_N16ESP8266Interface11set_channelEh
00000000 T _ZThn4_N16ESP8266Interface15set_credentialsEPKcS1_14nsapi_security
00000000 T _ZThn4_N16ESP8266Interface4scanEP15WiFiAccessPointj
00000000 T _ZThn4_N16ESP8266Interface7connectEPKcS1_14nsapi_securityh
00000000 T _ZThn4_N16ESP8266Interface7connectEv
00000000 T _ZThn4_N16ESP8266Interface8get_rssiEv
00000000 T _ZThn4_N16ESP8266InterfaceD0Ev
00000000 T _ZThn4_N16ESP8266InterfaceD1Ev
00000000 R _ZTT16ESP8266Interface
00000000 T _ZTv0_n100_N16ESP8266Interface6attachEN4mbed8CallbackIFv11nsapi_eventiEEE
00000000 T _ZTv0_n104_NK16ESP8266Interface21get_connection_statusEv
00000000 T _ZTv0_n108_N16ESP8266Interface12set_blockingEb
00000002 W _ZTv0_n116_N13WiFiInterface13wifiInterfaceEv
00000002 W _ZTv0_n132_N16ESP8266Interface9get_stackEv
00000000 T _ZTv0_n36_N16ESP8266InterfaceD0Ev
00000000 T _ZTv0_n36_N16ESP8266InterfaceD1Ev
00000000 T _ZTv0_n44_N16ESP8266Interface15get_mac_addressEv
00000000 T _ZTv0_n48_N16ESP8266Interface14get_ip_addressEP13SocketAddress
00000000 T _ZTv0_n52_N16ESP8266Interface14get_ip_addressEv
00000000 T _ZTv0_n60_N16ESP8266Interface11get_netmaskEP13SocketAddress
00000000 T _ZTv0_n64_N16ESP8266Interface11get_netmaskEv
00000000 T _ZTv0_n68_N16ESP8266Interface11get_gatewayEP13SocketAddress
00000000 T _ZTv0_n72_N16ESP8266Interface11get_gatewayEv
00000000 T _ZTv0_n76_N16ESP8266Interface18get_interface_nameEPc
00000000 T _ZTv0_n92_N16ESP8266Interface7connectEv
00000000 T _ZTv0_n96_N16ESP8266Interface10disconnectEv
         U _ZTV12NetworkStack
00000000 R _ZTV16ESP8266Interface
         U _ZTV16NetworkInterface
00000000 V _ZZN4mbed8CallbackIFvvEE8generateINS2_14method_contextI16ESP8266InterfaceMS5_FvvEEEEEvRKT_E3ops
00000000 W core_util_atomic_cas_u8
00000000 r CSWTCH.75
00000000 t debug
         U equeue_alloc
         U equeue_event_delay
         U equeue_event_dtor
         U equeue_post
         U gpio_init_out_ex
         U gpio_is_connected
         U gpio_write
         U mbed_assert_internal
         U mbed_error
         U memcpy
         U memset
         U strcmp
         U strlen
         U strncpy
         U vfprintf

FlashIAP.o:

InterruptManager.o:
         U _ZdlPvj
00000000 T _ZN4mbed16InterruptManager10add_commonEPFvvE9IRQn_Typeb
00000000 T _ZN4mbed16InterruptManager10irq_helperEv
00000000 T _ZN4mbed16InterruptManager13get_irq_indexE9IRQn_Type
00000000 T _ZN4mbed16InterruptManager14remove_handlerEPNS_8CallbackIFvvEEE9IRQn_Type
00000000 T _ZN4mbed16InterruptManager17static_irq_helperEv
00000000 T _ZN4mbed16InterruptManager19must_replace_vectorE9IRQn_Type
00000000 T _ZN4mbed16InterruptManager3getEv
00000000 T _ZN4mbed16InterruptManager4lockEv
00000000 T _ZN4mbed16InterruptManager6unlockEv
00000000 T _ZN4mbed16InterruptManager7destroyEv
00000000 B _ZN4mbed16InterruptManager9_instanceE
00000000 T _ZN4mbed16InterruptManagerC1Ev
00000000 T _ZN4mbed16InterruptManagerC2Ev
00000000 T _ZN4mbed16InterruptManagerD1Ev
00000000 T _ZN4mbed16InterruptManagerD2Ev
00000000 W _ZN4mbed8CallbackIFvvEE13function_callIPS1_EEvPKv
00000000 W _ZN4mbed8CallbackIFvvEE13function_dtorIPS1_EEvPv
00000000 W _ZN4mbed8CallbackIFvvEE13function_moveIPS1_EEvPvPKv
00000000 W _ZN4mbed8CallbackIFvvEEC1EPS1_
00000000 W _ZN4mbed8CallbackIFvvEEC2EPS1_
00000000 n _ZN4mbed8CallbackIFvvEEC5EPS1_
00000000 W _ZN4mbed8CallbackIFvvEED1Ev
00000000 W _ZN4mbed8CallbackIFvvEED2Ev
00000000 n _ZN4mbed8CallbackIFvvEED5Ev
         U _ZN4mbed9CallChain3addENS_8CallbackIFvvEEE
         U _ZN4mbed9CallChain4callEv
         U _ZN4mbed9CallChain6removeEPNS_8CallbackIFvvEEE
         U _ZN4mbed9CallChain9add_frontENS_8CallbackIFvvEEE
         U _ZN4mbed9CallChainC1Ei
         U _ZN4rtos5Mutex4lockEv
         U _ZN4rtos5Mutex6unlockEv
         U _ZN4rtos5MutexC1Ev
         U _ZN4rtos5MutexD1Ev
         U _Znwj
00000000 V _ZZN4mbed8CallbackIFvvEE8generateIPS1_EEvRKT_E3ops
         U core_util_critical_section_enter
         U core_util_critical_section_exit
         U memset

InterruptIn.o:
         U _ZdlPvj
00000000 T _ZN4mbed11InterruptIn10enable_irqEv
00000000 T _ZN4mbed11InterruptIn11disable_irqEv
00000000 T _ZN4mbed11InterruptIn12_irq_handlerEm14gpio_irq_event
00000000 T _ZN4mbed11InterruptIn4fallENS_8CallbackIFvvEEE
00000000 T _ZN4mbed11InterruptIn4modeE7PinMode
00000000 T _ZN4mbed11InterruptIn4readEv
00000000 T _ZN4mbed11InterruptIn4riseENS_8CallbackIFvvEEE
00000000 T _ZN4mbed11InterruptIn8irq_initE7PinName
00000000 T _ZN4mbed11InterruptInC1E7PinName
00000000 T _ZN4mbed11InterruptInC1E7PinName7PinMode
00000000 T _ZN4mbed11InterruptInC2E7PinName
00000000 T _ZN4mbed11InterruptInC2E7PinName7PinMode
00000000 T _ZN4mbed11InterruptIncviEv
00000000 T _ZN4mbed11InterruptInD0Ev
00000000 T _ZN4mbed11InterruptInD1Ev
00000000 T _ZN4mbed11InterruptInD2Ev
00000000 W _ZN4mbed8CallbackIFvvEE13function_callIPS1_EEvPKv
00000000 W _ZN4mbed8CallbackIFvvEE13function_dtorIPS1_EEvPv
00000000 W _ZN4mbed8CallbackIFvvEE13function_moveIPS1_EEvPvPKv
00000000 W _ZN4mbed8CallbackIFvvEEaSERKS2_
00000000 W _ZN4mbed8CallbackIFvvEED1Ev
00000000 W _ZN4mbed8CallbackIFvvEED2Ev
00000000 n _ZN4mbed8CallbackIFvvEED5Ev
00000000 W _ZNK4mbed8CallbackIFvvEE4callEv
00000000 R _ZTVN4mbed11InterruptInE
         U core_util_critical_section_enter
         U core_util_critical_section_exit
         U gpio_init_in
         U gpio_init_in_ex
         U gpio_irq_disable
         U gpio_irq_enable
         U gpio_irq_free
         U gpio_irq_init
         U gpio_irq_set
         U gpio_mode
         U gpio_read
         U mbed_assert_internal
         U memset

PortIn.o:

ResetReason.o:

I2C.o:

PortInOut.o:

PortOut.o:

PwmOut.o:

QSPI.o:

RawSerial.o:
         U _ZdaPv
         U _ZdlPvj
         U _ZN4mbed10SerialBase10_base_getcEv
         U _ZN4mbed10SerialBase10_base_putcEi
         U _ZN4mbed10SerialBaseC2E7PinNameS1_i
         U _ZN4mbed10SerialBaseD2Ev
00000000 T _ZN4mbed9RawSerial4getcEv
00000000 T _ZN4mbed9RawSerial4lockEv
00000000 T _ZN4mbed9RawSerial4putcEi
00000000 T _ZN4mbed9RawSerial4putsEPKc
00000000 T _ZN4mbed9RawSerial6printfEPKcz
00000000 T _ZN4mbed9RawSerial6unlockEv
00000000 T _ZN4mbed9RawSerial7vprintfEPKcSt9__va_list
00000000 T _ZN4mbed9RawSerialC1E7PinNameS1_i
00000000 T _ZN4mbed9RawSerialC2E7PinNameS1_i
00000000 W _ZN4mbed9RawSerialD0Ev
00000000 W _ZN4mbed9RawSerialD1Ev
00000000 W _ZN4mbed9RawSerialD2Ev
00000000 n _ZN4mbed9RawSerialD5Ev
         U _Znaj
00000000 R _ZTVN4mbed9RawSerialE
         U vsnprintf
         U vsprintf

MbedCRC.o:
00000000 B _ZN4mbed14mbed_crc_mutexE
00000000 R _ZN4mbed4impl7MbedCRCILm32773ELh16ELNS_7CrcModeE1EE10_crc_tableE
00000000 R _ZN4mbed4impl7MbedCRCILm4129ELh16ELNS_7CrcModeE1EE10_crc_tableE
00000000 R _ZN4mbed4impl7MbedCRCILm79764919ELh32ELNS_7CrcModeE1EE10_crc_tableE
00000000 R _ZN4mbed4impl7MbedCRCILm7ELh8ELNS_7CrcModeE1EE10_crc_tableE
00000000 R _ZN4mbed4impl7MbedCRCILm9ELh7ELNS_7CrcModeE1EE10_crc_tableE
00000000 T mbed_tiny_compute_crc32

SPI.o:

SPISlave.o:

SerialWireOutput.o:

Ticker.o:
         U _ZdlPvj
         U _ZN4mbed10TimerEvent15insert_absoluteEy
         U _ZN4mbed10TimerEvent6removeEv
         U _ZN4mbed10TimerEventC2EPK13ticker_data_t
         U _ZN4mbed10TimerEventC2Ev
         U _ZN4mbed10TimerEventD2Ev
00000000 T _ZN4mbed6Ticker5setupEy
00000000 T _ZN4mbed6Ticker6detachEv
00000000 T _ZN4mbed6Ticker7handlerEv
00000000 T _ZN4mbed6Ticker9attach_usENS_8CallbackIFvvEEEy
00000000 T _ZN4mbed6TickerC1EPK13ticker_data_t
00000000 T _ZN4mbed6TickerC1Ev
00000000 T _ZN4mbed6TickerC2EPK13ticker_data_t
00000000 T _ZN4mbed6TickerC2Ev
00000000 W _ZN4mbed6TickerD0Ev
00000000 W _ZN4mbed6TickerD1Ev
00000000 W _ZN4mbed6TickerD2Ev
00000000 n _ZN4mbed6TickerD5Ev
00000000 W _ZN4mbed8CallbackIFvvEEC1ERKS2_
00000000 W _ZN4mbed8CallbackIFvvEEC2ERKS2_
00000000 n _ZN4mbed8CallbackIFvvEEC5ERKS2_
00000000 W _ZN4mbed8CallbackIFvvEED1Ev
00000000 W _ZN4mbed8CallbackIFvvEED2Ev
00000000 n _ZN4mbed8CallbackIFvvEED5Ev
00000000 R _ZTVN4mbed6TickerE
         U core_util_critical_section_enter
         U core_util_critical_section_exit
         U memset
         U sleep_manager_lock_deep_sleep_internal
         U sleep_manager_unlock_deep_sleep_internal
         U ticker_read_us

TimerEvent.o:
         U __cxa_pure_virtual
         U _ZdlPvj
00000000 T _ZN4mbed10TimerEvent15insert_absoluteEy
00000000 T _ZN4mbed10TimerEvent3irqEm
00000000 T _ZN4mbed10TimerEvent6insertEm
00000000 T _ZN4mbed10TimerEvent6removeEv
00000000 T _ZN4mbed10TimerEventC1EPK13ticker_data_t
00000000 T _ZN4mbed10TimerEventC1Ev
00000000 T _ZN4mbed10TimerEventC2EPK13ticker_data_t
00000000 T _ZN4mbed10TimerEventC2Ev
00000000 T _ZN4mbed10TimerEventD0Ev
00000000 T _ZN4mbed10TimerEventD1Ev
00000000 T _ZN4mbed10TimerEventD2Ev
00000000 R _ZTVN4mbed10TimerEventE
         U get_us_ticker_data
         U ticker_insert_event
         U ticker_insert_event_us
         U ticker_remove_event
         U ticker_set_handler

Watchdog.o:

Timeout.o:
         U _ZdlPvj
         U _ZN4mbed10TimerEventD2Ev
         U _ZN4mbed6Ticker6detachEv
00000000 W _ZN4mbed6TickerD0Ev
00000000 W _ZN4mbed6TickerD1Ev
00000000 W _ZN4mbed6TickerD2Ev
00000000 n _ZN4mbed6TickerD5Ev
00000000 T _ZN4mbed7Timeout7handlerEv
00000000 W _ZN4mbed7TimeoutD0Ev
00000000 W _ZN4mbed7TimeoutD1Ev
00000000 W _ZN4mbed7TimeoutD2Ev
00000000 n _ZN4mbed7TimeoutD5Ev
00000000 W _ZN4mbed8CallbackIFvvEED1Ev
00000000 W _ZN4mbed8CallbackIFvvEED2Ev
00000000 n _ZN4mbed8CallbackIFvvEED5Ev
         U _ZTVN4mbed6TickerE
00000000 R _ZTVN4mbed7TimeoutE
         U mbed_assert_internal
         U memset

Timer.o:
         U __aeabi_ul2f
         U __aeabi_uldivmod
00000000 T _ZN4mbed5Timer23read_high_resolution_usEv
00000000 T _ZN4mbed5Timer4readEv
00000000 T _ZN4mbed5Timer4stopEv
00000000 T _ZN4mbed5Timer5resetEv
00000000 T _ZN4mbed5Timer5startEv
00000000 T _ZN4mbed5Timer7read_msEv
00000000 T _ZN4mbed5Timer7read_usEv
00000000 T _ZN4mbed5Timer9slicetimeEv
00000000 T _ZN4mbed5TimerC1EPK13ticker_data_t
00000000 T _ZN4mbed5TimerC1Ev
00000000 T _ZN4mbed5TimerC2EPK13ticker_data_t
00000000 T _ZN4mbed5TimerC2Ev
00000000 T _ZN4mbed5TimercvfEv
00000000 T _ZN4mbed5TimerD1Ev
00000000 T _ZN4mbed5TimerD2Ev
         U core_util_critical_section_enter
         U core_util_critical_section_exit
         U get_us_ticker_data
         U sleep_manager_lock_deep_sleep_internal
         U sleep_manager_unlock_deep_sleep_internal
         U ticker_read_us

EndpointResolver.o:
00000000 T _ZN16EndpointResolver10next_indexE13usb_ep_type_tb
00000000 T _ZN16EndpointResolver11endpoint_inE13usb_ep_type_tm
00000000 T _ZN16EndpointResolver12endpoint_outE13usb_ep_type_tm
00000000 T _ZN16EndpointResolver13endpoint_ctrlEm
00000000 T _ZN16EndpointResolver17index_to_endpointEi
00000000 T _ZN16EndpointResolver18next_free_endpointEb13usb_ep_type_tm
00000000 T _ZN16EndpointResolver5resetEv
00000000 T _ZN16EndpointResolver5validEv
00000000 T _ZN16EndpointResolverC1EPK14usb_ep_table_t
00000000 T _ZN16EndpointResolverC2EPK14usb_ep_table_t
00000000 T _ZN16EndpointResolverD1Ev
00000000 T _ZN16EndpointResolverD2Ev

ByteBuffer.o:
         U _ZdaPv
00000000 T _ZN10ByteBuffer3popEv
00000000 T _ZN10ByteBuffer4freeEv
00000000 T _ZN10ByteBuffer4fullEv
00000000 T _ZN10ByteBuffer4pushEh
00000000 T _ZN10ByteBuffer4readEPhm
00000000 T _ZN10ByteBuffer4sizeEv
00000000 T _ZN10ByteBuffer5emptyEv
00000000 T _ZN10ByteBuffer5writeEPhm
00000000 T _ZN10ByteBuffer6resizeEm
00000000 T _ZN10ByteBufferC1Em
00000000 T _ZN10ByteBufferC2Em
00000000 T _ZN10ByteBufferD1Ev
00000000 T _ZN10ByteBufferD2Ev
         U _Znaj
         U mbed_assert_internal
         U memcpy

LinkedListBase.o:
00000000 T _ZN14LinkedListBase4headEv
00000000 T _ZN14LinkedListBase6removeEP9LinkEntry
00000000 T _ZN14LinkedListBase7dequeueEv
00000000 T _ZN14LinkedListBase7enqueueEP9LinkEntry
00000000 T _ZN14LinkedListBaseC1Ev
00000000 T _ZN14LinkedListBaseC2Ev
00000000 T _ZN14LinkedListBaseD1Ev
00000000 T _ZN14LinkedListBaseD2Ev

UnbufferedSerial.o:
00000000 t .LTHUNK4
00000000 t .LTHUNK5
00000000 t .LTHUNK6
         U _ZdlPvj
00000000 W _ZN4mbed10FileHandle12enable_inputEb
00000000 W _ZN4mbed10FileHandle12set_blockingEb
00000000 W _ZN4mbed10FileHandle13enable_outputEb
00000000 W _ZN4mbed10FileHandle4flenEv
00000000 W _ZN4mbed10FileHandle4syncEv
00000000 W _ZN4mbed10FileHandle4tellEv
00000000 W _ZN4mbed10FileHandle5fsyncEv
00000000 W _ZN4mbed10FileHandle5lseekEli
00000000 W _ZN4mbed10FileHandle5sigioENS_8CallbackIFvvEEE
00000000 W _ZN4mbed10FileHandle6rewindEv
00000000 W _ZN4mbed10FileHandle8truncateEl
         U _ZN4mbed10SerialBase10_base_getcEv
         U _ZN4mbed10SerialBase10_base_putcEi
         U _ZN4mbed10SerialBase4lockEv
         U _ZN4mbed10SerialBase6unlockEv
         U _ZN4mbed10SerialBase8readableEv
         U _ZN4mbed10SerialBase9writeableEv
         U _ZN4mbed10SerialBaseC2E7PinNameS1_i
         U _ZN4mbed10SerialBaseC2ERK15serial_pinmap_ti
         U _ZN4mbed10SerialBaseD2Ev
00000000 T _ZN4mbed16UnbufferedSerial4readEPvj
00000000 W _ZN4mbed16UnbufferedSerial4seekEli
00000000 W _ZN4mbed16UnbufferedSerial4sizeEv
00000000 W _ZN4mbed16UnbufferedSerial5closeEv
00000000 T _ZN4mbed16UnbufferedSerial5writeEPKvj
00000000 W _ZN4mbed16UnbufferedSerial6isattyEv
00000000 T _ZN4mbed16UnbufferedSerialC1E7PinNameS1_i
00000000 T _ZN4mbed16UnbufferedSerialC1ERK15serial_pinmap_ti
00000000 T _ZN4mbed16UnbufferedSerialC2E7PinNameS1_i
00000000 T _ZN4mbed16UnbufferedSerialC2ERK15serial_pinmap_ti
00000000 W _ZN4mbed16UnbufferedSerialD0Ev
00000000 W _ZN4mbed16UnbufferedSerialD1Ev
00000000 W _ZN4mbed16UnbufferedSerialD2Ev
00000000 n _ZN4mbed16UnbufferedSerialD5Ev
00000000 W _ZNK4mbed10FileHandle11is_blockingEv
00000000 T _ZNK4mbed16UnbufferedSerial4pollEs
00000000 T _ZThn76_N4mbed16UnbufferedSerial4readEPvj
00000006 W _ZThn76_N4mbed16UnbufferedSerial4seekEli
00000006 W _ZThn76_N4mbed16UnbufferedSerial4sizeEv
00000004 W _ZThn76_N4mbed16UnbufferedSerial5closeEv
00000000 T _ZThn76_N4mbed16UnbufferedSerial5writeEPKvj
00000004 W _ZThn76_N4mbed16UnbufferedSerial6isattyEv
00000014 W _ZThn76_N4mbed16UnbufferedSerialD0Ev
00000014 W _ZThn76_N4mbed16UnbufferedSerialD1Ev
00000000 T _ZThn76_NK4mbed16UnbufferedSerial4pollEs
00000000 R _ZTVN4mbed16UnbufferedSerialE
         U core_util_in_critical_section

UARTSerial.o:
00000000 t .LTHUNK10
00000000 t .LTHUNK11
00000000 t .LTHUNK12
00000000 t .LTHUNK13
00000000 t .LTHUNK2
00000000 t .LTHUNK3
00000000 t .LTHUNK7
00000000 t .LTHUNK8
00000000 t .LTHUNK9
         U _ZdlPvj
00000000 W _ZN4mbed10FileHandle4flenEv
         U _ZN4mbed10FileHandle4sizeEv
00000000 W _ZN4mbed10FileHandle4tellEv
00000000 W _ZN4mbed10FileHandle5fsyncEv
00000000 W _ZN4mbed10FileHandle5lseekEli
00000000 W _ZN4mbed10FileHandle6rewindEv
00000000 W _ZN4mbed10FileHandle8truncateEl
         U _ZN4mbed10SerialBase10_base_getcEv
         U _ZN4mbed10SerialBase10_base_putcEi
         U _ZN4mbed10SerialBase12enable_inputEb
         U _ZN4mbed10SerialBase13enable_outputEb
         U _ZN4mbed10SerialBase4baudEi
         U _ZN4mbed10SerialBase6attachENS_8CallbackIFvvEEENS0_7IrqTypeE
         U _ZN4mbed10SerialBase6formatEiNS0_6ParityEi
         U _ZN4mbed10SerialBase8readableEv
         U _ZN4mbed10SerialBase9writeableEv
         U _ZN4mbed10SerialBaseC2E7PinNameS1_i
         U _ZN4mbed10SerialBaseC2ERK15serial_pinmap_ti
         U _ZN4mbed10SerialBaseD2Ev
00000000 T _ZN4mbed10UARTSerial10api_unlockEv
00000000 T _ZN4mbed10UARTSerial10set_formatEiNS_10SerialBase6ParityEi
00000000 T _ZN4mbed10UARTSerial12enable_inputEb
00000000 W _ZN4mbed10UARTSerial12set_blockingEb
00000000 T _ZN4mbed10UARTSerial13enable_outputEb
00000000 T _ZN4mbed10UARTSerial13enable_rx_irqEv
00000000 T _ZN4mbed10UARTSerial13enable_tx_irqEv
00000000 T _ZN4mbed10UARTSerial14disable_rx_irqEv
00000000 T _ZN4mbed10UARTSerial14disable_tx_irqEv
00000000 T _ZN4mbed10UARTSerial16write_unbufferedEPKcj
00000000 T _ZN4mbed10UARTSerial23set_data_carrier_detectE7PinNameb
00000000 T _ZN4mbed10UARTSerial4lockEv
00000000 T _ZN4mbed10UARTSerial4readEPvj
00000000 T _ZN4mbed10UARTSerial4seekEli
00000000 T _ZN4mbed10UARTSerial4syncEv
00000000 T _ZN4mbed10UARTSerial4wakeEv
00000000 T _ZN4mbed10UARTSerial5closeEv
00000000 T _ZN4mbed10UARTSerial5sigioENS_8CallbackIFvvEEE
00000000 T _ZN4mbed10UARTSerial5writeEPKvj
00000000 T _ZN4mbed10UARTSerial6isattyEv
00000000 T _ZN4mbed10UARTSerial6rx_irqEv
00000000 T _ZN4mbed10UARTSerial6tx_irqEv
00000000 T _ZN4mbed10UARTSerial6unlockEv
00000000 T _ZN4mbed10UARTSerial7dcd_irqEv
00000000 T _ZN4mbed10UARTSerial8api_lockEv
00000000 T _ZN4mbed10UARTSerial8set_baudEi
00000000 T _ZN4mbed10UARTSerialC1E7PinNameS1_i
00000000 T _ZN4mbed10UARTSerialC1ERK15serial_pinmap_ti
00000000 T _ZN4mbed10UARTSerialC2E7PinNameS1_i
00000000 T _ZN4mbed10UARTSerialC2ERK15serial_pinmap_ti
00000000 T _ZN4mbed10UARTSerialD0Ev
00000000 T _ZN4mbed10UARTSerialD1Ev
00000000 T _ZN4mbed10UARTSerialD2Ev
         U _ZN4mbed11InterruptIn4fallENS_8CallbackIFvvEEE
         U _ZN4mbed11InterruptIn4readEv
         U _ZN4mbed11InterruptIn4riseENS_8CallbackIFvvEEE
         U _ZN4mbed11InterruptInC1E7PinName
00000000 W _ZN4mbed14CircularBufferIcLm256EmE3popERc
00000000 W _ZN4mbed14CircularBufferIcLm256EmE4pushERKc
00000000 W _ZN4mbed8CallbackIFvvEE13function_callINS2_14method_contextINS_10UARTSerialEMS5_FvvEEEEEvPKv
00000000 W _ZN4mbed8CallbackIFvvEE13function_dtorINS2_14method_contextINS_10UARTSerialEMS5_FvvEEEEEvPv
00000000 W _ZN4mbed8CallbackIFvvEE13function_moveINS2_14method_contextINS_10UARTSerialEMS5_FvvEEEEEvPvPKv
00000000 W _ZN4mbed8CallbackIFvvEE8generateINS2_14method_contextINS_10UARTSerialEMS5_FvvEEEEEvRKT_
00000000 W _ZN4mbed8CallbackIFvvEED1Ev
00000000 W _ZN4mbed8CallbackIFvvEED2Ev
00000000 n _ZN4mbed8CallbackIFvvEED5Ev
         U _ZN4rtos5Mutex4lockEv
         U _ZN4rtos5Mutex6unlockEv
         U _ZN4rtos5MutexC1Ev
         U _ZN4rtos5MutexD1Ev
00000000 W _ZNK4mbed10UARTSerial11is_blockingEv
00000000 T _ZNK4mbed10UARTSerial3hupEv
00000000 T _ZNK4mbed10UARTSerial4pollEs
00000000 W _ZNK4mbed14CircularBufferIcLm256EmE5emptyEv
00000000 W _ZNK4mbed8CallbackIFvvEE4callEv
         U _Znwj
00000000 T _ZThn76_N4mbed10UARTSerial12enable_inputEb
00000008 W _ZThn76_N4mbed10UARTSerial12set_blockingEb
00000000 T _ZThn76_N4mbed10UARTSerial13enable_outputEb
00000000 T _ZThn76_N4mbed10UARTSerial4readEPvj
00000000 T _ZThn76_N4mbed10UARTSerial4seekEli
00000000 T _ZThn76_N4mbed10UARTSerial4syncEv
00000000 T _ZThn76_N4mbed10UARTSerial5closeEv
00000000 T _ZThn76_N4mbed10UARTSerial5sigioENS_8CallbackIFvvEEE
00000000 T _ZThn76_N4mbed10UARTSerial5writeEPKvj
00000000 T _ZThn76_N4mbed10UARTSerial6isattyEv
00000000 T _ZThn76_N4mbed10UARTSerialD0Ev
00000000 T _ZThn76_N4mbed10UARTSerialD1Ev
00000006 W _ZThn76_NK4mbed10UARTSerial11is_blockingEv
00000000 T _ZThn76_NK4mbed10UARTSerial4pollEs
00000000 R _ZTVN4mbed10UARTSerialE
00000000 V _ZZN4mbed8CallbackIFvvEE8generateINS2_14method_contextINS_10UARTSerialEMS5_FvvEEEEEvRKT_E3ops
         U core_util_critical_section_enter
         U core_util_critical_section_exit
         U core_util_in_critical_section
         U mbed_assert_internal
         U memset
         U thread_sleep_for

Serial.o:
00000000 t .LTHUNK2
00000000 t .LTHUNK3
00000000 t .LTHUNK4
00000000 t .LTHUNK5
         U _ZdlPvj
00000000 W _ZN4mbed10FileHandle12enable_inputEb
00000000 W _ZN4mbed10FileHandle12set_blockingEb
00000000 W _ZN4mbed10FileHandle13enable_outputEb
00000000 W _ZN4mbed10FileHandle4flenEv
00000000 W _ZN4mbed10FileHandle5fsyncEv
00000000 W _ZN4mbed10FileHandle5lseekEli
00000000 W _ZN4mbed10FileHandle5sigioENS_8CallbackIFvvEEE
00000000 W _ZN4mbed10FileHandle8truncateEl
         U _ZN4mbed10SerialBase10_base_getcEv
         U _ZN4mbed10SerialBase10_base_putcEi
         U _ZN4mbed10SerialBaseC2E7PinNameS1_i
         U _ZN4mbed10SerialBaseC2ERK15serial_pinmap_ti
         U _ZN4mbed10SerialBaseD2Ev
00000000 T _ZN4mbed6Serial4lockEv
00000000 T _ZN4mbed6Serial5_getcEv
00000000 T _ZN4mbed6Serial5_putcEi
00000000 T _ZN4mbed6Serial6unlockEv
00000000 T _ZN4mbed6SerialC1E7PinNameS1_i
00000000 T _ZN4mbed6SerialC1E7PinNameS1_PKci
00000000 T _ZN4mbed6SerialC1ERK15serial_pinmap_ti
00000000 T _ZN4mbed6SerialC1ERK15serial_pinmap_tPKci
00000000 T _ZN4mbed6SerialC2E7PinNameS1_i
00000000 T _ZN4mbed6SerialC2E7PinNameS1_PKci
00000000 T _ZN4mbed6SerialC2ERK15serial_pinmap_ti
00000000 T _ZN4mbed6SerialC2ERK15serial_pinmap_tPKci
00000000 W _ZN4mbed6SerialD0Ev
00000000 W _ZN4mbed6SerialD1Ev
00000000 W _ZN4mbed6SerialD2Ev
00000000 n _ZN4mbed6SerialD5Ev
         U _ZN4mbed6Stream4readEPvj
         U _ZN4mbed6Stream4seekEli
         U _ZN4mbed6Stream4sizeEv
         U _ZN4mbed6Stream4syncEv
         U _ZN4mbed6Stream4tellEv
         U _ZN4mbed6Stream5closeEv
         U _ZN4mbed6Stream5writeEPKvj
         U _ZN4mbed6Stream6isattyEv
         U _ZN4mbed6Stream6rewindEv
         U _ZN4mbed6StreamC2EPKc
         U _ZN4mbed6StreamD2Ev
         U _ZN4rtos5Mutex4lockEv
         U _ZN4rtos5Mutex6unlockEv
         U _ZN4rtos5MutexC1Ev
         U _ZN4rtos5MutexD1Ev
00000000 W _ZNK4mbed10FileHandle11is_blockingEv
00000000 W _ZNK4mbed10FileHandle4pollEs
00000000 T _ZThn76_N4mbed6Serial4lockEv
00000000 T _ZThn76_N4mbed6Serial5_getcEv
00000000 T _ZThn76_N4mbed6Serial5_putcEi
00000000 T _ZThn76_N4mbed6Serial6unlockEv
00000014 W _ZThn76_N4mbed6SerialD0Ev
00000034 W _ZThn76_N4mbed6SerialD1Ev
0000001a W _ZThn80_N4mbed6SerialD0Ev
0000003a W _ZThn80_N4mbed6SerialD1Ev
00000000 R _ZTVN4mbed6SerialE

SerialBase.o:
         U _us_ticker_initialized
         U _wait_us_generic
         U _wait_us_ticks
         U _ZdlPvj
00000000 T _ZN4mbed10SerialBase10_base_getcEv
00000000 T _ZN4mbed10SerialBase10_base_putcEi
00000000 T _ZN4mbed10SerialBase10send_breakEv
00000000 T _ZN4mbed10SerialBase11clear_breakEv
00000000 T _ZN4mbed10SerialBase12_init_directEv
00000000 T _ZN4mbed10SerialBase12_irq_handlerEm9SerialIrq
00000000 T _ZN4mbed10SerialBase12enable_inputEb
00000000 T _ZN4mbed10SerialBase13enable_outputEb
00000000 T _ZN4mbed10SerialBase4baudEi
00000000 T _ZN4mbed10SerialBase4lockEv
00000000 T _ZN4mbed10SerialBase5_initEv
00000000 T _ZN4mbed10SerialBase6attachENS_8CallbackIFvvEEENS0_7IrqTypeE
00000000 T _ZN4mbed10SerialBase6formatEiNS0_6ParityEi
00000000 T _ZN4mbed10SerialBase6unlockEv
00000000 T _ZN4mbed10SerialBase7_deinitEv
00000000 T _ZN4mbed10SerialBase8readableEv
00000000 T _ZN4mbed10SerialBase9set_breakEv
00000000 T _ZN4mbed10SerialBase9writeableEv
00000000 T _ZN4mbed10SerialBaseC1E7PinNameS1_i
00000000 T _ZN4mbed10SerialBaseC1ERK15serial_pinmap_ti
00000000 T _ZN4mbed10SerialBaseC2E7PinNameS1_i
00000000 T _ZN4mbed10SerialBaseC2ERK15serial_pinmap_ti
00000000 T _ZN4mbed10SerialBaseD0Ev
00000000 T _ZN4mbed10SerialBaseD1Ev
00000000 T _ZN4mbed10SerialBaseD2Ev
00000000 W _ZN4mbed8CallbackIFvvEE13function_callIPS1_EEvPKv
00000000 W _ZN4mbed8CallbackIFvvEE13function_dtorIPS1_EEvPv
00000000 W _ZN4mbed8CallbackIFvvEE13function_moveIPS1_EEvPvPKv
00000000 W _ZN4mbed8CallbackIFvvEEaSERKS2_
00000000 W _ZN4mbed8CallbackIFvvEED1Ev
00000000 W _ZN4mbed8CallbackIFvvEED2Ev
00000000 n _ZN4mbed8CallbackIFvvEED5Ev
00000000 W _ZNK4mbed8CallbackIFvvEE4callEv
00000000 R _ZTVN4mbed10SerialBaseE
         U core_util_critical_section_enter
         U core_util_critical_section_exit
         U mbed_assert_internal
         U memset
         U serial_baud
         U serial_break_clear
         U serial_break_set
         U serial_format
         U serial_free
         U serial_getc
         U serial_init
         U serial_init_direct
         U serial_irq_handler
         U serial_irq_set
         U serial_putc
         U serial_readable
         U serial_writable
         U sleep_manager_lock_deep_sleep_internal
         U sleep_manager_unlock_deep_sleep_internal

AsyncOp.o:
         U __cxa_pure_virtual
         U _ZdlPvj
         U _ZN17OperationListBase6removeEP7AsyncOp
00000000 W _ZN4mbed8CallbackIFvvEEaSERKS2_
00000000 W _ZN4mbed8CallbackIFvvEEC1ERKS2_
00000000 W _ZN4mbed8CallbackIFvvEEC2ERKS2_
00000000 n _ZN4mbed8CallbackIFvvEEC5ERKS2_
00000000 W _ZN4mbed8CallbackIFvvEED1Ev
00000000 W _ZN4mbed8CallbackIFvvEED2Ev
00000000 n _ZN4mbed8CallbackIFvvEED5Ev
         U _ZN4rtos5Mutex4lockEv
         U _ZN4rtos5Mutex6unlockEv
         U _ZN4rtos9Semaphore15try_acquire_forEm
         U _ZN4rtos9Semaphore7releaseEv
         U _ZN4rtos9SemaphoreC1El
         U _ZN4rtos9SemaphoreD1Ev
00000000 T _ZN7AsyncOp10_host_lockEPN4rtos5MutexE
00000000 T _ZN7AsyncOp12_host_unlockEPN4rtos5MutexE
00000000 T _ZN7AsyncOp4waitEPN4rtos5MutexEm
00000000 T _ZN7AsyncOp5abortEv
00000000 T _ZN7AsyncOp6_abortEb
00000000 T _ZN7AsyncOp7timeoutEv
00000000 T _ZN7AsyncOp8completeEv
00000000 T _ZN7AsyncOpC1ERN4mbed8CallbackIFvvEEE
00000000 T _ZN7AsyncOpC1Ev
00000000 T _ZN7AsyncOpC2ERN4mbed8CallbackIFvvEEE
00000000 T _ZN7AsyncOpC2Ev
00000000 T _ZN7AsyncOpD0Ev
00000000 T _ZN7AsyncOpD1Ev
00000000 T _ZN7AsyncOpD2Ev
00000000 R _ZTV7AsyncOp
         U core_util_critical_section_enter
         U core_util_critical_section_exit
         U mbed_assert_internal
         U memset

OperationListBase.o:
         U _ZN14LinkedListBase4headEv
         U _ZN14LinkedListBase6removeEP9LinkEntry
         U _ZN14LinkedListBase7dequeueEv
         U _ZN14LinkedListBase7enqueueEP9LinkEntry
         U _ZN14LinkedListBaseC1Ev
         U _ZN14LinkedListBaseD1Ev
00000000 T _ZN17OperationListBase10remove_allEv
00000000 T _ZN17OperationListBase11dequeue_rawEv
00000000 T _ZN17OperationListBase3addEP7AsyncOp
00000000 T _ZN17OperationListBase5emptyEv
00000000 T _ZN17OperationListBase6removeEP7AsyncOp
00000000 T _ZN17OperationListBase7processEv
00000000 T _ZN17OperationListBaseC1Ev
00000000 T _ZN17OperationListBaseC2Ev
00000000 T _ZN17OperationListBaseD1Ev
00000000 T _ZN17OperationListBaseD2Ev

USBHID.o:
         U _Z11get_usb_phyv
         U _ZdlPvj
         U _ZN16EndpointResolver11endpoint_inE13usb_ep_type_tm
         U _ZN16EndpointResolver12endpoint_outE13usb_ep_type_tm
         U _ZN16EndpointResolver13endpoint_ctrlEm
         U _ZN16EndpointResolver5validEv
         U _ZN16EndpointResolverC1EPK14usb_ep_table_t
         U _ZN16EndpointResolverD1Ev
         U _ZN17OperationListBase3addEP7AsyncOp
         U _ZN17OperationListBase7processEv
         U _ZN17OperationListBaseC2Ev
         U _ZN17OperationListBaseD2Ev
00000000 W _ZN4mbed8CallbackIFvvEE13function_callINS2_14method_contextI9USBDeviceMS5_FvvEEEEEvPKv
00000000 W _ZN4mbed8CallbackIFvvEE13function_dtorINS2_14method_contextI9USBDeviceMS5_FvvEEEEEvPv
00000000 W _ZN4mbed8CallbackIFvvEE13function_moveINS2_14method_contextI9USBDeviceMS5_FvvEEEEEvPvPKv
00000000 T _ZN6USBHID10wait_readyEv
00000000 T _ZN6USBHID11report_descEv
00000000 T _ZN6USBHID16callback_requestEPKN9USBDevice14setup_packet_tE
00000000 T _ZN6USBHID18configuration_descEh
00000000 T _ZN6USBHID18report_desc_lengthEv
00000000 T _ZN6USBHID20string_iproduct_descEv
00000000 T _ZN6USBHID21callback_state_changeEN9USBDevice11DeviceStateE
00000000 W _ZN6USBHID21HID_callbackSetReportEP10HID_REPORT
00000000 T _ZN6USBHID22callback_set_interfaceEth
00000000 T _ZN6USBHID22string_iinterface_descEv
00000000 T _ZN6USBHID26callback_request_xfer_doneEPKN9USBDevice14setup_packet_tEb
00000000 T _ZN6USBHID26callback_set_configurationEh
00000000 T _ZN6USBHID4readEP10HID_REPORT
00000000 T _ZN6USBHID4sendEPK10HID_REPORT
00000000 T _ZN6USBHID5_initEhh
00000000 T _ZN6USBHID5readyEv
00000000 T _ZN6USBHID7read_nbEP10HID_REPORT
00000000 T _ZN6USBHID7send_nbEPK10HID_REPORT
00000000 T _ZN6USBHID9_read_isrEv
00000000 T _ZN6USBHID9_send_isrEv
00000000 W _ZN6USBHID9AsyncRead7processEv
00000000 W _ZN6USBHID9AsyncReadD0Ev
00000000 W _ZN6USBHID9AsyncReadD1Ev
00000000 W _ZN6USBHID9AsyncReadD2Ev
00000000 n _ZN6USBHID9AsyncReadD5Ev
00000000 W _ZN6USBHID9AsyncSend7processEv
00000000 W _ZN6USBHID9AsyncSendD0Ev
00000000 W _ZN6USBHID9AsyncSendD1Ev
00000000 W _ZN6USBHID9AsyncSendD2Ev
00000000 n _ZN6USBHID9AsyncSendD5Ev
00000000 W _ZN6USBHID9AsyncWait7processEv
00000000 W _ZN6USBHID9AsyncWaitD0Ev
00000000 W _ZN6USBHID9AsyncWaitD1Ev
00000000 W _ZN6USBHID9AsyncWaitD2Ev
00000000 n _ZN6USBHID9AsyncWaitD5Ev
00000000 W _ZN6USBHID9report_rxEv
00000000 W _ZN6USBHID9report_txEv
00000000 T _ZN6USBHIDC1Ebhhttt
00000000 T _ZN6USBHIDC1EP6USBPhyhhttt
00000000 T _ZN6USBHIDC2Ebhhttt
00000000 T _ZN6USBHIDC2EP6USBPhyhhttt
00000000 T _ZN6USBHIDD0Ev
00000000 T _ZN6USBHIDD1Ev
00000000 T _ZN6USBHIDD2Ev
         U _ZN7AsyncOp4waitEPN4rtos5MutexEm
         U _ZN7AsyncOp8completeEv
         U _ZN7AsyncOpC2Ev
         U _ZN7AsyncOpD2Ev
         U _ZN9USBDevice10configuredEv
         U _ZN9USBDevice10read_startEhPhm
         U _ZN9USBDevice11device_descEv
         U _ZN9USBDevice11read_finishEh
         U _ZN9USBDevice11write_startEhPhm
00000000 W _ZN9USBDevice12callback_sofEi
         U _ZN9USBDevice12endpoint_addEhm13usb_ep_type_tN4mbed8CallbackIFvvEEE
00000000 W _ZN9USBDevice12endpoint_addI6USBHIDEEbhm13usb_ep_type_tMT_FvvE
         U _ZN9USBDevice12write_finishEh
         U _ZN9USBDevice13assert_lockedEv
         U _ZN9USBDevice13start_processEv
00000000 W _ZN9USBDevice14callback_powerEb
00000000 W _ZN9USBDevice14callback_resetEv
         U _ZN9USBDevice14endpoint_abortEh
         U _ZN9USBDevice14endpoint_tableEv
         U _ZN9USBDevice15find_descriptorEhh
         U _ZN9USBDevice16complete_requestENS_13RequestResultEPhm
00000000 W _ZN9USBDevice18report_desc_dengthEv
         U _ZN9USBDevice18string_langid_descEv
         U _ZN9USBDevice19string_iserial_descEv
         U _ZN9USBDevice22complete_set_interfaceEb
         U _ZN9USBDevice25string_imanufacturer_descEv
         U _ZN9USBDevice26complete_request_xfer_doneEb
         U _ZN9USBDevice26complete_set_configurationEb
         U _ZN9USBDevice26string_iconfiguration_descEv
         U _ZN9USBDevice2inEh
         U _ZN9USBDevice3outEh
         U _ZN9USBDevice3sofEi
         U _ZN9USBDevice4initEv
         U _ZN9USBDevice4lockEv
         U _ZN9USBDevice5powerEb
         U _ZN9USBDevice5resetEv
         U _ZN9USBDevice6deinitEv
         U _ZN9USBDevice6ep0_inEv
         U _ZN9USBDevice6unlockEv
         U _ZN9USBDevice7connectEv
         U _ZN9USBDevice7ep0_outEv
         U _ZN9USBDevice7suspendEb
         U _ZN9USBDevice9ep0_setupEv
         U _ZN9USBDeviceC2EP6USBPhyttt
         U _ZN9USBDeviceD2Ev
00000000 R _ZTV6USBHID
00000000 V _ZTVN6USBHID9AsyncReadE
00000000 V _ZTVN6USBHID9AsyncSendE
00000000 V _ZTVN6USBHID9AsyncWaitE
00000000 V _ZZN4mbed8CallbackIFvvEE8generateINS2_14method_contextI9USBDeviceMS5_FvvEEEEEvRKT_E3ops
00000000 r _ZZN6USBHID20string_iproduct_descEvE24stringIproductDescriptor
00000000 r _ZZN6USBHID22string_iinterface_descEvE26stringIinterfaceDescriptor
         U mbed_assert_internal
         U memcpy
         U memset

USBCDC.o:
         U _Z11get_usb_phyv
         U _ZdlPvj
00000000 r _ZL23cdc_line_coding_default
         U _ZN16EndpointResolver11endpoint_inE13usb_ep_type_tm
         U _ZN16EndpointResolver12endpoint_outE13usb_ep_type_tm
         U _ZN16EndpointResolver13endpoint_ctrlEm
         U _ZN16EndpointResolver5validEv
         U _ZN16EndpointResolverC1EPK14usb_ep_table_t
         U _ZN16EndpointResolverD1Ev
         U _ZN17OperationListBase3addEP7AsyncOp
         U _ZN17OperationListBase5emptyEv
         U _ZN17OperationListBase7processEv
         U _ZN17OperationListBaseC2Ev
         U _ZN17OperationListBaseD2Ev
00000000 W _ZN4mbed8CallbackIFvvEE13function_callINS2_14method_contextI9USBDeviceMS5_FvvEEEEEvPKv
00000000 W _ZN4mbed8CallbackIFvvEE13function_callIPS1_EEvPKv
00000000 W _ZN4mbed8CallbackIFvvEE13function_dtorINS2_14method_contextI9USBDeviceMS5_FvvEEEEEvPv
00000000 W _ZN4mbed8CallbackIFvvEE13function_dtorIPS1_EEvPv
00000000 W _ZN4mbed8CallbackIFvvEE13function_moveINS2_14method_contextI9USBDeviceMS5_FvvEEEEEvPvPKv
00000000 W _ZN4mbed8CallbackIFvvEE13function_moveIPS1_EEvPvPKv
00000000 W _ZN4mbed8CallbackIFvvEED1Ev
00000000 W _ZN4mbed8CallbackIFvvEED2Ev
00000000 n _ZN4mbed8CallbackIFvvEED5Ev
00000000 W _ZN6USBCDC10AsyncWrite7processEv
00000000 W _ZN6USBCDC10AsyncWriteD0Ev
00000000 W _ZN6USBCDC10AsyncWriteD1Ev
00000000 W _ZN6USBCDC10AsyncWriteD2Ev
00000000 n _ZN6USBCDC10AsyncWriteD5Ev
00000000 T _ZN6USBCDC10receive_nbEPhmPm
00000000 T _ZN6USBCDC10wait_readyEv
00000000 T _ZN6USBCDC11device_descEv
00000000 T _ZN6USBCDC12_receive_isrEv
00000000 T _ZN6USBCDC14callback_resetEv
00000000 T _ZN6USBCDC15_send_isr_startEv
00000000 T _ZN6USBCDC16callback_requestEPKN9USBDevice14setup_packet_tE
00000000 T _ZN6USBCDC18_receive_isr_startEv
00000000 T _ZN6USBCDC18configuration_descEh
00000000 W _ZN6USBCDC19line_coding_changedEiiii
00000000 T _ZN6USBCDC20string_iproduct_descEv
00000000 T _ZN6USBCDC21callback_state_changeEN9USBDevice11DeviceStateE
00000000 T _ZN6USBCDC22callback_set_interfaceEth
00000000 T _ZN6USBCDC22string_iinterface_descEv
00000000 T _ZN6USBCDC26_change_terminal_connectedEb
00000000 T _ZN6USBCDC26callback_request_xfer_doneEPKN9USBDevice14setup_packet_tEb
00000000 T _ZN6USBCDC26callback_set_configurationEh
00000000 T _ZN6USBCDC4sendEPhm
00000000 T _ZN6USBCDC5_initEv
00000000 T _ZN6USBCDC5readyEv
00000000 W _ZN6USBCDC7data_rxEv
00000000 W _ZN6USBCDC7data_txEv
00000000 T _ZN6USBCDC7receiveEPhmPm
00000000 T _ZN6USBCDC7send_nbEPhmPmb
00000000 T _ZN6USBCDC9_send_isrEv
00000000 W _ZN6USBCDC9AsyncRead7processEv
00000000 W _ZN6USBCDC9AsyncReadD0Ev
00000000 W _ZN6USBCDC9AsyncReadD1Ev
00000000 W _ZN6USBCDC9AsyncReadD2Ev
00000000 n _ZN6USBCDC9AsyncReadD5Ev
00000000 W _ZN6USBCDC9AsyncWait7processEv
00000000 W _ZN6USBCDC9AsyncWaitD0Ev
00000000 W _ZN6USBCDC9AsyncWaitD1Ev
00000000 W _ZN6USBCDC9AsyncWaitD2Ev
00000000 n _ZN6USBCDC9AsyncWaitD5Ev
00000000 T _ZN6USBCDCC1Ebttt
00000000 T _ZN6USBCDCC1EP6USBPhyttt
00000000 T _ZN6USBCDCC2Ebttt
00000000 T _ZN6USBCDCC2EP6USBPhyttt
00000000 T _ZN6USBCDCD0Ev
00000000 T _ZN6USBCDCD1Ev
00000000 T _ZN6USBCDCD2Ev
         U _ZN7AsyncOp4waitEPN4rtos5MutexEm
         U _ZN7AsyncOp8completeEv
         U _ZN7AsyncOpC2Ev
         U _ZN7AsyncOpD2Ev
         U _ZN9USBDevice10read_startEhPhm
         U _ZN9USBDevice11read_finishEh
         U _ZN9USBDevice11write_startEhPhm
00000000 W _ZN9USBDevice12callback_sofEi
         U _ZN9USBDevice12endpoint_addEhm13usb_ep_type_tN4mbed8CallbackIFvvEEE
00000000 W _ZN9USBDevice12endpoint_addI6USBCDCEEbhm13usb_ep_type_tMT_FvvE
         U _ZN9USBDevice12write_finishEh
         U _ZN9USBDevice13assert_lockedEv
         U _ZN9USBDevice13start_processEv
00000000 W _ZN9USBDevice14callback_powerEb
         U _ZN9USBDevice14endpoint_abortEh
         U _ZN9USBDevice14endpoint_tableEv
         U _ZN9USBDevice16complete_requestENS_13RequestResultEPhm
00000000 W _ZN9USBDevice18report_desc_dengthEv
         U _ZN9USBDevice18string_langid_descEv
         U _ZN9USBDevice19string_iserial_descEv
         U _ZN9USBDevice22complete_set_interfaceEb
         U _ZN9USBDevice24endpoint_max_packet_sizeEh
         U _ZN9USBDevice25string_imanufacturer_descEv
         U _ZN9USBDevice26complete_request_xfer_doneEb
         U _ZN9USBDevice26complete_set_configurationEb
         U _ZN9USBDevice26string_iconfiguration_descEv
         U _ZN9USBDevice2inEh
         U _ZN9USBDevice3outEh
         U _ZN9USBDevice3sofEi
         U _ZN9USBDevice4initEv
         U _ZN9USBDevice4lockEv
         U _ZN9USBDevice5powerEb
         U _ZN9USBDevice5resetEv
         U _ZN9USBDevice6deinitEv
         U _ZN9USBDevice6ep0_inEv
         U _ZN9USBDevice6unlockEv
         U _ZN9USBDevice7connectEv
         U _ZN9USBDevice7ep0_outEv
         U _ZN9USBDevice7suspendEb
         U _ZN9USBDevice9ep0_setupEv
         U _ZN9USBDeviceC2EP6USBPhyttt
         U _ZN9USBDeviceD2Ev
00000000 R _ZTV6USBCDC
00000000 V _ZTVN6USBCDC10AsyncWriteE
00000000 V _ZTVN6USBCDC9AsyncReadE
00000000 V _ZTVN6USBCDC9AsyncWaitE
00000000 V _ZZN4mbed8CallbackIFvvEE8generateINS2_14method_contextI9USBDeviceMS5_FvvEEEEEvRKT_E3ops
00000000 r _ZZN6USBCDC20string_iproduct_descEvE24stringIproductDescriptor
00000000 r _ZZN6USBCDC22string_iinterface_descEvE26stringIinterfaceDescriptor
         U mbed_assert_internal
         U memcmp
         U memcpy
         U memset

USBAudio.o:
         U _Z11get_usb_phyv
         U _ZdaPv
         U _ZdlPvj
00000000 t _ZL11stub_volumev
00000000 t _ZL12stub_handlerN8USBAudio10AudioEventE
         U _ZN10ByteBuffer4freeEv
         U _ZN10ByteBuffer4fullEv
         U _ZN10ByteBuffer4readEPhm
         U _ZN10ByteBuffer4sizeEv
         U _ZN10ByteBuffer5writeEPhm
         U _ZN10ByteBuffer6resizeEm
         U _ZN10ByteBufferC1Em
         U _ZN10ByteBufferD1Ev
         U _ZN16EndpointResolver11endpoint_inE13usb_ep_type_tm
         U _ZN16EndpointResolver12endpoint_outE13usb_ep_type_tm
         U _ZN16EndpointResolver13endpoint_ctrlEm
         U _ZN16EndpointResolver5validEv
         U _ZN16EndpointResolverC1EPK14usb_ep_table_t
         U _ZN16EndpointResolverD1Ev
         U _ZN17OperationListBase3addEP7AsyncOp
         U _ZN17OperationListBase7processEv
         U _ZN17OperationListBaseC2Ev
         U _ZN17OperationListBaseD2Ev
00000000 W _ZN4mbed8CallbackIFvN8USBAudio10AudioEventEEE13function_callIPS3_EEvPKvS2_
00000000 W _ZN4mbed8CallbackIFvN8USBAudio10AudioEventEEE13function_dtorIPS3_EEvPv
00000000 W _ZN4mbed8CallbackIFvN8USBAudio10AudioEventEEE13function_moveIPS3_EEvPvPKv
00000000 W _ZN4mbed8CallbackIFvN8USBAudio10AudioEventEEE8generateIPS3_EEvRKT_
00000000 W _ZN4mbed8CallbackIFvN8USBAudio10AudioEventEEEaSERKS4_
00000000 W _ZN4mbed8CallbackIFvN8USBAudio10AudioEventEEED1Ev
00000000 W _ZN4mbed8CallbackIFvN8USBAudio10AudioEventEEED2Ev
00000000 n _ZN4mbed8CallbackIFvN8USBAudio10AudioEventEEED5Ev
00000000 W _ZN4mbed8CallbackIFvvEE13function_callINS2_14method_contextI9USBDeviceMS5_FvvEEEEEvPKv
00000000 W _ZN4mbed8CallbackIFvvEE13function_callIPS1_EEvPKv
00000000 W _ZN4mbed8CallbackIFvvEE13function_dtorINS2_14method_contextI9USBDeviceMS5_FvvEEEEEvPv
00000000 W _ZN4mbed8CallbackIFvvEE13function_dtorIPS1_EEvPv
00000000 W _ZN4mbed8CallbackIFvvEE13function_moveINS2_14method_contextI9USBDeviceMS5_FvvEEEEEvPvPKv
00000000 W _ZN4mbed8CallbackIFvvEE13function_moveIPS1_EEvPvPKv
00000000 W _ZN4mbed8CallbackIFvvEEaSERKS2_
00000000 W _ZN4mbed8CallbackIFvvEED1Ev
00000000 W _ZN4mbed8CallbackIFvvEED2Ev
00000000 n _ZN4mbed8CallbackIFvvEED5Ev
         U _ZN4rtos10EventFlags3setEm
         U _ZN4rtos10EventFlags5clearEm
         U _ZN4rtos10EventFlags8wait_anyEmmb
         U _ZN4rtos10EventFlagsC1Ev
         U _ZN4rtos10EventFlagsD1Ev
         U _ZN7AsyncOp4waitEPN4rtos5MutexEm
         U _ZN7AsyncOp8completeEv
         U _ZN7AsyncOpC2Ev
         U _ZN7AsyncOpD2Ev
00000000 W _ZN8USBAudio10AsyncWrite7processEv
00000000 W _ZN8USBAudio10AsyncWriteD0Ev
00000000 W _ZN8USBAudio10AsyncWriteD1Ev
00000000 W _ZN8USBAudio10AsyncWriteD2Ev
00000000 n _ZN8USBAudio10AsyncWriteD5Ev
00000000 T _ZN8USBAudio10disconnectEv
00000000 T _ZN8USBAudio10get_volumeEv
00000000 T _ZN8USBAudio10read_readyEv
00000000 T _ZN8USBAudio11write_readyEv
00000000 T _ZN8USBAudio12_receive_isrEv
00000000 T _ZN8USBAudio12_send_changeENS_12ChannelStateE
00000000 T _ZN8USBAudio14read_overflowsEb
00000000 T _ZN8USBAudio15_receive_changeENS_12ChannelStateE
00000000 T _ZN8USBAudio15_send_isr_startEv
00000000 T _ZN8USBAudio15read_wait_readyEv
00000000 T _ZN8USBAudio16callback_requestEPKN9USBDevice14setup_packet_tE
00000000 T _ZN8USBAudio16write_underflowsEb
00000000 T _ZN8USBAudio16write_wait_readyEv
00000000 T _ZN8USBAudio18configuration_descEh
00000000 T _ZN8USBAudio19_send_isr_next_syncEv
00000000 T _ZN8USBAudio20string_iproduct_descEv
00000000 T _ZN8USBAudio21callback_state_changeEN9USBDevice11DeviceStateE
00000000 T _ZN8USBAudio22callback_set_interfaceEth
00000000 T _ZN8USBAudio22string_iinterface_descEv
00000000 T _ZN8USBAudio25_build_configuration_descEv
00000000 T _ZN8USBAudio26callback_request_xfer_doneEPKN9USBDevice14setup_packet_tEb
00000000 T _ZN8USBAudio26callback_set_configurationEh
00000000 T _ZN8USBAudio4readEPhm
00000000 T _ZN8USBAudio5_initEmhmhm
00000000 T _ZN8USBAudio5writeEPhm
00000000 T _ZN8USBAudio6attachERN4mbed8CallbackIFvvEEE
00000000 T _ZN8USBAudio7connectEv
00000000 T _ZN8USBAudio7read_nbEPhmPm
00000000 T _ZN8USBAudio8write_nbEPhmPm
00000000 T _ZN8USBAudio9_send_isrEv
00000000 W _ZN8USBAudio9AsyncRead7processEv
00000000 W _ZN8USBAudio9AsyncReadD0Ev
00000000 W _ZN8USBAudio9AsyncReadD1Ev
00000000 W _ZN8USBAudio9AsyncReadD2Ev
00000000 n _ZN8USBAudio9AsyncReadD5Ev
00000000 T _ZN8USBAudio9attach_rxERN4mbed8CallbackIFvNS_10AudioEventEEEE
00000000 T _ZN8USBAudio9attach_txERN4mbed8CallbackIFvNS_10AudioEventEEEE
00000000 T _ZN8USBAudioC1Ebmhmhmttt
00000000 T _ZN8USBAudioC1EP6USBPhymhmhmttt
00000000 T _ZN8USBAudioC2Ebmhmhmttt
00000000 T _ZN8USBAudioC2EP6USBPhymhmhmttt
00000000 T _ZN8USBAudioD0Ev
00000000 T _ZN8USBAudioD1Ev
00000000 T _ZN8USBAudioD2Ev
         U _ZN9USBDevice10disconnectEv
         U _ZN9USBDevice10read_startEhPhm
         U _ZN9USBDevice11device_descEv
         U _ZN9USBDevice11read_finishEh
         U _ZN9USBDevice11write_startEhPhm
00000000 W _ZN9USBDevice12callback_sofEi
         U _ZN9USBDevice12endpoint_addEhm13usb_ep_type_tN4mbed8CallbackIFvvEEE
00000000 W _ZN9USBDevice12endpoint_addIS_EEbhm13usb_ep_type_tMT_FvvE
         U _ZN9USBDevice12write_finishEh
         U _ZN9USBDevice13assert_lockedEv
         U _ZN9USBDevice13start_processEv
00000000 W _ZN9USBDevice14callback_powerEb
00000000 W _ZN9USBDevice14callback_resetEv
         U _ZN9USBDevice14endpoint_tableEv
         U _ZN9USBDevice16complete_requestENS_13RequestResultEPhm
00000000 W _ZN9USBDevice18report_desc_dengthEv
         U _ZN9USBDevice18string_langid_descEv
         U _ZN9USBDevice19endpoint_remove_allEv
         U _ZN9USBDevice19string_iserial_descEv
         U _ZN9USBDevice22complete_set_interfaceEb
         U _ZN9USBDevice25string_imanufacturer_descEv
         U _ZN9USBDevice26complete_request_xfer_doneEb
         U _ZN9USBDevice26complete_set_configurationEb
         U _ZN9USBDevice26string_iconfiguration_descEv
         U _ZN9USBDevice2inEh
         U _ZN9USBDevice3outEh
         U _ZN9USBDevice3sofEi
         U _ZN9USBDevice4initEv
         U _ZN9USBDevice4lockEv
         U _ZN9USBDevice5powerEb
         U _ZN9USBDevice5resetEv
         U _ZN9USBDevice6deinitEv
         U _ZN9USBDevice6ep0_inEv
         U _ZN9USBDevice6unlockEv
         U _ZN9USBDevice7connectEv
         U _ZN9USBDevice7ep0_outEv
         U _ZN9USBDevice7suspendEb
         U _ZN9USBDevice9ep0_setupEv
         U _ZN9USBDeviceC2EP6USBPhyttt
         U _ZN9USBDeviceD2Ev
         U _Znaj
00000000 W _ZNK4mbed8CallbackIFvN8USBAudio10AudioEventEEE4callES2_
00000000 W _ZNK4mbed8CallbackIFvvEE4callEv
00000000 R _ZTV8USBAudio
00000000 V _ZTVN8USBAudio10AsyncWriteE
00000000 V _ZTVN8USBAudio9AsyncReadE
00000000 V _ZZN4mbed8CallbackIFvN8USBAudio10AudioEventEEE8generateIPS3_EEvRKT_E3ops
00000000 V _ZZN4mbed8CallbackIFvvEE8generateINS2_14method_contextI9USBDeviceMS5_FvvEEEEEvRKT_E3ops
00000000 V _ZZN4mbed8CallbackIFvvEE8generateIPS1_EEvRKT_E3ops
00000000 r _ZZN8USBAudio20string_iproduct_descEvE24stringIproductDescriptor
00000000 r _ZZN8USBAudio22string_iinterface_descEvE26stringIinterfaceDescriptor
         U mbed_assert_internal
         U memcpy
         U memset

USBDevice.o:
         U __cxa_pure_virtual
         U _ZdlPvj
00000000 W _ZN4mbed8CallbackIFvvEE13function_callIPS1_EEvPKv
00000000 W _ZN4mbed8CallbackIFvvEE13function_dtorIPS1_EEvPv
00000000 W _ZN4mbed8CallbackIFvvEE13function_moveIPS1_EEvPvPKv
00000000 W _ZN4mbed8CallbackIFvvEEaSERKS2_
00000000 W _ZN4mbed8CallbackIFvvEED1Ev
00000000 W _ZN4mbed8CallbackIFvvEED2Ev
00000000 n _ZN4mbed8CallbackIFvvEED5Ev
00000000 T _ZN9USBDevice10_run_laterEMS_FvvE
00000000 T _ZN9USBDevice10configuredEv
00000000 T _ZN9USBDevice10disconnectEv
00000000 T _ZN9USBDevice10read_startEhPhm
00000000 T _ZN9USBDevice10sof_enableEv
00000000 T _ZN9USBDevice11_control_inEv
00000000 T _ZN9USBDevice11device_descEv
00000000 T _ZN9USBDevice11read_finishEh
00000000 T _ZN9USBDevice11sof_disableEv
00000000 T _ZN9USBDevice11write_startEhPhm
00000000 T _ZN9USBDevice12_control_outEv
00000000 W _ZN9USBDevice12callback_sofEi
00000000 T _ZN9USBDevice12endpoint_addEhm13usb_ep_type_tN4mbed8CallbackIFvvEEE
00000000 T _ZN9USBDevice12write_finishEh
00000000 T _ZN9USBDevice13_change_stateENS_11DeviceStateE
00000000 T _ZN9USBDevice13assert_lockedEv
00000000 T _ZN9USBDevice13start_processEv
00000000 T _ZN9USBDevice14_control_abortEv
00000000 T _ZN9USBDevice14_control_setupEv
00000000 T _ZN9USBDevice14_request_setupEv
00000000 W _ZN9USBDevice14callback_powerEb
00000000 W _ZN9USBDevice14callback_resetEv
00000000 T _ZN9USBDevice14endpoint_abortEh
00000000 T _ZN9USBDevice14endpoint_stallEh
00000000 T _ZN9USBDevice14endpoint_tableEv
00000000 T _ZN9USBDevice15endpoint_removeEh
00000000 T _ZN9USBDevice15find_descriptorEhh
00000000 T _ZN9USBDevice16complete_requestENS_13RequestResultEPhm
00000000 T _ZN9USBDevice16endpoint_unstallEh
00000000 T _ZN9USBDevice17_complete_requestEv
00000000 W _ZN9USBDevice18report_desc_dengthEv
00000000 T _ZN9USBDevice18string_langid_descEv
00000000 T _ZN9USBDevice19_request_get_statusEv
00000000 T _ZN9USBDevice19endpoint_remove_allEv
00000000 T _ZN9USBDevice19string_iserial_descEv
00000000 T _ZN9USBDevice20_control_abort_startEv
00000000 T _ZN9USBDevice20_decode_setup_packetEPhPNS_14setup_packet_tE
00000000 T _ZN9USBDevice20_request_set_addressEv
00000000 T _ZN9USBDevice20_request_set_featureEv
00000000 T _ZN9USBDevice20string_iproduct_descEv
00000000 T _ZN9USBDevice22_request_clear_featureEv
00000000 T _ZN9USBDevice22_request_get_interfaceEv
00000000 T _ZN9USBDevice22_request_set_interfaceEv
00000000 T _ZN9USBDevice22complete_set_interfaceEb
00000000 T _ZN9USBDevice22string_iinterface_descEv
00000000 T _ZN9USBDevice23_complete_set_interfaceEv
00000000 T _ZN9USBDevice23_control_setup_continueEv
00000000 T _ZN9USBDevice23_request_get_descriptorEv
00000000 T _ZN9USBDevice24endpoint_max_packet_sizeEh
00000000 T _ZN9USBDevice25string_imanufacturer_descEv
00000000 T _ZN9USBDevice26_request_get_configurationEv
00000000 T _ZN9USBDevice26_request_set_configurationEv
00000000 T _ZN9USBDevice26complete_request_xfer_doneEb
00000000 T _ZN9USBDevice26complete_set_configurationEb
00000000 T _ZN9USBDevice26string_iconfiguration_descEv
00000000 T _ZN9USBDevice27_complete_request_xfer_doneEv
00000000 T _ZN9USBDevice27_complete_set_configurationEv
00000000 T _ZN9USBDevice2inEh
00000000 T _ZN9USBDevice3outEh
00000000 T _ZN9USBDevice3sofEi
00000000 T _ZN9USBDevice4initEv
00000000 T _ZN9USBDevice4lockEv
00000000 T _ZN9USBDevice5powerEb
00000000 T _ZN9USBDevice5resetEv
00000000 T _ZN9USBDevice6deinitEv
00000000 T _ZN9USBDevice6ep0_inEv
00000000 t _ZN9USBDevice6ep0_inEv.part.17
00000000 T _ZN9USBDevice6unlockEv
00000000 T _ZN9USBDevice7connectEv
00000000 T _ZN9USBDevice7ep0_outEv
00000000 T _ZN9USBDevice7suspendEb
00000000 T _ZN9USBDevice9ep0_setupEv
00000000 t _ZN9USBDevice9ep0_setupEv.part.5
00000000 T _ZN9USBDeviceC1EP6USBPhyttt
00000000 T _ZN9USBDeviceC2EP6USBPhyttt
00000000 T _ZN9USBDeviceD0Ev
00000000 T _ZN9USBDeviceD1Ev
00000000 T _ZN9USBDeviceD2Ev
00000000 W _ZNK4mbed8CallbackIFvvEE4callEv
00000000 R _ZTV9USBDevice
00000000 r _ZZN9USBDevice18string_langid_descEvE24string_langid_descriptor
00000000 b _ZZN9USBDevice19_request_get_statusEvE6status
00000000 r _ZZN9USBDevice19string_iserial_descEvE25string_iserial_descriptor
00000000 r _ZZN9USBDevice20string_iproduct_descEvE26string_iproduct_descriptor
00000000 r _ZZN9USBDevice22string_iinterface_descEvE28string_iinterface_descriptor
00000000 r _ZZN9USBDevice25string_imanufacturer_descEvE31string_imanufacturer_descriptor
00000000 r _ZZN9USBDevice26string_iconfiguration_descEvE32string_iconfiguration_descriptor
         U core_util_critical_section_enter
         U core_util_critical_section_exit
         U mbed_assert_internal
         U mbed_error
         U memset

USBCDC_ECM.o:
         U _Z11get_usb_phyv
         U _ZdlPvj
         U _ZN10ByteBuffer4freeEv
         U _ZN10ByteBuffer4readEPhm
         U _ZN10ByteBuffer4sizeEv
         U _ZN10ByteBuffer5writeEPhm
         U _ZN10ByteBuffer6resizeEm
         U _ZN10ByteBufferC1Em
         U _ZN10ByteBufferD1Ev
00000000 T _ZN10USBCDC_ECM10receive_nbEPhmPm
00000000 T _ZN10USBCDC_ECM10wait_readyEv
00000000 T _ZN10USBCDC_ECM11_write_bulkEPhm
00000000 T _ZN10USBCDC_ECM11device_descEv
00000000 T _ZN10USBCDC_ECM13_int_callbackEv
00000000 T _ZN10USBCDC_ECM13attach_filterEN4mbed8CallbackIFvvEEE
00000000 T _ZN10USBCDC_ECM14callback_resetEv
00000000 T _ZN10USBCDC_ECM15_notify_connectEv
00000000 T _ZN10USBCDC_ECM16callback_requestEPKN9USBDevice14setup_packet_tE
00000000 T _ZN10USBCDC_ECM17_bulk_in_callbackEv
00000000 T _ZN10USBCDC_ECM18_bulk_out_callbackEv
00000000 T _ZN10USBCDC_ECM18configuration_descEh
00000000 T _ZN10USBCDC_ECM18read_packet_filterEv
00000000 T _ZN10USBCDC_ECM19string_iserial_descEv
00000000 T _ZN10USBCDC_ECM20string_iproduct_descEv
00000000 T _ZN10USBCDC_ECM21callback_state_changeEN9USBDevice11DeviceStateE
00000000 T _ZN10USBCDC_ECM22callback_set_interfaceEth
00000000 T _ZN10USBCDC_ECM26_notify_network_connectionEh
00000000 T _ZN10USBCDC_ECM26callback_request_xfer_doneEPKN9USBDevice14setup_packet_tEb
00000000 T _ZN10USBCDC_ECM26callback_set_configurationEh
00000000 T _ZN10USBCDC_ECM26string_iconfiguration_descEv
00000000 T _ZN10USBCDC_ECM31_notify_connection_speed_changeEmm
00000000 T _ZN10USBCDC_ECM4sendEPhm
00000000 T _ZN10USBCDC_ECM5_initEv
00000000 T _ZN10USBCDC_ECM5readyEv
00000000 T _ZN10USBCDC_ECM9attach_rxEN4mbed8CallbackIFvvEEE
00000000 T _ZN10USBCDC_ECMC1Ebttt
00000000 T _ZN10USBCDC_ECMC1EP6USBPhyttt
00000000 T _ZN10USBCDC_ECMC2Ebttt
00000000 T _ZN10USBCDC_ECMC2EP6USBPhyttt
00000000 T _ZN10USBCDC_ECMD0Ev
00000000 T _ZN10USBCDC_ECMD1Ev
00000000 T _ZN10USBCDC_ECMD2Ev
         U _ZN16EndpointResolver11endpoint_inE13usb_ep_type_tm
         U _ZN16EndpointResolver12endpoint_outE13usb_ep_type_tm
         U _ZN16EndpointResolver13endpoint_ctrlEm
         U _ZN16EndpointResolver5validEv
         U _ZN16EndpointResolverC1EPK14usb_ep_table_t
         U _ZN16EndpointResolverD1Ev
00000000 W _ZN4mbed8CallbackIFvvEE13function_callINS2_14method_contextI10USBCDC_ECMMS5_FvvEEEEEvPKv
00000000 W _ZN4mbed8CallbackIFvvEE13function_callINS2_14method_contextI9USBDeviceMS5_FvvEEEEEvPKv
00000000 W _ZN4mbed8CallbackIFvvEE13function_callINS2_14method_contextIN6events10EventQueueEMS6_FvvEEEEEvPKv
00000000 W _ZN4mbed8CallbackIFvvEE13function_callIPS1_EEvPKv
00000000 W _ZN4mbed8CallbackIFvvEE13function_dtorINS2_14method_contextI10USBCDC_ECMMS5_FvvEEEEEvPv
00000000 W _ZN4mbed8CallbackIFvvEE13function_dtorINS2_14method_contextI9USBDeviceMS5_FvvEEEEEvPv
00000000 W _ZN4mbed8CallbackIFvvEE13function_dtorINS2_14method_contextIN6events10EventQueueEMS6_FvvEEEEEvPv
00000000 W _ZN4mbed8CallbackIFvvEE13function_dtorIPS1_EEvPv
00000000 W _ZN4mbed8CallbackIFvvEE13function_moveINS2_14method_contextI10USBCDC_ECMMS5_FvvEEEEEvPvPKv
00000000 W _ZN4mbed8CallbackIFvvEE13function_moveINS2_14method_contextI9USBDeviceMS5_FvvEEEEEvPvPKv
00000000 W _ZN4mbed8CallbackIFvvEE13function_moveINS2_14method_contextIN6events10EventQueueEMS6_FvvEEEEEvPvPKv
00000000 W _ZN4mbed8CallbackIFvvEE13function_moveIPS1_EEvPvPKv
00000000 W _ZN4mbed8CallbackIFvvEEC1ERKS2_
00000000 W _ZN4mbed8CallbackIFvvEEC2ERKS2_
00000000 n _ZN4mbed8CallbackIFvvEEC5ERKS2_
00000000 W _ZN4mbed8CallbackIFvvEED1Ev
00000000 W _ZN4mbed8CallbackIFvvEED2Ev
00000000 n _ZN4mbed8CallbackIFvvEED5Ev
         U _ZN4rtos10EventFlags3setEm
         U _ZN4rtos10EventFlags5clearEm
         U _ZN4rtos10EventFlags8wait_anyEmmb
         U _ZN4rtos10EventFlagsC1Ev
         U _ZN4rtos10EventFlagsD1Ev
         U _ZN4rtos5Mutex4lockEv
         U _ZN4rtos5Mutex6unlockEv
         U _ZN4rtos5MutexC1Ev
         U _ZN4rtos5MutexD1Ev
         U _ZN4rtos6Thread11constructorE12osPriority_tmPhPKc
         U _ZN4rtos6Thread5startEN4mbed8CallbackIFvvEEE
00000000 W _ZN4rtos6ThreadC1E12osPriority_tmPhPKc
00000000 W _ZN4rtos6ThreadC2E12osPriority_tmPhPKc
00000000 n _ZN4rtos6ThreadC5E12osPriority_tmPhPKc
         U _ZN4rtos6ThreadD1Ev
         U _ZN4rtos9SemaphoreC1El
00000000 W _ZN6events10EventQueue13function_callIN4mbed8CallbackIFvvEEEEEvPv
00000000 W _ZN6events10EventQueue13function_dtorIN4mbed8CallbackIFvvEEEEEvPv
00000000 W _ZN6events10EventQueue16dispatch_foreverEv
         U _ZN6events10EventQueue8dispatchEi
         U _ZN6events10EventQueueC1EjPh
         U _ZN6events10EventQueueD1Ev
         U _ZN9USBDevice10read_startEhPhm
         U _ZN9USBDevice11read_finishEh
         U _ZN9USBDevice11write_startEhPhm
00000000 W _ZN9USBDevice12callback_sofEi
         U _ZN9USBDevice12endpoint_addEhm13usb_ep_type_tN4mbed8CallbackIFvvEEE
00000000 W _ZN9USBDevice12endpoint_addI10USBCDC_ECMEEbhm13usb_ep_type_tMT_FvvE
         U _ZN9USBDevice12write_finishEh
         U _ZN9USBDevice13assert_lockedEv
         U _ZN9USBDevice13start_processEv
00000000 W _ZN9USBDevice14callback_powerEb
         U _ZN9USBDevice14endpoint_tableEv
         U _ZN9USBDevice16complete_requestENS_13RequestResultEPhm
00000000 W _ZN9USBDevice18report_desc_dengthEv
         U _ZN9USBDevice18string_langid_descEv
         U _ZN9USBDevice22complete_set_interfaceEb
         U _ZN9USBDevice22string_iinterface_descEv
         U _ZN9USBDevice24endpoint_max_packet_sizeEh
         U _ZN9USBDevice25string_imanufacturer_descEv
         U _ZN9USBDevice26complete_request_xfer_doneEb
         U _ZN9USBDevice26complete_set_configurationEb
         U _ZN9USBDevice2inEh
         U _ZN9USBDevice3outEh
         U _ZN9USBDevice3sofEi
         U _ZN9USBDevice4initEv
         U _ZN9USBDevice4lockEv
         U _ZN9USBDevice5powerEb
         U _ZN9USBDevice5resetEv
         U _ZN9USBDevice6deinitEv
         U _ZN9USBDevice6ep0_inEv
         U _ZN9USBDevice6unlockEv
         U _ZN9USBDevice7connectEv
         U _ZN9USBDevice7ep0_outEv
         U _ZN9USBDevice7suspendEb
         U _ZN9USBDevice9ep0_setupEv
         U _ZN9USBDeviceC2EP6USBPhyttt
         U _ZN9USBDeviceD2Ev
00000000 W _ZNK4mbed8CallbackIFvvEE4callEv
         U _ZNK4rtos10EventFlags3getEv
00000000 R _ZTV10USBCDC_ECM
         U _ZTVN4rtos6ThreadE
00000000 r _ZZN10USBCDC_ECM19string_iserial_descEvE25string_iserial_descriptor
00000000 r _ZZN10USBCDC_ECM20string_iproduct_descEvE26string_iproduct_descriptor
00000000 V _ZZN4mbed8CallbackIFvvEE8generateINS2_14method_contextI10USBCDC_ECMMS5_FvvEEEEEvRKT_E3ops
00000000 V _ZZN4mbed8CallbackIFvvEE8generateINS2_14method_contextI9USBDeviceMS5_FvvEEEEEvRKT_E3ops
00000000 V _ZZN4mbed8CallbackIFvvEE8generateINS2_14method_contextIN6events10EventQueueEMS6_FvvEEEEEvRKT_E3ops
         U equeue_alloc
         U equeue_event_dtor
         U equeue_post
         U mbed_assert_internal
         U mbed_error_printf
         U mbed_mac_address
         U memcpy
         U memset

PolledQueue.o:
         U _ZdlPvj
         U _ZN14LinkedListBase4headEv
         U _ZN14LinkedListBase6removeEP9LinkEntry
         U _ZN14LinkedListBase7dequeueEv
         U _ZN14LinkedListBase7enqueueEP9LinkEntry
         U _ZN14LinkedListBaseC2Ev
         U _ZN14LinkedListBaseD2Ev
00000000 W _ZN4mbed8CallbackIFvvEEC1ERKS2_
00000000 W _ZN4mbed8CallbackIFvvEEC2ERKS2_
00000000 n _ZN4mbed8CallbackIFvvEEC5ERKS2_
00000000 W _ZN4mbed8CallbackIFvvEED1Ev
00000000 W _ZN4mbed8CallbackIFvvEED2Ev
00000000 n _ZN4mbed8CallbackIFvvEED5Ev
00000000 T _ZN6events11PolledQueue4postEPNS_8TaskBaseE
00000000 T _ZN6events11PolledQueue6attachEN4mbed8CallbackIFvvEEE
00000000 T _ZN6events11PolledQueue6cancelEPNS_8TaskBaseE
00000000 T _ZN6events11PolledQueue8dispatchEv
00000000 T _ZN6events11PolledQueueC1EN4mbed8CallbackIFvvEEE
00000000 T _ZN6events11PolledQueueC2EN4mbed8CallbackIFvvEEE
00000000 T _ZN6events11PolledQueueD0Ev
00000000 T _ZN6events11PolledQueueD1Ev
00000000 T _ZN6events11PolledQueueD2Ev
         U _ZN6events8TaskBase6_startEPvm
         U _ZN6events8TaskBase7_finishEv
00000000 R _ZTVN6events11PolledQueueE
         U core_util_critical_section_enter
         U core_util_critical_section_exit
         U mbed_assert_internal
         U memset

TaskBase.o:
         U __cxa_pure_virtual
         U _ZdlPvj
         U _ZN4rtos9Semaphore7acquireEv
         U _ZN4rtos9Semaphore7releaseEv
         U _ZN4rtos9SemaphoreC1El
         U _ZN4rtos9SemaphoreD1Ev
00000000 T _ZN6events8TaskBase11_wake_checkEv
00000000 T _ZN6events8TaskBase3setEPNS_9TaskQueueE
00000000 T _ZN6events8TaskBase4postEv
00000000 T _ZN6events8TaskBase4waitEv
00000000 T _ZN6events8TaskBase5readyEv
00000000 T _ZN6events8TaskBase6_startEPvm
00000000 T _ZN6events8TaskBase6cancelEv
00000000 T _ZN6events8TaskBase6finishEv
00000000 T _ZN6events8TaskBase7_finishEv
00000000 T _ZN6events8TaskBase8finishedEv
00000000 T _ZN6events8TaskBaseC1EPNS_9TaskQueueE
00000000 T _ZN6events8TaskBaseC2EPNS_9TaskQueueE
00000000 T _ZN6events8TaskBaseD0Ev
00000000 T _ZN6events8TaskBaseD1Ev
00000000 T _ZN6events8TaskBaseD2Ev
00000000 R _ZTVN6events8TaskBaseE
         U core_util_critical_section_enter
         U core_util_critical_section_exit
         U mbed_assert_internal

USBMIDI.o:
         U _Z11get_usb_phyv
         U _ZdlPvj
         U _ZN16EndpointResolver11endpoint_inE13usb_ep_type_tm
         U _ZN16EndpointResolver12endpoint_outE13usb_ep_type_tm
         U _ZN16EndpointResolver13endpoint_ctrlEm
         U _ZN16EndpointResolver5validEv
         U _ZN16EndpointResolverC1EPK14usb_ep_table_t
         U _ZN16EndpointResolverD1Ev
00000000 W _ZN4mbed8CallbackIFvvEE13function_callINS2_14method_contextI9USBDeviceMS5_FvvEEEEEvPKv
00000000 W _ZN4mbed8CallbackIFvvEE13function_dtorINS2_14method_contextI9USBDeviceMS5_FvvEEEEEvPv
00000000 W _ZN4mbed8CallbackIFvvEE13function_moveINS2_14method_contextI9USBDeviceMS5_FvvEEEEEvPvPKv
00000000 W _ZN4mbed8CallbackIFvvEED1Ev
00000000 W _ZN4mbed8CallbackIFvvEED2Ev
00000000 n _ZN4mbed8CallbackIFvvEED5Ev
         U _ZN4rtos10EventFlags3setEm
         U _ZN4rtos10EventFlags5clearEm
         U _ZN4rtos10EventFlags8wait_anyEmmb
         U _ZN4rtos10EventFlagsC1Ev
         U _ZN4rtos10EventFlagsD1Ev
         U _ZN4rtos5Mutex4lockEv
         U _ZN4rtos5Mutex6unlockEv
         U _ZN4rtos5MutexC1Ev
         U _ZN4rtos5MutexD1Ev
00000000 T _ZN7USBMIDI10wait_readyEv
00000000 T _ZN7USBMIDI12_in_callbackEv
00000000 T _ZN7USBMIDI13_next_messageEv
00000000 T _ZN7USBMIDI13_out_callbackEv
00000000 T _ZN7USBMIDI16callback_requestEPKN9USBDevice14setup_packet_tE
00000000 T _ZN7USBMIDI18configuration_descEh
00000000 T _ZN7USBMIDI20string_iproduct_descEv
00000000 T _ZN7USBMIDI21callback_state_changeEN9USBDevice11DeviceStateE
00000000 T _ZN7USBMIDI22callback_set_interfaceEth
00000000 T _ZN7USBMIDI22string_iinterface_descEv
00000000 T _ZN7USBMIDI26callback_request_xfer_doneEPKN9USBDevice14setup_packet_tEb
00000000 T _ZN7USBMIDI26callback_set_configurationEh
00000000 T _ZN7USBMIDI4readEP11MIDIMessage
00000000 T _ZN7USBMIDI5_initEv
00000000 T _ZN7USBMIDI5readyEv
00000000 T _ZN7USBMIDI5writeE11MIDIMessage
00000000 T _ZN7USBMIDI6attachEN4mbed8CallbackIFvvEEE
00000000 T _ZN7USBMIDI8readableEv
00000000 T _ZN7USBMIDIC1Ebttt
00000000 T _ZN7USBMIDIC1EP6USBPhyttt
00000000 T _ZN7USBMIDIC2Ebttt
00000000 T _ZN7USBMIDIC2EP6USBPhyttt
00000000 T _ZN7USBMIDID0Ev
00000000 T _ZN7USBMIDID1Ev
00000000 T _ZN7USBMIDID2Ev
         U _ZN9USBDevice10read_startEhPhm
         U _ZN9USBDevice11device_descEv
         U _ZN9USBDevice11read_finishEh
         U _ZN9USBDevice11write_startEhPhm
00000000 W _ZN9USBDevice12callback_sofEi
         U _ZN9USBDevice12endpoint_addEhm13usb_ep_type_tN4mbed8CallbackIFvvEEE
00000000 W _ZN9USBDevice12endpoint_addI7USBMIDIEEbhm13usb_ep_type_tMT_FvvE
         U _ZN9USBDevice12write_finishEh
         U _ZN9USBDevice13assert_lockedEv
         U _ZN9USBDevice13start_processEv
00000000 W _ZN9USBDevice14callback_powerEb
00000000 W _ZN9USBDevice14callback_resetEv
         U _ZN9USBDevice14endpoint_tableEv
         U _ZN9USBDevice16complete_requestENS_13RequestResultEPhm
00000000 W _ZN9USBDevice18report_desc_dengthEv
         U _ZN9USBDevice18string_langid_descEv
         U _ZN9USBDevice19endpoint_remove_allEv
         U _ZN9USBDevice19string_iserial_descEv
         U _ZN9USBDevice22complete_set_interfaceEb
         U _ZN9USBDevice25string_imanufacturer_descEv
         U _ZN9USBDevice26complete_request_xfer_doneEb
         U _ZN9USBDevice26complete_set_configurationEb
         U _ZN9USBDevice26string_iconfiguration_descEv
         U _ZN9USBDevice2inEh
         U _ZN9USBDevice3outEh
         U _ZN9USBDevice3sofEi
         U _ZN9USBDevice4initEv
         U _ZN9USBDevice4lockEv
         U _ZN9USBDevice5powerEb
         U _ZN9USBDevice5resetEv
         U _ZN9USBDevice6deinitEv
         U _ZN9USBDevice6ep0_inEv
         U _ZN9USBDevice6unlockEv
         U _ZN9USBDevice7connectEv
         U _ZN9USBDevice7ep0_outEv
         U _ZN9USBDevice7suspendEb
         U _ZN9USBDevice9ep0_setupEv
         U _ZN9USBDeviceC2EP6USBPhyttt
         U _ZN9USBDeviceD2Ev
         U _ZNK4rtos10EventFlags3getEv
00000000 R _ZTV7USBMIDI
00000000 V _ZZN4mbed8CallbackIFvvEE8generateINS2_14method_contextI9USBDeviceMS5_FvvEEEEEvRKT_E3ops
00000000 r _ZZN7USBMIDI20string_iproduct_descEvE26string_iproduct_descriptor
00000000 r _ZZN7USBMIDI22string_iinterface_descEvE28string_iinterface_descriptor
00000000 r CSWTCH.86
00000000 r CSWTCH.87
         U mbed_assert_internal
         U memcpy
         U memset

USBMouse.o:
         U _Z11get_usb_phyv
         U _ZdlPvj
         U _ZN4rtos10ThisThread9sleep_forEm
         U _ZN4rtos5Mutex4lockEv
         U _ZN4rtos5Mutex6unlockEv
         U _ZN4rtos5MutexC1Ev
         U _ZN4rtos5MutexD1Ev
         U _ZN6USBHID10wait_readyEv
         U _ZN6USBHID16callback_requestEPKN9USBDevice14setup_packet_tE
         U _ZN6USBHID18report_desc_lengthEv
         U _ZN6USBHID20string_iproduct_descEv
         U _ZN6USBHID21callback_state_changeEN9USBDevice11DeviceStateE
00000000 W _ZN6USBHID21HID_callbackSetReportEP10HID_REPORT
         U _ZN6USBHID22callback_set_interfaceEth
         U _ZN6USBHID22string_iinterface_descEv
         U _ZN6USBHID26callback_request_xfer_doneEPKN9USBDevice14setup_packet_tEb
         U _ZN6USBHID26callback_set_configurationEh
         U _ZN6USBHID4sendEPK10HID_REPORT
00000000 W _ZN6USBHID9report_rxEv
00000000 W _ZN6USBHID9report_txEv
         U _ZN6USBHIDC2EP6USBPhyhhttt
         U _ZN6USBHIDD2Ev
00000000 T _ZN8USBMouse10mouse_sendEaaha
00000000 T _ZN8USBMouse11report_descEv
00000000 T _ZN8USBMouse12double_clickEv
00000000 T _ZN8USBMouse18configuration_descEh
00000000 T _ZN8USBMouse4moveEss
00000000 T _ZN8USBMouse5clickEh
00000000 T _ZN8USBMouse5pressEh
00000000 T _ZN8USBMouse6scrollEa
00000000 T _ZN8USBMouse6updateEssha
00000000 T _ZN8USBMouse7releaseEh
00000000 T _ZN8USBMouseC1Eb10MOUSE_TYPEttt
00000000 T _ZN8USBMouseC1EP6USBPhy10MOUSE_TYPEttt
00000000 T _ZN8USBMouseC2Eb10MOUSE_TYPEttt
00000000 T _ZN8USBMouseC2EP6USBPhy10MOUSE_TYPEttt
00000000 T _ZN8USBMouseD0Ev
00000000 T _ZN8USBMouseD1Ev
00000000 T _ZN8USBMouseD2Ev
         U _ZN9USBDevice11device_descEv
00000000 W _ZN9USBDevice12callback_sofEi
         U _ZN9USBDevice13assert_lockedEv
         U _ZN9USBDevice13start_processEv
00000000 W _ZN9USBDevice14callback_powerEb
00000000 W _ZN9USBDevice14callback_resetEv
00000000 W _ZN9USBDevice18report_desc_dengthEv
         U _ZN9USBDevice18string_langid_descEv
         U _ZN9USBDevice19string_iserial_descEv
         U _ZN9USBDevice25string_imanufacturer_descEv
         U _ZN9USBDevice26string_iconfiguration_descEv
         U _ZN9USBDevice2inEh
         U _ZN9USBDevice3outEh
         U _ZN9USBDevice3sofEi
         U _ZN9USBDevice4initEv
         U _ZN9USBDevice4lockEv
         U _ZN9USBDevice5powerEb
         U _ZN9USBDevice5resetEv
         U _ZN9USBDevice6deinitEv
         U _ZN9USBDevice6ep0_inEv
         U _ZN9USBDevice6unlockEv
         U _ZN9USBDevice7connectEv
         U _ZN9USBDevice7ep0_outEv
         U _ZN9USBDevice7suspendEb
         U _ZN9USBDevice9ep0_setupEv
00000000 R _ZTV8USBMouse
00000000 r _ZZN8USBMouse11report_descEvE17report_descriptor
00000000 r _ZZN8USBMouse11report_descEvE17report_descriptor_0
         U memset

equeue.o:
00000000 t ecallback_dispatch
00000000 T equeue_alloc
00000000 T equeue_background
00000000 T equeue_break
00000000 T equeue_call
00000000 T equeue_call_every
00000000 T equeue_call_in
00000000 T equeue_cancel
00000000 T equeue_cancel_user_allocated
00000000 T equeue_chain
00000000 t equeue_chain_dispatch
00000000 t equeue_chain_update
00000000 T equeue_create
00000000 T equeue_create_inplace
00000000 T equeue_dealloc
00000000 T equeue_destroy
00000000 T equeue_dispatch
00000000 T equeue_enqueue
00000000 T equeue_event_delay
00000000 T equeue_event_dtor
00000000 T equeue_event_period
         U equeue_mutex_create
         U equeue_mutex_destroy
         U equeue_mutex_lock
         U equeue_mutex_unlock
00000000 T equeue_post
00000000 T equeue_post_user_allocated
         U equeue_sema_create
         U equeue_sema_destroy
         U equeue_sema_signal
         U equeue_sema_wait
         U equeue_tick
         U equeue_tick_init
00000000 T equeue_timeleft
00000000 T equeue_timeleft_user_allocated
00000000 t equeue_unqueue_by_address
         U free
         U malloc

USBMSD.o:
         U __aeabi_uldivmod
         U _Z11get_usb_phyv
         U _ZdlPvj
         U _ZN16EndpointResolver11endpoint_inE13usb_ep_type_tm
         U _ZN16EndpointResolver12endpoint_outE13usb_ep_type_tm
         U _ZN16EndpointResolver13endpoint_ctrlEm
         U _ZN16EndpointResolver5validEv
         U _ZN16EndpointResolverC1EPK14usb_ep_table_t
         U _ZN16EndpointResolverD1Ev
00000000 W _ZN4mbed8CallbackIFvPKN9USBDevice14setup_packet_tEEE13function_callINS6_14method_contextI6USBMSDMS9_FvS4_EEEEEvPKvS4_
00000000 W _ZN4mbed8CallbackIFvPKN9USBDevice14setup_packet_tEEE13function_callIPS5_EEvPKvS4_
00000000 W _ZN4mbed8CallbackIFvPKN9USBDevice14setup_packet_tEEE13function_dtorINS6_14method_contextI6USBMSDMS9_FvS4_EEEEEvPv
00000000 W _ZN4mbed8CallbackIFvPKN9USBDevice14setup_packet_tEEE13function_dtorIPS5_EEvPv
00000000 W _ZN4mbed8CallbackIFvPKN9USBDevice14setup_packet_tEEE13function_moveINS6_14method_contextI6USBMSDMS9_FvS4_EEEEEvPvPKv
00000000 W _ZN4mbed8CallbackIFvPKN9USBDevice14setup_packet_tEEE13function_moveIPS5_EEvPvPKv
00000000 W _ZN4mbed8CallbackIFvPKN9USBDevice14setup_packet_tEEEC1ERKS6_
00000000 W _ZN4mbed8CallbackIFvPKN9USBDevice14setup_packet_tEEEC2ERKS6_
00000000 n _ZN4mbed8CallbackIFvPKN9USBDevice14setup_packet_tEEEC5ERKS6_
00000000 W _ZN4mbed8CallbackIFvPKN9USBDevice14setup_packet_tEEED1Ev
00000000 W _ZN4mbed8CallbackIFvPKN9USBDevice14setup_packet_tEEED2Ev
00000000 n _ZN4mbed8CallbackIFvPKN9USBDevice14setup_packet_tEEED5Ev
00000000 W _ZN4mbed8CallbackIFvvEE13function_callINS2_14method_contextI6USBMSDMS5_FvvEEEEEvPKv
00000000 W _ZN4mbed8CallbackIFvvEE13function_callINS2_14method_contextI9USBDeviceMS5_FvvEEEEEvPKv
00000000 W _ZN4mbed8CallbackIFvvEE13function_callIPS1_EEvPKv
00000000 W _ZN4mbed8CallbackIFvvEE13function_dtorINS2_14method_contextI6USBMSDMS5_FvvEEEEEvPv
00000000 W _ZN4mbed8CallbackIFvvEE13function_dtorINS2_14method_contextI9USBDeviceMS5_FvvEEEEEvPv
00000000 W _ZN4mbed8CallbackIFvvEE13function_dtorIPS1_EEvPv
00000000 W _ZN4mbed8CallbackIFvvEE13function_moveINS2_14method_contextI6USBMSDMS5_FvvEEEEEvPvPKv
00000000 W _ZN4mbed8CallbackIFvvEE13function_moveINS2_14method_contextI9USBDeviceMS5_FvvEEEEEvPvPKv
00000000 W _ZN4mbed8CallbackIFvvEE13function_moveIPS1_EEvPvPKv
00000000 W _ZN4mbed8CallbackIFvvEEaSERKS2_
00000000 W _ZN4mbed8CallbackIFvvEEC1ERKS2_
00000000 W _ZN4mbed8CallbackIFvvEEC1I6USBMSDS4_EEPT0_MT_FvvE
00000000 W _ZN4mbed8CallbackIFvvEEC2ERKS2_
00000000 W _ZN4mbed8CallbackIFvvEEC2I6USBMSDS4_EEPT0_MT_FvvE
00000000 n _ZN4mbed8CallbackIFvvEEC5ERKS2_
00000000 n _ZN4mbed8CallbackIFvvEEC5I6USBMSDS4_EEPT0_MT_FvvE
00000000 W _ZN4mbed8CallbackIFvvEED1Ev
00000000 W _ZN4mbed8CallbackIFvvEED2Ev
00000000 n _ZN4mbed8CallbackIFvvEED5Ev
         U _ZN4rtos5Mutex4lockEv
         U _ZN4rtos5Mutex6unlockEv
         U _ZN4rtos5MutexC1Ev
         U _ZN4rtos5MutexD1Ev
         U _ZN6events11PolledQueue6attachEN4mbed8CallbackIFvvEEE
         U _ZN6events11PolledQueue8dispatchEv
         U _ZN6events11PolledQueueC1EN4mbed8CallbackIFvvEEE
         U _ZN6events11PolledQueueD1Ev
00000000 W _ZN6events4TaskIFvPKN9USBDevice14setup_packet_tEEE4sizeEv
00000000 W _ZN6events4TaskIFvPKN9USBDevice14setup_packet_tEEE5startEPvm
00000000 W _ZN6events4TaskIFvPKN9USBDevice14setup_packet_tEEEC1EPNS_9TaskQueueEN4mbed8CallbackIS5_EE
00000000 W _ZN6events4TaskIFvPKN9USBDevice14setup_packet_tEEEC2EPNS_9TaskQueueEN4mbed8CallbackIS5_EE
00000000 n _ZN6events4TaskIFvPKN9USBDevice14setup_packet_tEEEC5EPNS_9TaskQueueEN4mbed8CallbackIS5_EE
00000000 W _ZN6events4TaskIFvPKN9USBDevice14setup_packet_tEEED0Ev
00000000 W _ZN6events4TaskIFvPKN9USBDevice14setup_packet_tEEED1Ev
00000000 W _ZN6events4TaskIFvPKN9USBDevice14setup_packet_tEEED2Ev
00000000 n _ZN6events4TaskIFvPKN9USBDevice14setup_packet_tEEED5Ev
00000000 W _ZN6events4TaskIFvvEE4sizeEv
00000000 W _ZN6events4TaskIFvvEE5startEPvm
00000000 W _ZN6events4TaskIFvvEEC1EPNS_9TaskQueueEN4mbed8CallbackIS1_EE
00000000 W _ZN6events4TaskIFvvEEC2EPNS_9TaskQueueEN4mbed8CallbackIS1_EE
00000000 n _ZN6events4TaskIFvvEEC5EPNS_9TaskQueueEN4mbed8CallbackIS1_EE
00000000 W _ZN6events4TaskIFvvEED0Ev
00000000 W _ZN6events4TaskIFvvEED1Ev
00000000 W _ZN6events4TaskIFvvEED2Ev
00000000 n _ZN6events4TaskIFvvEED5Ev
00000000 W _ZN6events7AllArgsIN4mbed8CallbackIFvPKN9USBDevice14setup_packet_tEEEES6_vvvvE10OperationsIS8_S6_E4callEPv
00000000 W _ZN6events7AllArgsIN4mbed8CallbackIFvvEEEvvvvvE10OperationsIS4_vE4callEPv
         U _ZN6events8TaskBase4postEv
         U _ZN6events8TaskBase4waitEv
         U _ZN6events8TaskBase6cancelEv
         U _ZN6events8TaskBase6finishEv
         U _ZN6events8TaskBaseC2EPNS_9TaskQueueE
         U _ZN6events8TaskBaseD2Ev
00000000 T _ZN6USBMSD10_configureEv
00000000 T _ZN6USBMSD10_read_nextEv
00000000 T _ZN6USBMSD10disconnectEv
00000000 T _ZN6USBMSD10disk_writeEPKhyh
00000000 T _ZN6USBMSD10memoryReadEv
00000000 T _ZN6USBMSD10modeSense6Ev
00000000 T _ZN6USBMSD11_write_nextEPhm
00000000 T _ZN6USBMSD11disk_statusEv
00000000 T _ZN6USBMSD11memoryWriteEPht
00000000 T _ZN6USBMSD11modeSense10Ev
00000000 T _ZN6USBMSD12disk_sectorsEv
00000000 T _ZN6USBMSD12infoTransferEv
00000000 T _ZN6USBMSD12memoryVerifyEPht
00000000 T _ZN6USBMSD12readCapacityEv
00000000 T _ZN6USBMSD12requestSenseEv
00000000 T _ZN6USBMSD13media_removedEv
00000000 T _ZN6USBMSD13testUnitReadyEv
00000000 T _ZN6USBMSD14inquiryRequestEv
00000000 T _ZN6USBMSD15disk_initializeEv
00000000 T _ZN6USBMSD16callback_requestEPKN9USBDevice14setup_packet_tE
00000000 T _ZN6USBMSD18configuration_descEh
00000000 T _ZN6USBMSD18readFormatCapacityEv
00000000 T _ZN6USBMSD20string_iproduct_descEv
00000000 T _ZN6USBMSD21callback_state_changeEN9USBDevice11DeviceStateE
00000000 T _ZN6USBMSD22callback_set_interfaceEth
00000000 T _ZN6USBMSD22string_iinterface_descEv
00000000 T _ZN6USBMSD26callback_request_xfer_doneEPKN9USBDevice14setup_packet_tEb
00000000 T _ZN6USBMSD26callback_set_configurationEh
00000000 T _ZN6USBMSD3_inEv
00000000 T _ZN6USBMSD4_outEv
00000000 T _ZN6USBMSD4failEv
00000000 T _ZN6USBMSD5_initEv
00000000 T _ZN6USBMSD5writeEPht
00000000 T _ZN6USBMSD6_resetEv
00000000 T _ZN6USBMSD6attachEN4mbed8CallbackIFvvEEE
00000000 T _ZN6USBMSD7_isr_inEv
00000000 T _ZN6USBMSD7connectEv
00000000 T _ZN6USBMSD7processEv
00000000 T _ZN6USBMSD7sendCSWEv
00000000 T _ZN6USBMSD8_controlEPKN9USBDevice14setup_packet_tE
00000000 T _ZN6USBMSD8_isr_outEv
00000000 T _ZN6USBMSD8_processEv
00000000 T _ZN6USBMSD9CBWDecodeEPht
00000000 T _ZN6USBMSD9disk_readEPhyh
00000000 T _ZN6USBMSD9disk_sizeEv
00000000 T _ZN6USBMSD9msd_resetEv
00000000 T _ZN6USBMSDC1EP6USBPhyPN4mbed11BlockDeviceEttt
00000000 T _ZN6USBMSDC1EPN4mbed11BlockDeviceEbttt
00000000 T _ZN6USBMSDC2EP6USBPhyPN4mbed11BlockDeviceEttt
00000000 T _ZN6USBMSDC2EPN4mbed11BlockDeviceEbttt
00000000 T _ZN6USBMSDD0Ev
00000000 T _ZN6USBMSDD1Ev
00000000 T _ZN6USBMSDD2Ev
         U _ZN9USBDevice10disconnectEv
         U _ZN9USBDevice10read_startEhPhm
         U _ZN9USBDevice11device_descEv
         U _ZN9USBDevice11read_finishEh
         U _ZN9USBDevice11write_startEhPhm
00000000 W _ZN9USBDevice12callback_sofEi
         U _ZN9USBDevice12endpoint_addEhm13usb_ep_type_tN4mbed8CallbackIFvvEEE
00000000 W _ZN9USBDevice12endpoint_addI6USBMSDEEbhm13usb_ep_type_tMT_FvvE
         U _ZN9USBDevice12write_finishEh
         U _ZN9USBDevice13assert_lockedEv
         U _ZN9USBDevice13start_processEv
00000000 W _ZN9USBDevice14callback_powerEb
00000000 W _ZN9USBDevice14callback_resetEv
         U _ZN9USBDevice14endpoint_stallEh
         U _ZN9USBDevice14endpoint_tableEv
         U _ZN9USBDevice16complete_requestENS_13RequestResultEPhm
00000000 W _ZN9USBDevice18report_desc_dengthEv
         U _ZN9USBDevice18string_langid_descEv
         U _ZN9USBDevice19string_iserial_descEv
         U _ZN9USBDevice22complete_set_interfaceEb
         U _ZN9USBDevice25string_imanufacturer_descEv
         U _ZN9USBDevice26complete_request_xfer_doneEb
         U _ZN9USBDevice26complete_set_configurationEb
         U _ZN9USBDevice26string_iconfiguration_descEv
         U _ZN9USBDevice2inEh
         U _ZN9USBDevice3outEh
         U _ZN9USBDevice3sofEi
         U _ZN9USBDevice4initEv
         U _ZN9USBDevice4lockEv
         U _ZN9USBDevice5powerEb
         U _ZN9USBDevice5resetEv
         U _ZN9USBDevice6deinitEv
         U _ZN9USBDevice6ep0_inEv
         U _ZN9USBDevice6unlockEv
         U _ZN9USBDevice7connectEv
         U _ZN9USBDevice7ep0_outEv
         U _ZN9USBDevice7suspendEb
         U _ZN9USBDevice9ep0_setupEv
         U _ZN9USBDeviceC2EP6USBPhyttt
         U _ZN9USBDeviceD2Ev
00000000 R _ZTV6USBMSD
00000000 V _ZTVN6events4TaskIFvPKN9USBDevice14setup_packet_tEEEE
00000000 V _ZTVN6events4TaskIFvvEEE
00000000 V _ZZN4mbed8CallbackIFvPKN9USBDevice14setup_packet_tEEE8generateINS6_14method_contextI6USBMSDMS9_FvS4_EEEEEvRKT_E3ops
00000000 V _ZZN4mbed8CallbackIFvvEE8generateINS2_14method_contextI6USBMSDMS5_FvvEEEEEvRKT_E3ops
00000000 V _ZZN4mbed8CallbackIFvvEE8generateINS2_14method_contextI9USBDeviceMS5_FvvEEEEEvRKT_E3ops
00000000 r _ZZN6USBMSD20string_iproduct_descEvE26string_iproduct_descriptor
00000000 r _ZZN6USBMSD22string_iinterface_descEvE28string_iinterface_descriptor
00000000 r _ZZN6USBMSD8_controlEPKN9USBDevice14setup_packet_tEE6maxLUN
         U free
         U malloc
         U mbed_assert_internal
         U memcpy
         U memset

equeue_posix.o:

USBKeyboard.o:
00000000 t .LTHUNK2
00000000 t .LTHUNK3
00000000 t .LTHUNK4
00000000 t .LTHUNK5
00000000 t .LTHUNK6
         U _Z11get_usb_phyv
         U _ZdlPvj
00000000 r _ZL6keymap
00000000 T _ZN11USBKeyboard11lock_statusEv
00000000 T _ZN11USBKeyboard11report_descEv
00000000 T _ZN11USBKeyboard13media_controlE9MEDIA_KEY
00000000 T _ZN11USBKeyboard18configuration_descEh
00000000 T _ZN11USBKeyboard5_getcEv
00000000 T _ZN11USBKeyboard5_putcEi
00000000 T _ZN11USBKeyboard8key_codeEhh
00000000 T _ZN11USBKeyboard9report_rxEv
00000000 T _ZN11USBKeyboardC1Ebttt
00000000 T _ZN11USBKeyboardC1EP6USBPhyttt
00000000 T _ZN11USBKeyboardC2Ebttt
00000000 T _ZN11USBKeyboardC2EP6USBPhyttt
00000000 T _ZN11USBKeyboardD0Ev
00000000 T _ZN11USBKeyboardD1Ev
00000000 T _ZN11USBKeyboardD2Ev
00000000 W _ZN4mbed10FileHandle12enable_inputEb
00000000 W _ZN4mbed10FileHandle12set_blockingEb
00000000 W _ZN4mbed10FileHandle13enable_outputEb
00000000 W _ZN4mbed10FileHandle4flenEv
00000000 W _ZN4mbed10FileHandle5fsyncEv
00000000 W _ZN4mbed10FileHandle5lseekEli
00000000 W _ZN4mbed10FileHandle5sigioENS_8CallbackIFvvEEE
00000000 W _ZN4mbed10FileHandle8truncateEl
00000000 W _ZN4mbed6Stream4lockEv
         U _ZN4mbed6Stream4readEPvj
         U _ZN4mbed6Stream4seekEli
         U _ZN4mbed6Stream4sizeEv
         U _ZN4mbed6Stream4syncEv
         U _ZN4mbed6Stream4tellEv
         U _ZN4mbed6Stream5closeEv
         U _ZN4mbed6Stream5writeEPKvj
         U _ZN4mbed6Stream6isattyEv
         U _ZN4mbed6Stream6rewindEv
00000000 W _ZN4mbed6Stream6unlockEv
         U _ZN4mbed6StreamC2EPKc
         U _ZN4mbed6StreamD2Ev
         U _ZN4rtos5Mutex4lockEv
         U _ZN4rtos5Mutex6unlockEv
         U _ZN4rtos5MutexC1Ev
         U _ZN4rtos5MutexD1Ev
         U _ZN6USBHID10wait_readyEv
         U _ZN6USBHID16callback_requestEPKN9USBDevice14setup_packet_tE
         U _ZN6USBHID18report_desc_lengthEv
         U _ZN6USBHID20string_iproduct_descEv
         U _ZN6USBHID21callback_state_changeEN9USBDevice11DeviceStateE
00000000 W _ZN6USBHID21HID_callbackSetReportEP10HID_REPORT
         U _ZN6USBHID22callback_set_interfaceEth
         U _ZN6USBHID22string_iinterface_descEv
         U _ZN6USBHID26callback_request_xfer_doneEPKN9USBDevice14setup_packet_tEb
         U _ZN6USBHID26callback_set_configurationEh
         U _ZN6USBHID4sendEPK10HID_REPORT
         U _ZN6USBHID7read_nbEP10HID_REPORT
00000000 W _ZN6USBHID9report_txEv
         U _ZN6USBHIDC2EP6USBPhyhhttt
         U _ZN6USBHIDD2Ev
         U _ZN9USBDevice11device_descEv
00000000 W _ZN9USBDevice12callback_sofEi
         U _ZN9USBDevice13assert_lockedEv
         U _ZN9USBDevice13start_processEv
00000000 W _ZN9USBDevice14callback_powerEb
00000000 W _ZN9USBDevice14callback_resetEv
00000000 W _ZN9USBDevice18report_desc_dengthEv
         U _ZN9USBDevice18string_langid_descEv
         U _ZN9USBDevice19string_iserial_descEv
         U _ZN9USBDevice25string_imanufacturer_descEv
         U _ZN9USBDevice26string_iconfiguration_descEv
         U _ZN9USBDevice2inEh
         U _ZN9USBDevice3outEh
         U _ZN9USBDevice3sofEi
         U _ZN9USBDevice4initEv
         U _ZN9USBDevice4lockEv
         U _ZN9USBDevice5powerEb
         U _ZN9USBDevice5resetEv
         U _ZN9USBDevice6deinitEv
         U _ZN9USBDevice6ep0_inEv
         U _ZN9USBDevice6unlockEv
         U _ZN9USBDevice7connectEv
         U _ZN9USBDevice7ep0_outEv
         U _ZN9USBDevice7suspendEb
         U _ZN9USBDevice9ep0_setupEv
00000000 W _ZNK4mbed10FileHandle11is_blockingEv
00000000 W _ZNK4mbed10FileHandle4pollEs
00000000 T _ZThn1068_N11USBKeyboard5_getcEv
00000000 T _ZThn1068_N11USBKeyboard5_putcEi
00000000 T _ZThn1068_N11USBKeyboardD0Ev
00000000 T _ZThn1068_N11USBKeyboardD1Ev
00000000 T _ZThn1072_N11USBKeyboardD0Ev
00000000 T _ZThn1072_N11USBKeyboardD1Ev
00000000 R _ZTV11USBKeyboard
00000000 r _ZZN11USBKeyboard11report_descEvE16reportDescriptor
         U memset

mbed_shared_queues.o:
         U __aeabi_atexit
         U __cxa_guard_acquire
         U __cxa_guard_release
         U __dso_handle
00000000 V _ZGVZN4mbed33do_shared_event_queue_with_threadIL12osPriority_t24ELj768ELj2048EEEPN6events10EventQueueEPKcE5queue
00000000 V _ZGVZN4mbed33do_shared_event_queue_with_threadIL12osPriority_t24ELj768ELj2048EEEPN6events10EventQueueEPKcE6thread
00000000 V _ZGVZN4mbed33do_shared_event_queue_with_threadIL12osPriority_t40ELj256ELj1024EEEPN6events10EventQueueEPKcE5queue
00000000 V _ZGVZN4mbed33do_shared_event_queue_with_threadIL12osPriority_t40ELj256ELj1024EEEPN6events10EventQueueEPKcE6thread
00000000 T _ZN4mbed16mbed_event_queueEv
00000000 T _ZN4mbed25mbed_highprio_event_queueEv
00000000 W _ZN4mbed33do_shared_event_queue_with_threadIL12osPriority_t24ELj768ELj2048EEEPN6events10EventQueueEPKc
00000000 W _ZN4mbed33do_shared_event_queue_with_threadIL12osPriority_t40ELj256ELj1024EEEPN6events10EventQueueEPKc
00000000 W _ZN4mbed8CallbackIFvvEE13function_callINS2_14method_contextIN6events10EventQueueEMS6_FvvEEEEEvPKv
00000000 W _ZN4mbed8CallbackIFvvEE13function_dtorINS2_14method_contextIN6events10EventQueueEMS6_FvvEEEEEvPv
00000000 W _ZN4mbed8CallbackIFvvEE13function_moveINS2_14method_contextIN6events10EventQueueEMS6_FvvEEEEEvPvPKv
00000000 W _ZN4mbed8CallbackIFvvEED1Ev
00000000 W _ZN4mbed8CallbackIFvvEED2Ev
00000000 n _ZN4mbed8CallbackIFvvEED5Ev
         U _ZN4rtos5MutexC1Ev
         U _ZN4rtos6Thread11constructorE12osPriority_tmPhPKc
         U _ZN4rtos6Thread5startEN4mbed8CallbackIFvvEEE
00000000 W _ZN4rtos6ThreadC1E12osPriority_tmPhPKc
00000000 W _ZN4rtos6ThreadC2E12osPriority_tmPhPKc
00000000 n _ZN4rtos6ThreadC5E12osPriority_tmPhPKc
         U _ZN4rtos6ThreadD1Ev
         U _ZN4rtos9SemaphoreC1El
00000000 W _ZN6events10EventQueue16dispatch_foreverEv
         U _ZN6events10EventQueue8dispatchEi
         U _ZN6events10EventQueueC1EjPh
         U _ZN6events10EventQueueD1Ev
         U _ZNK4rtos6Thread9get_stateEv
         U _ZTVN4rtos6ThreadE
00000000 V _ZZN4mbed33do_shared_event_queue_with_threadIL12osPriority_t24ELj768ELj2048EEEPN6events10EventQueueEPKcE12queue_buffer
00000000 V _ZZN4mbed33do_shared_event_queue_with_threadIL12osPriority_t24ELj768ELj2048EEEPN6events10EventQueueEPKcE5queue
00000000 V _ZZN4mbed33do_shared_event_queue_with_threadIL12osPriority_t24ELj768ELj2048EEEPN6events10EventQueueEPKcE5stack
00000000 V _ZZN4mbed33do_shared_event_queue_with_threadIL12osPriority_t24ELj768ELj2048EEEPN6events10EventQueueEPKcE6thread
00000000 V _ZZN4mbed33do_shared_event_queue_with_threadIL12osPriority_t40ELj256ELj1024EEEPN6events10EventQueueEPKcE12queue_buffer
00000000 V _ZZN4mbed33do_shared_event_queue_with_threadIL12osPriority_t40ELj256ELj1024EEEPN6events10EventQueueEPKcE5queue
00000000 V _ZZN4mbed33do_shared_event_queue_with_threadIL12osPriority_t40ELj256ELj1024EEEPN6events10EventQueueEPKcE5stack
00000000 V _ZZN4mbed33do_shared_event_queue_with_threadIL12osPriority_t40ELj256ELj1024EEEPN6events10EventQueueEPKcE6thread
00000000 V _ZZN4mbed8CallbackIFvvEE8generateINS2_14method_contextIN6events10EventQueueEMS6_FvvEEEEEvRKT_E3ops
         U mbed_assert_internal
         U memset

EventQueue.o:
00000000 W _ZN4mbed8CallbackIFviEE5thunkEPvi
00000000 W _ZN4mbed8CallbackIFviEED1Ev
00000000 W _ZN4mbed8CallbackIFviEED2Ev
00000000 n _ZN4mbed8CallbackIFviEED5Ev
00000000 T _ZN6events10EventQueue10backgroundEN4mbed8CallbackIFviEEE
00000000 T _ZN6events10EventQueue14break_dispatchEv
00000000 T _ZN6events10EventQueue4tickEv
00000000 T _ZN6events10EventQueue5chainEPS0_
00000000 T _ZN6events10EventQueue6cancelEi
00000000 T _ZN6events10EventQueue8dispatchEi
00000000 T _ZN6events10EventQueue9time_leftEi
00000000 T _ZN6events10EventQueueC1EjPh
00000000 T _ZN6events10EventQueueC2EjPh
00000000 T _ZN6events10EventQueueD1Ev
00000000 T _ZN6events10EventQueueD2Ev
         U equeue_background
         U equeue_break
         U equeue_cancel
         U equeue_chain
         U equeue_create
         U equeue_create_inplace
         U equeue_destroy
         U equeue_dispatch
         U equeue_tick
         U equeue_timeleft
         U mbed_assert_internal
         U memset

USBMouseKeyboard.o:
00000000 t .LTHUNK2
00000000 t .LTHUNK3
00000000 t .LTHUNK4
00000000 t .LTHUNK5
00000000 t .LTHUNK6
         U _Z11get_usb_phyv
         U _ZdlPvj
00000000 r _ZL6keymap
00000000 T _ZN16USBMouseKeyboard11_mouse_sendEaaha
00000000 T _ZN16USBMouseKeyboard11doubleClickEv
00000000 T _ZN16USBMouseKeyboard11lock_statusEv
00000000 T _ZN16USBMouseKeyboard11report_descEv
00000000 T _ZN16USBMouseKeyboard13media_controlE9MEDIA_KEY
00000000 T _ZN16USBMouseKeyboard4moveEss
00000000 T _ZN16USBMouseKeyboard5_getcEv
00000000 T _ZN16USBMouseKeyboard5_putcEi
00000000 T _ZN16USBMouseKeyboard5clickEh
00000000 T _ZN16USBMouseKeyboard5pressEh
00000000 T _ZN16USBMouseKeyboard6scrollEa
00000000 T _ZN16USBMouseKeyboard6updateEssha
00000000 T _ZN16USBMouseKeyboard7releaseEh
00000000 T _ZN16USBMouseKeyboard8key_codeEhh
00000000 T _ZN16USBMouseKeyboard9report_rxEv
00000000 T _ZN16USBMouseKeyboardC1Eb10MOUSE_TYPEttt
00000000 T _ZN16USBMouseKeyboardC1EP6USBPhy10MOUSE_TYPEttt
00000000 T _ZN16USBMouseKeyboardC2Eb10MOUSE_TYPEttt
00000000 T _ZN16USBMouseKeyboardC2EP6USBPhy10MOUSE_TYPEttt
00000000 T _ZN16USBMouseKeyboardD0Ev
00000000 T _ZN16USBMouseKeyboardD1Ev
00000000 T _ZN16USBMouseKeyboardD2Ev
00000000 W _ZN4mbed10FileHandle12enable_inputEb
00000000 W _ZN4mbed10FileHandle12set_blockingEb
00000000 W _ZN4mbed10FileHandle13enable_outputEb
00000000 W _ZN4mbed10FileHandle4flenEv
00000000 W _ZN4mbed10FileHandle5fsyncEv
00000000 W _ZN4mbed10FileHandle5lseekEli
00000000 W _ZN4mbed10FileHandle5sigioENS_8CallbackIFvvEEE
00000000 W _ZN4mbed10FileHandle8truncateEl
00000000 W _ZN4mbed6Stream4lockEv
         U _ZN4mbed6Stream4readEPvj
         U _ZN4mbed6Stream4seekEli
         U _ZN4mbed6Stream4sizeEv
         U _ZN4mbed6Stream4syncEv
         U _ZN4mbed6Stream4tellEv
         U _ZN4mbed6Stream5closeEv
         U _ZN4mbed6Stream5writeEPKvj
         U _ZN4mbed6Stream6isattyEv
         U _ZN4mbed6Stream6rewindEv
00000000 W _ZN4mbed6Stream6unlockEv
         U _ZN4mbed6StreamC2EPKc
         U _ZN4mbed6StreamD2Ev
         U _ZN4rtos10ThisThread9sleep_forEm
         U _ZN4rtos5Mutex4lockEv
         U _ZN4rtos5Mutex6unlockEv
         U _ZN4rtos5MutexC1Ev
         U _ZN4rtos5MutexD1Ev
         U _ZN6USBHID10wait_readyEv
         U _ZN6USBHID16callback_requestEPKN9USBDevice14setup_packet_tE
         U _ZN6USBHID18configuration_descEh
         U _ZN6USBHID18report_desc_lengthEv
         U _ZN6USBHID20string_iproduct_descEv
         U _ZN6USBHID21callback_state_changeEN9USBDevice11DeviceStateE
00000000 W _ZN6USBHID21HID_callbackSetReportEP10HID_REPORT
         U _ZN6USBHID22callback_set_interfaceEth
         U _ZN6USBHID22string_iinterface_descEv
         U _ZN6USBHID26callback_request_xfer_doneEPKN9USBDevice14setup_packet_tEb
         U _ZN6USBHID26callback_set_configurationEh
         U _ZN6USBHID4sendEPK10HID_REPORT
         U _ZN6USBHID7read_nbEP10HID_REPORT
00000000 W _ZN6USBHID9report_txEv
         U _ZN6USBHIDC2EP6USBPhyhhttt
         U _ZN6USBHIDD2Ev
         U _ZN9USBDevice11device_descEv
00000000 W _ZN9USBDevice12callback_sofEi
         U _ZN9USBDevice13assert_lockedEv
         U _ZN9USBDevice13start_processEv
00000000 W _ZN9USBDevice14callback_powerEb
00000000 W _ZN9USBDevice14callback_resetEv
00000000 W _ZN9USBDevice18report_desc_dengthEv
         U _ZN9USBDevice18string_langid_descEv
         U _ZN9USBDevice19string_iserial_descEv
         U _ZN9USBDevice25string_imanufacturer_descEv
         U _ZN9USBDevice26string_iconfiguration_descEv
         U _ZN9USBDevice2inEh
         U _ZN9USBDevice3outEh
         U _ZN9USBDevice3sofEi
         U _ZN9USBDevice4initEv
         U _ZN9USBDevice4lockEv
         U _ZN9USBDevice5powerEb
         U _ZN9USBDevice5resetEv
         U _ZN9USBDevice6deinitEv
         U _ZN9USBDevice6ep0_inEv
         U _ZN9USBDevice6unlockEv
         U _ZN9USBDevice7connectEv
         U _ZN9USBDevice7ep0_outEv
         U _ZN9USBDevice7suspendEb
         U _ZN9USBDevice9ep0_setupEv
00000000 W _ZNK4mbed10FileHandle11is_blockingEv
00000000 W _ZNK4mbed10FileHandle4pollEs
00000000 T _ZThn1068_N16USBMouseKeyboard5_getcEv
00000000 T _ZThn1068_N16USBMouseKeyboard5_putcEi
00000000 T _ZThn1068_N16USBMouseKeyboardD0Ev
00000000 T _ZThn1068_N16USBMouseKeyboardD1Ev
00000000 T _ZThn1072_N16USBMouseKeyboardD0Ev
00000000 T _ZThn1072_N16USBMouseKeyboardD1Ev
00000000 R _ZTV16USBMouseKeyboard
00000000 r _ZZN16USBMouseKeyboard11report_descEvE16reportDescriptor
00000000 r _ZZN16USBMouseKeyboard11report_descEvE16reportDescriptor_0

USBSerial.o:
00000000 t .LTHUNK2
00000000 t .LTHUNK3
00000000 t .LTHUNK4
00000000 t .LTHUNK5
00000000 t .LTHUNK6
00000000 t .LTHUNK7
         U _Z11get_usb_phyv
         U _ZdlPvj
00000000 W _ZN4mbed10FileHandle12enable_inputEb
00000000 W _ZN4mbed10FileHandle12set_blockingEb
00000000 W _ZN4mbed10FileHandle13enable_outputEb
00000000 W _ZN4mbed10FileHandle4flenEv
00000000 W _ZN4mbed10FileHandle5fsyncEv
00000000 W _ZN4mbed10FileHandle5lseekEli
00000000 W _ZN4mbed10FileHandle5sigioENS_8CallbackIFvvEEE
00000000 W _ZN4mbed10FileHandle8truncateEl
00000000 W _ZN4mbed6Stream4lockEv
         U _ZN4mbed6Stream4readEPvj
         U _ZN4mbed6Stream4seekEli
         U _ZN4mbed6Stream4sizeEv
         U _ZN4mbed6Stream4syncEv
         U _ZN4mbed6Stream4tellEv
         U _ZN4mbed6Stream5closeEv
         U _ZN4mbed6Stream5writeEPKvj
         U _ZN4mbed6Stream6isattyEv
         U _ZN4mbed6Stream6rewindEv
00000000 W _ZN4mbed6Stream6unlockEv
         U _ZN4mbed6StreamC2EPKc
         U _ZN4mbed6StreamD2Ev
         U _ZN6USBCDC10wait_readyEv
         U _ZN6USBCDC11device_descEv
         U _ZN6USBCDC14callback_resetEv
         U _ZN6USBCDC16callback_requestEPKN9USBDevice14setup_packet_tE
         U _ZN6USBCDC18configuration_descEh
         U _ZN6USBCDC20string_iproduct_descEv
         U _ZN6USBCDC21callback_state_changeEN9USBDevice11DeviceStateE
         U _ZN6USBCDC22callback_set_interfaceEth
         U _ZN6USBCDC22string_iinterface_descEv
         U _ZN6USBCDC26callback_request_xfer_doneEPKN9USBDevice14setup_packet_tEb
         U _ZN6USBCDC26callback_set_configurationEh
         U _ZN6USBCDC4sendEPhm
00000000 W _ZN6USBCDC7data_txEv
         U _ZN6USBCDC7receiveEPhmPm
         U _ZN6USBCDCC2EP6USBPhyttt
         U _ZN6USBCDCD2Ev
00000000 W _ZN9USBDevice12callback_sofEi
         U _ZN9USBDevice13assert_lockedEv
         U _ZN9USBDevice13start_processEv
00000000 W _ZN9USBDevice14callback_powerEb
00000000 W _ZN9USBDevice18report_desc_dengthEv
         U _ZN9USBDevice18string_langid_descEv
         U _ZN9USBDevice19string_iserial_descEv
         U _ZN9USBDevice25string_imanufacturer_descEv
         U _ZN9USBDevice26string_iconfiguration_descEv
         U _ZN9USBDevice2inEh
         U _ZN9USBDevice3outEh
         U _ZN9USBDevice3sofEi
         U _ZN9USBDevice4initEv
         U _ZN9USBDevice4lockEv
         U _ZN9USBDevice5powerEb
         U _ZN9USBDevice5resetEv
         U _ZN9USBDevice6deinitEv
         U _ZN9USBDevice6ep0_inEv
         U _ZN9USBDevice6unlockEv
         U _ZN9USBDevice7connectEv
         U _ZN9USBDevice7ep0_outEv
         U _ZN9USBDevice7suspendEb
         U _ZN9USBDevice9ep0_setupEv
00000000 W _ZN9USBSerial19line_coding_changedEiiii
00000000 T _ZN9USBSerial5_getcEv
00000000 T _ZN9USBSerial5_putcEi
00000000 T _ZN9USBSerial7data_rxEv
00000000 T _ZN9USBSerial9availableEv
00000000 T _ZN9USBSerial9connectedEv
00000000 T _ZN9USBSerialC1Ebttt
00000000 T _ZN9USBSerialC1EP6USBPhyttt
00000000 T _ZN9USBSerialC2Ebttt
00000000 T _ZN9USBSerialC2EP6USBPhyttt
00000000 T _ZN9USBSerialD0Ev
00000000 T _ZN9USBSerialD1Ev
00000000 T _ZN9USBSerialD2Ev
00000000 W _ZNK4mbed10FileHandle11is_blockingEv
00000000 W _ZNK4mbed10FileHandle4pollEs
00000000 T _ZThn1096_N9USBSerial5_getcEv
00000000 T _ZThn1096_N9USBSerial5_putcEi
00000000 T _ZThn1096_N9USBSerialD0Ev
00000000 T _ZThn1096_N9USBSerialD1Ev
00000000 T _ZThn1100_N9USBSerialD0Ev
00000000 T _ZThn1100_N9USBSerialD1Ev
00000000 R _ZTV9USBSerial
         U memset

DiscoveredCharacteristic.o:
         U _ZdlPvj
00000000 W _ZN19OneShotReadCallback4callEPK22GattReadCallbackParams
00000000 W _ZN20OneShotWriteCallback4callEPK23GattWriteCallbackParams
00000000 W _ZN26FunctionPointerWithContextIPK22GattReadCallbackParamsE12membercallerI19OneShotReadCallbackEEvPKS3_S2_
00000000 W _ZN26FunctionPointerWithContextIPK23GattWriteCallbackParamsE12membercallerI20OneShotWriteCallbackEEvPKS3_S2_
         U _ZN3ble9interface10GattClientINS_7generic17GenericGattClientINS_3pal6vendor6cordio16CordioGattClientENS2_22GenericSecurityManagerINS6_21CordioSecurityManagerENS_6vendor6cordio19SigningEventMonitorEEEEEE33discoverCharacteristicDescriptorsERK24DiscoveredCharacteristicRK26FunctionPointerWithContextIPKN33CharacteristicDescriptorDiscovery25DiscoveryCallbackParams_tEERKSJ_IPKNSK_27TerminationCallbackParams_tEE
00000000 T _ZNK24DiscoveredCharacteristic15writeWoResponseEtPKh
00000000 T _ZNK24DiscoveredCharacteristic19discoverDescriptorsERK26FunctionPointerWithContextIPKN33CharacteristicDescriptorDiscovery25DiscoveryCallbackParams_tEERKS0_IPKNS1_27TerminationCallbackParams_tEE
00000000 T _ZNK24DiscoveredCharacteristic4readEt
00000000 T _ZNK24DiscoveredCharacteristic4readEtRK26FunctionPointerWithContextIPK22GattReadCallbackParamsE
00000000 T _ZNK24DiscoveredCharacteristic5writeEtPKh
00000000 T _ZNK24DiscoveredCharacteristic5writeEtPKhRK26FunctionPointerWithContextIPK23GattWriteCallbackParamsE
         U _ZNK3ble9interface10GattClientINS_7generic17GenericGattClientINS_3pal6vendor6cordio16CordioGattClientENS2_22GenericSecurityManagerINS6_21CordioSecurityManagerENS_6vendor6cordio19SigningEventMonitorEEEEEE4readEjtt
         U _ZNK3ble9interface10GattClientINS_7generic17GenericGattClientINS_3pal6vendor6cordio16CordioGattClientENS2_22GenericSecurityManagerINS6_21CordioSecurityManagerENS_6vendor6cordio19SigningEventMonitorEEEEEE5writeENSF_9WriteOp_tEjtjPKh
         U _Znwj
         U memcmp

BLEInstanceBase.o:
         U __cxa_pure_virtual
         U _ZdlPvj
00000000 T _ZN15BLEInstanceBase21signalEventsToProcessEj
00000000 T _ZN15BLEInstanceBaseD0Ev
00000000 T _ZN15BLEInstanceBaseD1Ev
00000000 T _ZN15BLEInstanceBaseD2Ev
         U _ZN3BLE21signalEventsToProcessEv
         U _ZN3BLE8InstanceEj
00000000 R _ZTV15BLEInstanceBase

BLE.o:
         U __cxa_guard_acquire
         U __cxa_guard_release
00000000 W _Z17createBLEInstancev
00000000 b _ZGVZN3BLE8InstanceEjE12badSingleton
00000000 r _ZL13error_strings
00000000 W _ZN26FunctionPointerWithContextIPN3BLE32OnEventsToProcessCallbackContextEE14functioncallerEPKS3_S2_
00000000 T _ZN3BLE10disconnectEjN3ble9interface9LegacyGapINS0_7generic10GenericGapINS0_3pal6vendor6cordio3GapENS5_15SecurityManagerINS7_21CordioSecurityManagerINS3_22GenericSecurityManagerISA_NS0_6vendor6cordio19SigningEventMonitorEEEEESF_EESF_EEE21DisconnectionReason_tE
00000000 T _ZN3BLE10disconnectEN3ble9interface9LegacyGapINS0_7generic10GenericGapINS0_3pal6vendor6cordio3GapENS5_15SecurityManagerINS7_21CordioSecurityManagerINS3_22GenericSecurityManagerISA_NS0_6vendor6cordio19SigningEventMonitorEEEEESF_EESF_EEE21DisconnectionReason_tE
00000000 T _ZN3BLE10gattClientEv
00000000 T _ZN3BLE10gattServerEv
00000000 T _ZN3BLE10getVersionEv
00000000 T _ZN3BLE10setAddressEN11BLEProtocol11AddressType4TypeEPKh
00000000 T _ZN3BLE10setTxPowerEa
00000000 T _ZN3BLE12waitForEventEv
00000000 T _ZN3BLE13errorToStringE11ble_error_t
00000000 T _ZN3BLE13processEventsEv
00000000 T _ZN3BLE13setActiveScanEb
00000000 T _ZN3BLE13setScanParamsEtttb
00000000 T _ZN3BLE13setScanWindowEt
00000000 T _ZN3BLE14setScanTimeoutEt
00000000 T _ZN3BLE15onDisconnectionE26FunctionPointerWithContextIPKN3ble9interface9LegacyGapINS1_7generic10GenericGapINS1_3pal6vendor6cordio3GapENS6_15SecurityManagerINS8_21CordioSecurityManagerINS4_22GenericSecurityManagerISB_NS1_6vendor6cordio19SigningEventMonitorEEEEESG_EESG_EEE29DisconnectionCallbackParams_tEE
00000000 T _ZN3BLE15securityManagerEv
00000000 T _ZN3BLE15setScanIntervalEt
00000000 T _ZN3BLE15stopAdvertisingEv
00000000 T _ZN3BLE16startAdvertisingEv
00000000 T _ZN3BLE17clearScanResponseEv
00000000 T _ZN3BLE17onEventsToProcessERK26FunctionPointerWithContextIPNS_32OnEventsToProcessCallbackContextEE
00000000 T _ZN3BLE18initImplementationE26FunctionPointerWithContextIPNS_37InitializationCompleteCallbackContextEE
00000000 T _ZN3BLE18setAdvertisingDataERK18GapAdvertisingData
00000000 T _ZN3BLE18setAdvertisingTypeEN20GapAdvertisingParams17AdvertisingType_tE
00000000 T _ZN3BLE19onRadioNotificationEPFvbE
00000000 T _ZN3BLE20setAdvertisingParamsERK20GapAdvertisingParams
00000000 T _ZN3BLE21setAdvertisingPayloadEv
00000000 T _ZN3BLE21setAdvertisingTimeoutEt
00000000 T _ZN3BLE21signalEventsToProcessEv
00000000 T _ZN3BLE22accumulateScanResponseEN18GapAdvertisingData10DataType_tEPKhh
00000000 T _ZN3BLE22setAdvertisingIntervalEt
00000000 T _ZN3BLE22updateConnectionParamsEjPKN3ble9interface9LegacyGapINS0_7generic10GenericGapINS0_3pal6vendor6cordio3GapENS5_15SecurityManagerINS7_21CordioSecurityManagerINS3_22GenericSecurityManagerISA_NS0_6vendor6cordio19SigningEventMonitorEEEEESF_EESF_EEE18ConnectionParams_tE
00000000 T _ZN3BLE23clearAdvertisingPayloadEv
00000000 T _ZN3BLE25getPermittedTxPowerValuesEPPKaPj
00000000 T _ZN3BLE28accumulateAdvertisingPayloadEh
00000000 T _ZN3BLE28accumulateAdvertisingPayloadEN18GapAdvertisingData10DataType_tEPKhh
00000000 T _ZN3BLE28accumulateAdvertisingPayloadEN18GapAdvertisingData12Appearance_tE
00000000 T _ZN3BLE35accumulateAdvertisingPayloadTxPowerEa
00000000 T _ZN3BLE3gapEv
00000000 t _ZN3BLE3gapEv.part.1
00000000 T _ZN3BLE7connectEPKhN11BLEProtocol11AddressType4TypeEPKN3ble9interface9LegacyGapINS5_7generic10GenericGapINS5_3pal6vendor6cordio3GapENSA_15SecurityManagerINSC_21CordioSecurityManagerINS8_22GenericSecurityManagerISF_NS5_6vendor6cordio19SigningEventMonitorEEEEESK_EESK_EEE18ConnectionParams_tEPK17GapScanningParams
00000000 T _ZN3BLE8InstanceEj
00000000 T _ZN3BLE8shutdownEv
         U _ZN3ble9interface9LegacyGapINS_7generic10GenericGapINS_3pal6vendor6cordio3GapENS4_15SecurityManagerINS6_21CordioSecurityManagerINS2_22GenericSecurityManagerIS9_NS_6vendor6cordio19SigningEventMonitorEEEEESE_EESE_EEE10disconnectEjNSI_21DisconnectionReason_tE
         U _ZN3ble9interface9LegacyGapINS_7generic10GenericGapINS_3pal6vendor6cordio3GapENS4_15SecurityManagerINS6_21CordioSecurityManagerINS2_22GenericSecurityManagerIS9_NS_6vendor6cordio19SigningEventMonitorEEEEESE_EESE_EEE10disconnectENSI_21DisconnectionReason_tE
         U _ZN3ble9interface9LegacyGapINS_7generic10GenericGapINS_3pal6vendor6cordio3GapENS4_15SecurityManagerINS6_21CordioSecurityManagerINS2_22GenericSecurityManagerIS9_NS_6vendor6cordio19SigningEventMonitorEEEEESE_EESE_EEE10setAddressEN11BLEProtocol11AddressType4TypeEPKh
         U _ZN3ble9interface9LegacyGapINS_7generic10GenericGapINS_3pal6vendor6cordio3GapENS4_15SecurityManagerINS6_21CordioSecurityManagerINS2_22GenericSecurityManagerIS9_NS_6vendor6cordio19SigningEventMonitorEEEEESE_EESE_EEE10setTxPowerEa
         U _ZN3ble9interface9LegacyGapINS_7generic10GenericGapINS_3pal6vendor6cordio3GapENS4_15SecurityManagerINS6_21CordioSecurityManagerINS2_22GenericSecurityManagerIS9_NS_6vendor6cordio19SigningEventMonitorEEEEESE_EESE_EEE13setScanParamsEtttb
         U _ZN3ble9interface9LegacyGapINS_7generic10GenericGapINS_3pal6vendor6cordio3GapENS4_15SecurityManagerINS6_21CordioSecurityManagerINS2_22GenericSecurityManagerIS9_NS_6vendor6cordio19SigningEventMonitorEEEEESE_EESE_EEE13setScanWindowEt
         U _ZN3ble9interface9LegacyGapINS_7generic10GenericGapINS_3pal6vendor6cordio3GapENS4_15SecurityManagerINS6_21CordioSecurityManagerINS2_22GenericSecurityManagerIS9_NS_6vendor6cordio19SigningEventMonitorEEEEESE_EESE_EEE14setScanTimeoutEt
         U _ZN3ble9interface9LegacyGapINS_7generic10GenericGapINS_3pal6vendor6cordio3GapENS4_15SecurityManagerINS6_21CordioSecurityManagerINS2_22GenericSecurityManagerIS9_NS_6vendor6cordio19SigningEventMonitorEEEEESE_EESE_EEE15onDisconnectionE26FunctionPointerWithContextIPKNSI_29DisconnectionCallbackParams_tEE
         U _ZN3ble9interface9LegacyGapINS_7generic10GenericGapINS_3pal6vendor6cordio3GapENS4_15SecurityManagerINS6_21CordioSecurityManagerINS2_22GenericSecurityManagerIS9_NS_6vendor6cordio19SigningEventMonitorEEEEESE_EESE_EEE15setScanIntervalEt
         U _ZN3ble9interface9LegacyGapINS_7generic10GenericGapINS_3pal6vendor6cordio3GapENS4_15SecurityManagerINS6_21CordioSecurityManagerINS2_22GenericSecurityManagerIS9_NS_6vendor6cordio19SigningEventMonitorEEEEESE_EESE_EEE15stopAdvertisingEv
         U _ZN3ble9interface9LegacyGapINS_7generic10GenericGapINS_3pal6vendor6cordio3GapENS4_15SecurityManagerINS6_21CordioSecurityManagerINS2_22GenericSecurityManagerIS9_NS_6vendor6cordio19SigningEventMonitorEEEEESE_EESE_EEE16startAdvertisingEv
         U _ZN3ble9interface9LegacyGapINS_7generic10GenericGapINS_3pal6vendor6cordio3GapENS4_15SecurityManagerINS6_21CordioSecurityManagerINS2_22GenericSecurityManagerIS9_NS_6vendor6cordio19SigningEventMonitorEEEEESE_EESE_EEE17clearScanResponseEv
         U _ZN3ble9interface9LegacyGapINS_7generic10GenericGapINS_3pal6vendor6cordio3GapENS4_15SecurityManagerINS6_21CordioSecurityManagerINS2_22GenericSecurityManagerIS9_NS_6vendor6cordio19SigningEventMonitorEEEEESE_EESE_EEE17setActiveScanningEb
         U _ZN3ble9interface9LegacyGapINS_7generic10GenericGapINS_3pal6vendor6cordio3GapENS4_15SecurityManagerINS6_21CordioSecurityManagerINS2_22GenericSecurityManagerIS9_NS_6vendor6cordio19SigningEventMonitorEEEEESE_EESE_EEE18setAdvertisingTypeEN20GapAdvertisingParams17AdvertisingType_tE
         U _ZN3ble9interface9LegacyGapINS_7generic10GenericGapINS_3pal6vendor6cordio3GapENS4_15SecurityManagerINS6_21CordioSecurityManagerINS2_22GenericSecurityManagerIS9_NS_6vendor6cordio19SigningEventMonitorEEEEESE_EESE_EEE19onRadioNotificationEPFvbE
         U _ZN3ble9interface9LegacyGapINS_7generic10GenericGapINS_3pal6vendor6cordio3GapENS4_15SecurityManagerINS6_21CordioSecurityManagerINS2_22GenericSecurityManagerIS9_NS_6vendor6cordio19SigningEventMonitorEEEEESE_EESE_EEE20setAdvertisingParamsERK20GapAdvertisingParams
         U _ZN3ble9interface9LegacyGapINS_7generic10GenericGapINS_3pal6vendor6cordio3GapENS4_15SecurityManagerINS6_21CordioSecurityManagerINS2_22GenericSecurityManagerIS9_NS_6vendor6cordio19SigningEventMonitorEEEEESE_EESE_EEE21setAdvertisingPayloadERK18GapAdvertisingData
         U _ZN3ble9interface9LegacyGapINS_7generic10GenericGapINS_3pal6vendor6cordio3GapENS4_15SecurityManagerINS6_21CordioSecurityManagerINS2_22GenericSecurityManagerIS9_NS_6vendor6cordio19SigningEventMonitorEEEEESE_EESE_EEE21setAdvertisingTimeoutEt
         U _ZN3ble9interface9LegacyGapINS_7generic10GenericGapINS_3pal6vendor6cordio3GapENS4_15SecurityManagerINS6_21CordioSecurityManagerINS2_22GenericSecurityManagerIS9_NS_6vendor6cordio19SigningEventMonitorEEEEESE_EESE_EEE22accumulateScanResponseEN18GapAdvertisingData10DataType_tEPKhh
         U _ZN3ble9interface9LegacyGapINS_7generic10GenericGapINS_3pal6vendor6cordio3GapENS4_15SecurityManagerINS6_21CordioSecurityManagerINS2_22GenericSecurityManagerIS9_NS_6vendor6cordio19SigningEventMonitorEEEEESE_EESE_EEE22setAdvertisingIntervalEt
         U _ZN3ble9interface9LegacyGapINS_7generic10GenericGapINS_3pal6vendor6cordio3GapENS4_15SecurityManagerINS6_21CordioSecurityManagerINS2_22GenericSecurityManagerIS9_NS_6vendor6cordio19SigningEventMonitorEEEEESE_EESE_EEE22updateConnectionParamsEjPKNSI_18ConnectionParams_tE
         U _ZN3ble9interface9LegacyGapINS_7generic10GenericGapINS_3pal6vendor6cordio3GapENS4_15SecurityManagerINS6_21CordioSecurityManagerINS2_22GenericSecurityManagerIS9_NS_6vendor6cordio19SigningEventMonitorEEEEESE_EESE_EEE23clearAdvertisingPayloadEv
         U _ZN3ble9interface9LegacyGapINS_7generic10GenericGapINS_3pal6vendor6cordio3GapENS4_15SecurityManagerINS6_21CordioSecurityManagerINS2_22GenericSecurityManagerIS9_NS_6vendor6cordio19SigningEventMonitorEEEEESE_EESE_EEE25getPermittedTxPowerValuesEPPKaPj
         U _ZN3ble9interface9LegacyGapINS_7generic10GenericGapINS_3pal6vendor6cordio3GapENS4_15SecurityManagerINS6_21CordioSecurityManagerINS2_22GenericSecurityManagerIS9_NS_6vendor6cordio19SigningEventMonitorEEEEESE_EESE_EEE28accumulateAdvertisingPayloadEh
         U _ZN3ble9interface9LegacyGapINS_7generic10GenericGapINS_3pal6vendor6cordio3GapENS4_15SecurityManagerINS6_21CordioSecurityManagerINS2_22GenericSecurityManagerIS9_NS_6vendor6cordio19SigningEventMonitorEEEEESE_EESE_EEE28accumulateAdvertisingPayloadEN18GapAdvertisingData10DataType_tEPKhh
         U _ZN3ble9interface9LegacyGapINS_7generic10GenericGapINS_3pal6vendor6cordio3GapENS4_15SecurityManagerINS6_21CordioSecurityManagerINS2_22GenericSecurityManagerIS9_NS_6vendor6cordio19SigningEventMonitorEEEEESE_EESE_EEE28accumulateAdvertisingPayloadEN18GapAdvertisingData12Appearance_tE
         U _ZN3ble9interface9LegacyGapINS_7generic10GenericGapINS_3pal6vendor6cordio3GapENS4_15SecurityManagerINS6_21CordioSecurityManagerINS2_22GenericSecurityManagerIS9_NS_6vendor6cordio19SigningEventMonitorEEEEESE_EESE_EEE35accumulateAdvertisingPayloadTxPowerEa
         U _ZN3ble9interface9LegacyGapINS_7generic10GenericGapINS_3pal6vendor6cordio3GapENS4_15SecurityManagerINS6_21CordioSecurityManagerINS2_22GenericSecurityManagerIS9_NS_6vendor6cordio19SigningEventMonitorEEEEESE_EESE_EEE7connectEPKhN11BLEProtocol11AddressType4TypeEPKNSI_18ConnectionParams_tEPK17GapScanningParams
         U _ZN3ble9interface9LegacyGapINS_7generic10GenericGapINS_3pal6vendor6cordio3GapENS4_15SecurityManagerINS6_21CordioSecurityManagerINS2_22GenericSecurityManagerIS9_NS_6vendor6cordio19SigningEventMonitorEEEEESE_EESE_EEE9onTimeoutE26FunctionPointerWithContextINSI_15TimeoutSource_tEE
         U _ZN3ble9interface9LegacyGapINS_7generic10GenericGapINS_3pal6vendor6cordio3GapENS4_15SecurityManagerINS6_21CordioSecurityManagerINS2_22GenericSecurityManagerIS9_NS_6vendor6cordio19SigningEventMonitorEEEEESE_EESE_EEE9startScanEPFvPKNSI_29AdvertisementCallbackParams_tEE
00000000 T _ZN3BLE9onTimeoutE26FunctionPointerWithContextIN3ble9interface9LegacyGapINS1_7generic10GenericGapINS1_3pal6vendor6cordio3GapENS6_15SecurityManagerINS8_21CordioSecurityManagerINS4_22GenericSecurityManagerISB_NS1_6vendor6cordio19SigningEventMonitorEEEEESG_EESG_EEE15TimeoutSource_tEE
00000000 T _ZN3BLE9startScanEPFvPKN3ble9interface9LegacyGapINS0_7generic10GenericGapINS0_3pal6vendor6cordio3GapENS5_15SecurityManagerINS7_21CordioSecurityManagerINS3_22GenericSecurityManagerISA_NS0_6vendor6cordio19SigningEventMonitorEEEEESF_EESF_EEE29AdvertisementCallbackParams_tEE
00000000 T _ZN3BLEC1Ej
00000000 T _ZN3BLEC2Ej
00000000 T _ZNK3BLE10gattClientEv
00000000 T _ZNK3BLE10gattServerEv
00000000 T _ZNK3BLE11getGapStateEv
00000000 T _ZNK3BLE14hasInitializedEv
00000000 T _ZNK3BLE15securityManagerEv
00000000 T _ZNK3BLE18getAdvertisingDataEv
00000000 T _ZNK3BLE20getAdvertisingParamsEv
00000000 T _ZNK3BLE3gapEv
00000000 t _ZNK3BLE3gapEv.part.0
         U _ZNK3ble9interface9LegacyGapINS_7generic10GenericGapINS_3pal6vendor6cordio3GapENS4_15SecurityManagerINS6_21CordioSecurityManagerINS2_22GenericSecurityManagerIS9_NS_6vendor6cordio19SigningEventMonitorEEEEESE_EESE_EEE20getAdvertisingParamsEv
         U _ZNK3ble9interface9LegacyGapINS_7generic10GenericGapINS_3pal6vendor6cordio3GapENS4_15SecurityManagerINS6_21CordioSecurityManagerINS2_22GenericSecurityManagerIS9_NS_6vendor6cordio19SigningEventMonitorEEEEESE_EESE_EEE21getAdvertisingPayloadEv
         U _ZNK3ble9interface9LegacyGapINS_7generic10GenericGapINS_3pal6vendor6cordio3GapENS4_15SecurityManagerINS6_21CordioSecurityManagerINS2_22GenericSecurityManagerIS9_NS_6vendor6cordio19SigningEventMonitorEEEEESE_EESE_EEE8getStateEv
00000000 W _ZNK9SafeBool_4base7trueTagEv
         U _Znwj
00000000 b _ZZN3BLE8InstanceEjE10singletons
00000000 b _ZZN3BLE8InstanceEjE12badSingleton
00000000 b _ZZN3BLEC4EjE18transportInstances
         U core_util_critical_section_enter
         U core_util_critical_section_exit
         U mbed_error
         U printf

DFUService.o:

equeue_mbed.o:
         U _ZN4rtos10EventFlags3setEm
         U _ZN4rtos10EventFlags8wait_anyEmmb
         U _ZN4rtos10EventFlagsC1EPKc
         U _ZN4rtos10EventFlagsD1Ev
         U _ZN4rtos6Kernel12get_ms_countEv
         U core_util_critical_section_enter
         U core_util_critical_section_exit
00000000 T equeue_mutex_create
00000000 T equeue_mutex_destroy
00000000 T equeue_mutex_lock
00000000 T equeue_mutex_unlock
00000000 T equeue_sema_create
00000000 T equeue_sema_destroy
00000000 T equeue_sema_signal
00000000 T equeue_sema_wait
00000000 T equeue_tick
00000000 T equeue_tick_init

GapScanningParams.o:
00000000 T _ZN17GapScanningParams10setTimeoutEt
00000000 T _ZN17GapScanningParams11setIntervalEt
00000000 T _ZN17GapScanningParams17setActiveScanningEb
00000000 T _ZN17GapScanningParams9setWindowEt
00000000 T _ZN17GapScanningParamsC1Etttb
00000000 T _ZN17GapScanningParamsC2Etttb

AdvertisingParameters.o:
00000000 R _ZN3ble21AdvertisingParameters32DEFAULT_ADVERTISING_INTERVAL_MAXE
00000000 R _ZN3ble21AdvertisingParameters32DEFAULT_ADVERTISING_INTERVAL_MINE
00000000 R _ZN3ble21AdvertisingParameters34GAP_ADV_PARAMS_INTERVAL_MIN_NONCONE

ConnectionParameters.o:
00000000 T _ZN3ble20ConnectionParameters14swapCodedAnd2MEv
00000000 W _ZN3ble20ConnectionParameters15handlePhyToggleENS_5phy_tEb
00000000 T _ZN3ble20ConnectionParameters17setScanParametersENS_5phy_tENS_8DurationItLm625ENS_5RangeILm4ELm65535EEEPvEES6_
00000000 T _ZN3ble20ConnectionParameters23setConnectionParametersENS_5phy_tENS_8DurationItLm1250ENS_5RangeILm6ELm3200EEEPvEES6_NS_7BoundedItLt0ELt499EEENS2_ItLm10000ENS3_ILm10ELm3200EEES5_EENS2_ItLm625ENS3_ILm0ELm65535EEES5_EESC_
00000000 T _ZN3ble20ConnectionParametersC1ENS_5phy_tENS_8DurationItLm625ENS_5RangeILm4ELm65535EEEPvEES6_NS2_ItLm1250ENS3_ILm6ELm3200EEES5_EES8_NS_7BoundedItLt0ELt499EEENS2_ItLm10000ENS3_ILm10ELm3200EEES5_EENS2_ItLm625ENS3_ILm0ELm65535EEES5_EESE_
00000000 T _ZN3ble20ConnectionParametersC2ENS_5phy_tENS_8DurationItLm625ENS_5RangeILm4ELm65535EEEPvEES6_NS2_ItLm1250ENS3_ILm6ELm3200EEES5_EES8_NS_7BoundedItLt0ELt499EEENS2_ItLm10000ENS3_ILm10ELm3200EEES5_EENS2_ItLm625ENS3_ILm0ELm65535EEES5_EESE_

AdvertisingDataBuilder.o:
00000000 T _ZN3ble22AdvertisingDataBuilder10appendDataENS_15adv_data_type_tEN4mbed4SpanIKhLin1EEE
00000000 T _ZN3ble22AdvertisingDataBuilder10removeDataENS_15adv_data_type_tE
00000000 T _ZN3ble22AdvertisingDataBuilder11removeFieldEPh
00000000 T _ZN3ble22AdvertisingDataBuilder11replaceDataENS_15adv_data_type_tEN4mbed4SpanIKhLin1EEE
00000000 T _ZN3ble22AdvertisingDataBuilder11setUUIDDataEN4mbed4SpanIK4UUIDLin1EEENS_15adv_data_type_tES6_
00000000 T _ZN3ble22AdvertisingDataBuilder12getFieldSizeENS_15adv_data_type_tE
00000000 T _ZN3ble22AdvertisingDataBuilder12replaceFieldENS_15adv_data_type_tEN4mbed4SpanIKhLin1EEEPh
00000000 T _ZN3ble22AdvertisingDataBuilder13appendToFieldEN4mbed4SpanIKhLin1EEEPh
00000000 T _ZN3ble22AdvertisingDataBuilder13setAppearanceENS_21adv_data_appearance_tE
00000000 T _ZN3ble22AdvertisingDataBuilder14setServiceDataE4UUIDN4mbed4SpanIKhLin1EEE
00000000 T _ZN3ble22AdvertisingDataBuilder15addOrAppendDataENS_15adv_data_type_tEN4mbed4SpanIKhLin1EEE
00000000 T _ZN3ble22AdvertisingDataBuilder16addOrReplaceDataENS_15adv_data_type_tEN4mbed4SpanIKhLin1EEE
00000000 T _ZN3ble22AdvertisingDataBuilder19setLocalServiceListEN4mbed4SpanIK4UUIDLin1EEEb
00000000 T _ZN3ble22AdvertisingDataBuilder20setTxPowerAdvertisedEa
00000000 T _ZN3ble22AdvertisingDataBuilder22setAdvertisingIntervalENS_8DurationImLm625ENS_5RangeILm32ELm16777215EEEPvEE
00000000 T _ZN3ble22AdvertisingDataBuilder23setRequestedServiceListEN4mbed4SpanIK4UUIDLin1EEE
00000000 T _ZN3ble22AdvertisingDataBuilder27setManufacturerSpecificDataEN4mbed4SpanIKhLin1EEE
00000000 T _ZN3ble22AdvertisingDataBuilder31setConnectionIntervalPreferenceENS_8DurationItLm1250ENS_5RangeILm6ELm3200EEEPvEES5_
00000000 T _ZN3ble22AdvertisingDataBuilder5clearEv
00000000 T _ZN3ble22AdvertisingDataBuilder7addDataENS_15adv_data_type_tEN4mbed4SpanIKhLin1EEE
00000000 T _ZN3ble22AdvertisingDataBuilder7getDataERN4mbed4SpanIKhLin1EEENS_15adv_data_type_tE
00000000 T _ZN3ble22AdvertisingDataBuilder7setNameEPKcb
00000000 T _ZN3ble22AdvertisingDataBuilder8addFieldENS_15adv_data_type_tEN4mbed4SpanIKhLin1EEE
00000000 T _ZN3ble22AdvertisingDataBuilder8setFlagsENS_16adv_data_flags_tE
00000000 T _ZN3ble22AdvertisingDataBuilder9findFieldENS_15adv_data_type_tE
00000000 T _ZN3ble22AdvertisingDataBuilderC1EN4mbed4SpanIhLin1EEE
00000000 T _ZN3ble22AdvertisingDataBuilderC1EPhj
00000000 T _ZN3ble22AdvertisingDataBuilderC2EN4mbed4SpanIhLin1EEE
00000000 T _ZN3ble22AdvertisingDataBuilderC2EPhj
00000000 W _ZN4mbed4SpanIhLin1EEC1EPhi
00000000 W _ZN4mbed4SpanIhLin1EEC2EPhi
00000000 n _ZN4mbed4SpanIhLin1EEC5EPhi
00000000 W _ZN4mbed4SpanIKhLin1EEC1EPS1_i
00000000 W _ZN4mbed4SpanIKhLin1EEC2EPS1_i
00000000 n _ZN4mbed4SpanIKhLin1EEC5EPS1_i
00000000 T _ZNK3ble22AdvertisingDataBuilder18getAdvertisingDataEv
         U mbed_assert_internal
         U memcpy
         U memmove
         U memset
         U strlen

H4TransportDriver.o:

AP3CordioHCITransportDriver.o:
         U _ZdlPvj
00000000 T _ZN3ble6vendor11ambiq_micro27AP3CordioHCITransportDriver10initializeEv
00000000 T _ZN3ble6vendor11ambiq_micro27AP3CordioHCITransportDriver5writeEhtPh
00000000 T _ZN3ble6vendor11ambiq_micro27AP3CordioHCITransportDriver9terminateEv
00000000 T _ZN3ble6vendor11ambiq_micro27AP3CordioHCITransportDriverD0Ev
00000000 T _ZN3ble6vendor11ambiq_micro27AP3CordioHCITransportDriverD1Ev
00000000 T _ZN3ble6vendor11ambiq_micro27AP3CordioHCITransportDriverD2Ev
         U _ZN3ble6vendor6cordio24CordioHCITransportDriver16on_data_receivedEPht
00000000 R _ZTVN3ble6vendor11ambiq_micro27AP3CordioHCITransportDriverE
00000000 T am_ble_isr
         U am_hal_ble_blocking_hci_read
         U am_hal_ble_blocking_hci_write
         U am_hal_ble_deinitialize
         U am_hal_ble_initialize
         U am_hal_ble_int_clear
         U am_hal_ble_int_status
00000000 B ample_buffer
00000000 B ble_handle
00000000 B bleBusy
00000000 B IntStats
00000000 B lastRx
00000000 B lenLastRx
         U memcpy
00000000 B numInterruptsSinceLast

FileSecurityDb.o:
         U __cxa_pure_virtual
         U _ZdlPvj
00000000 W _ZN3ble7generic10SecurityDb10open_entryENS_19peer_address_type_tERKNS_9address_tE
00000000 W _ZN3ble7generic10SecurityDb11close_entryEPv
00000000 W _ZN3ble7generic10SecurityDb11set_restoreEb
00000000 W _ZN3ble7generic10SecurityDb12remove_entryENS_19peer_address_type_tERKNS_9address_tE
00000000 W _ZN3ble7generic10SecurityDb13clear_entriesEv
00000000 W _ZN3ble7generic10SecurityDb13get_whitelistEN4mbed8CallbackIFvPNS_9interface9LegacyGapINS0_10GenericGapINS_3pal6vendor6cordio3GapENS7_15SecurityManagerINS9_21CordioSecurityManagerINS0_22GenericSecurityManagerISC_NS_6vendor6cordio19SigningEventMonitorEEEEESH_EESH_EEE11Whitelist_tEEEESN_
00000000 W _ZN3ble7generic10SecurityDb13set_whitelistERKNS_9interface9LegacyGapINS0_10GenericGapINS_3pal6vendor6cordio3GapENS5_15SecurityManagerINS7_21CordioSecurityManagerINS0_22GenericSecurityManagerISA_NS_6vendor6cordio19SigningEventMonitorEEEEESF_EESF_EEE11Whitelist_tE
00000000 W _ZN3ble7generic10SecurityDb14get_local_csrkEv
00000000 W _ZN3ble7generic10SecurityDb14set_local_csrkERKNS_12byte_array_tILj16EEE
00000000 W _ZN3ble7generic10SecurityDb15clear_whitelistEv
00000000 W _ZN3ble7generic10SecurityDb17get_identity_listEN4mbed8CallbackIFvRNS2_4SpanINS0_23SecurityEntryIdentity_tELin1EEEjEEES7_
00000000 W _ZN3ble7generic10SecurityDb18get_entry_identityEN4mbed8CallbackIFvPvPKNS0_23SecurityEntryIdentity_tEEEES4_
00000000 W _ZN3ble7generic10SecurityDb19add_whitelist_entryERKNS_9address_tE
00000000 W _ZN3ble7generic10SecurityDb19get_entry_peer_csrkEN4mbed8CallbackIFvPvPKNS0_22SecurityEntrySigning_tEEEES4_
00000000 W _ZN3ble7generic10SecurityDb19get_entry_peer_keysEN4mbed8CallbackIFvPvPKNS0_19SecurityEntryKeys_tEEEES4_
00000000 W _ZN3ble7generic10SecurityDb20get_entry_local_keysEN4mbed8CallbackIFvPvPKNS0_19SecurityEntryKeys_tEEEES4_
00000000 W _ZN3ble7generic10SecurityDb20get_entry_local_keysEN4mbed8CallbackIFvPvPKNS0_19SecurityEntryKeys_tEEEES4_RKNS_12byte_array_tILj2EEERKNSA_ILj8EEE
00000000 W _ZN3ble7generic10SecurityDb20get_free_entry_flagsEv
00000000 W _ZN3ble7generic10SecurityDb22get_local_sign_counterEv
00000000 W _ZN3ble7generic10SecurityDb22remove_whitelist_entryERKNS_9address_tE
00000000 W _ZN3ble7generic10SecurityDb22set_distribution_flagsEPvRKNS0_27SecurityDistributionFlags_tE
00000000 W _ZN3ble7generic10SecurityDb22set_local_sign_counterEm
00000000 W _ZN3ble7generic10SecurityDb26find_entry_by_peer_addressENS_19peer_address_type_tERKNS_9address_tE
00000000 W _ZN3ble7generic10SecurityDb34generate_whitelist_from_bond_tableEN4mbed8CallbackIFvPNS_9interface9LegacyGapINS0_10GenericGapINS_3pal6vendor6cordio3GapENS7_15SecurityManagerINS9_21CordioSecurityManagerINS0_22GenericSecurityManagerISC_NS_6vendor6cordio19SigningEventMonitorEEEEESH_EESH_EEE11Whitelist_tEEEESN_
00000000 W _ZN3ble7generic10SecurityDb4syncEPv
00000000 W _ZN3ble7generic10SecurityDb7restoreEv
00000000 T _ZN3ble7generic14FileSecurityDb11reset_entryEPv
00000000 T _ZN3ble7generic14FileSecurityDb11set_restoreEb
00000000 T _ZN3ble7generic14FileSecurityDb12open_db_fileEPKc
00000000 T _ZN3ble7generic14FileSecurityDb13erase_db_fileEP7__sFILE
00000000 T _ZN3ble7generic14FileSecurityDb15get_entry_countEv
00000000 T _ZN3ble7generic14FileSecurityDb18set_entry_peer_irkEPvRKNS_12byte_array_tILj16EEE
00000000 T _ZN3ble7generic14FileSecurityDb18set_entry_peer_ltkEPvRKNS_12byte_array_tILj16EEE
00000000 T _ZN3ble7generic14FileSecurityDb19set_entry_local_ltkEPvRKNS_12byte_array_tILj16EEE
00000000 T _ZN3ble7generic14FileSecurityDb19set_entry_peer_csrkEPvRKNS_12byte_array_tILj16EEE
00000000 T _ZN3ble7generic14FileSecurityDb21set_entry_peer_bdaddrEPvbRKNS_9address_tE
00000000 T _ZN3ble7generic14FileSecurityDb22get_distribution_flagsEPv
00000000 T _ZN3ble7generic14FileSecurityDb23read_in_entry_peer_keysEPv
00000000 T _ZN3ble7generic14FileSecurityDb24read_in_entry_local_keysEPv
00000000 T _ZN3ble7generic14FileSecurityDb24set_entry_peer_ediv_randEPvRKNS_12byte_array_tILj2EEERKNS3_ILj8EEE
00000000 T _ZN3ble7generic14FileSecurityDb25get_entry_handle_by_indexEh
00000000 T _ZN3ble7generic14FileSecurityDb25set_entry_local_ediv_randEPvRKNS_12byte_array_tILj2EEERKNS3_ILj8EEE
00000000 T _ZN3ble7generic14FileSecurityDb26read_in_entry_peer_signingEPv
00000000 T _ZN3ble7generic14FileSecurityDb27read_in_entry_peer_identityEPv
00000000 T _ZN3ble7generic14FileSecurityDb27set_entry_peer_sign_counterEPvm
00000000 T _ZN3ble7generic14FileSecurityDb4syncEPv
00000000 T _ZN3ble7generic14FileSecurityDb7restoreEv
00000000 t _ZN3ble7generic14FileSecurityDb8db_writeIKNS_12byte_array_tILj16EEEEEvPT_l.isra.5
00000000 T _ZN3ble7generic14FileSecurityDbC1EP7__sFILE
00000000 T _ZN3ble7generic14FileSecurityDbC2EP7__sFILE
00000000 T _ZN3ble7generic14FileSecurityDbD0Ev
00000000 T _ZN3ble7generic14FileSecurityDbD1Ev
00000000 T _ZN3ble7generic14FileSecurityDbD2Ev
00000000 W _ZN3ble7generic23SecurityEntryIdentity_tC1Ev
00000000 W _ZN3ble7generic23SecurityEntryIdentity_tC2Ev
00000000 n _ZN3ble7generic23SecurityEntryIdentity_tC5Ev
00000000 r _ZN3ble7genericL10DB_VERSIONE
00000000 W _ZN3ble9address_tC1Ev
00000000 W _ZN3ble9address_tC2Ev
00000000 n _ZN3ble9address_tC5Ev
00000000 W _ZNK4mbed8CallbackIFvPN3ble9interface9LegacyGapINS1_7generic10GenericGapINS1_3pal6vendor6cordio3GapENS6_15SecurityManagerINS8_21CordioSecurityManagerINS4_22GenericSecurityManagerISB_NS1_6vendor6cordio19SigningEventMonitorEEEEESG_EESG_EEE11Whitelist_tEEE4callESM_
00000000 W _ZNK4mbed8CallbackIFvPvPKN3ble7generic19SecurityEntryKeys_tEEE4callES1_S6_
00000000 W _ZNK4mbed8CallbackIFvPvPKN3ble7generic23SecurityEntryIdentity_tEEE4callES1_S6_
00000000 V _ZTVN3ble7generic10SecurityDbE
00000000 R _ZTVN3ble7generic14FileSecurityDbE
         U fclose
         U fflush
         U fopen
         U fread
         U fseek
         U ftell
         U fwrite
         U mbed_assert_internal
         U memcmp
         U memset

URIBeaconConfigService.o:
00000000 R BEACON_UUID
00000000 R UUID_ADV_POWER_LEVELS_CHAR
00000000 R UUID_BEACON_PERIOD_CHAR
00000000 R UUID_FLAGS_CHAR
00000000 R UUID_LOCK_CHAR
00000000 R UUID_LOCK_STATE_CHAR
00000000 R UUID_RESET_CHAR
00000000 R UUID_TX_POWER_MODE_CHAR
00000000 R UUID_UNLOCK_CHAR
00000000 R UUID_URI_BEACON_SERVICE
00000000 R UUID_URI_DATA_CHAR

CordioHCITransportDriver.o:
00000000 T _ZN3ble6vendor6cordio24CordioHCITransportDriver16on_data_receivedEPht
00000000 D _ZN3ble6vendor6cordio24CordioHCITransportDriver21data_received_handlerE
00000000 T _ZN3ble6vendor6cordio24CordioHCITransportDriver25set_data_received_handlerEPFvPhhE
         U hciTrSerialRxIncoming

AP3CordioHCIDriver.o:
         U __aeabi_atexit
         U __cxa_guard_acquire
         U __cxa_guard_release
         U __dso_handle
00000000 T _Z25ble_cordio_get_hci_driverv
         U _ZdlPvj
00000000 b _ZGVZ25ble_cordio_get_hci_drivervE10hci_driver
00000000 b _ZGVZ25ble_cordio_get_hci_drivervE16transport_driver
00000000 T _ZN3ble6vendor11ambiq_micro18AP3CordioHCIDriver12do_terminateEv
00000000 T _ZN3ble6vendor11ambiq_micro18AP3CordioHCIDriver13do_initializeEv
00000000 T _ZN3ble6vendor11ambiq_micro18AP3CordioHCIDriver27get_buffer_pool_descriptionEv
00000000 T _ZN3ble6vendor11ambiq_micro18AP3CordioHCIDriverC1ERNS0_6cordio24CordioHCITransportDriverE
00000000 T _ZN3ble6vendor11ambiq_micro18AP3CordioHCIDriverC2ERNS0_6cordio24CordioHCITransportDriverE
00000000 T _ZN3ble6vendor11ambiq_micro18AP3CordioHCIDriverD0Ev
00000000 T _ZN3ble6vendor11ambiq_micro18AP3CordioHCIDriverD1Ev
00000000 T _ZN3ble6vendor11ambiq_micro18AP3CordioHCIDriverD2Ev
         U _ZN3ble6vendor11ambiq_micro27AP3CordioHCITransportDriverD1Ev
         U _ZN3ble6vendor6cordio15CordioHCIDriver20start_reset_sequenceEv
         U _ZN3ble6vendor6cordio15CordioHCIDriver21handle_reset_sequenceEPh
         U _ZN3ble6vendor6cordio15CordioHCIDriver24on_host_stack_inactivityEv
         U _ZN3ble6vendor6cordio15CordioHCIDriver25get_random_static_addressERNS_9address_tE
         U _ZN3ble6vendor6cordio15CordioHCIDriver35get_default_buffer_pool_descriptionEv
         U _ZN3ble6vendor6cordio15CordioHCIDriverC2ERNS1_24CordioHCITransportDriverE
00000000 R _ZTVN3ble6vendor11ambiq_micro18AP3CordioHCIDriverE
         U _ZTVN3ble6vendor11ambiq_micro27AP3CordioHCITransportDriverE
00000000 b _ZZ25ble_cordio_get_hci_drivervE10hci_driver
00000000 b _ZZ25ble_cordio_get_hci_drivervE16transport_driver
         U am_hal_ble_boot
         U am_hal_ble_config
         U am_hal_ble_default_config
         U am_hal_ble_int_enable
         U am_hal_ble_power_control
         U am_hal_ble_sleep_set
         U am_hal_ble_tx_power_set
         U mbed_assert_internal

hci_core.o:
         U hciCb
00000000 T hciCoreAclReassembly
00000094 C hciCoreCb
00000000 T hciCoreConnByHandle
00000000 T hciCoreConnClose
00000000 T hciCoreConnOpen
         U hciCoreInit
00000000 T HciCoreInit
         U hciCoreResetStart
00000000 T hciCoreSendAclData
00000000 T hciCoreTxAclComplete
00000000 T hciCoreTxAclContinue
00000000 T hciCoreTxAclDataFragmented
00000000 T hciCoreTxAclStart
00000000 T hciCoreTxReady
00000000 R hciEventMask
00000000 R hciEventMaskPage2
         U HciGetBufSize
00000000 R hciLeEventMask
00000000 D hciLeSupFeatCfg
00000000 T HciResetSequence
00000000 T HciSendAclData
00000000 T HciSetAclQueueWatermarks
00000000 T HciSetLeSupFeat
00000000 T HciSetMaxRxAclLen
         U hciTrSendAclData
         U memcpy
         U WsfMsgDataAlloc
         U WsfMsgDeq
         U WsfMsgEnq
         U WsfMsgFree
         U WsfQueueEmpty

hci_cmd.o:
         U BdaClr
         U BdaCpy
         U hciCb
00000000 T hciCmdAlloc
0000001c C hciCmdCb
00000000 T hciCmdInit
00000000 T hciCmdRecvCmpl
00000000 T hciCmdSend
00000000 T hciCmdTimeout
00000000 T HciDisconnectCmd
00000000 T HciLeAddDeviceToResolvingListCmd
00000000 T HciLeAddDevWhiteListCmd
00000000 T HciLeClearResolvingList
00000000 T HciLeClearWhiteListCmd
00000000 T HciLeConnUpdateCmd
00000000 T HciLeCreateConnCancelCmd
00000000 T HciLeCreateConnCmd
00000000 T HciLeEncryptCmd
00000000 T HciLeGenerateDHKey
00000000 T HciLeGenerateDHKeyV2
00000000 T HciLeLtkReqNegReplCmd
00000000 T HciLeLtkReqReplCmd
00000000 T HciLeRandCmd
00000000 T HciLeReadAdvTXPowerCmd
00000000 T HciLeReadBufSizeCmd
00000000 T HciLeReadChanMapCmd
00000000 T HciLeReadDefDataLen
00000000 T HciLeReadLocalP256PubKey
00000000 T HciLeReadLocalResolvableAddr
00000000 T HciLeReadLocalSupFeatCmd
00000000 T HciLeReadMaxDataLen
00000000 T HciLeReadPeerResolvableAddr
00000000 T HciLeReadRemoteFeatCmd
00000000 T HciLeReadResolvingListSize
00000000 T HciLeReadSupStatesCmd
00000000 T HciLeReadWhiteListSizeCmd
00000000 T HciLeRemoteConnParamReqNegReply
00000000 T HciLeRemoteConnParamReqReply
00000000 T HciLeRemoveDeviceFromResolvingList
00000000 T HciLeRemoveDevWhiteListCmd
00000000 T HciLeSetAddrResolutionEnable
00000000 T HciLeSetAdvDataCmd
00000000 T HciLeSetAdvEnableCmd
00000000 T HciLeSetAdvParamCmd
00000000 T HciLeSetDataLen
00000000 T HciLeSetEventMaskCmd
00000000 T HciLeSetHostChanClassCmd
00000000 T HciLeSetPrivacyModeCmd
00000000 T HciLeSetRandAddrCmd
00000000 T HciLeSetResolvablePrivateAddrTimeout
00000000 T HciLeSetScanEnableCmd
00000000 T HciLeSetScanParamCmd
00000000 T HciLeSetScanRespDataCmd
00000000 T HciLeStartEncryptionCmd
00000000 T HciLeWriteDefDataLen
00000000 T HciReadAuthPayloadTimeout
00000000 T HciReadBdAddrCmd
00000000 T HciReadBufSizeCmd
00000000 T HciReadLocalSupFeatCmd
00000000 T HciReadLocalVerInfoCmd
00000000 T HciReadRemoteVerInfoCmd
00000000 T HciReadRssiCmd
00000000 T HciReadTxPwrLvlCmd
00000000 T HciResetCmd
00000000 T HciSetEventMaskCmd
00000000 T HciSetEventMaskPage2Cmd
         U hciTrSendCmd
00000000 T HciVendorSpecificCmd
00000000 T HciWriteAuthPayloadTimeout
         U memcpy
         U memset
         U WsfMsgAlloc
         U WsfMsgDeq
         U WsfMsgEnq
         U WsfTimerStartSec
         U WsfTimerStop

UARTService.o:
00000000 R UARTServiceBaseUUID
00000000 R UARTServiceRXCharacteristicShortUUID
00000000 R UARTServiceRXCharacteristicUUID
00000000 R UARTServiceShortUUID
00000000 R UARTServiceTXCharacteristicShortUUID
00000000 R UARTServiceTXCharacteristicUUID
00000000 R UARTServiceUUID
00000000 R UARTServiceUUID_reversed

CordioHCIDriver.o:
         U __cxa_pure_virtual
00000000 t _ZN3ble6vendor6cordio12_GLOBAL__N_1L21hciCoreReadMaxDataLenEv
00000000 T _ZN3ble6vendor6cordio15CordioHCIDriver10initializeEv
00000000 T _ZN3ble6vendor6cordio15CordioHCIDriver20start_reset_sequenceEv
00000000 T _ZN3ble6vendor6cordio15CordioHCIDriver21handle_reset_sequenceEPh
00000000 T _ZN3ble6vendor6cordio15CordioHCIDriver24on_host_stack_inactivityEv
00000000 T _ZN3ble6vendor6cordio15CordioHCIDriver25get_random_static_addressERNS_9address_tE
00000000 T _ZN3ble6vendor6cordio15CordioHCIDriver26signal_reset_sequence_doneEv
00000000 T _ZN3ble6vendor6cordio15CordioHCIDriver35get_default_buffer_pool_descriptionEv
00000000 T _ZN3ble6vendor6cordio15CordioHCIDriver5writeEhtPh
00000000 T _ZN3ble6vendor6cordio15CordioHCIDriver9terminateEv
00000000 T _ZN3ble6vendor6cordio15CordioHCIDriverC1ERNS1_24CordioHCITransportDriverE
00000000 T _ZN3ble6vendor6cordio15CordioHCIDriverC2ERNS1_24CordioHCITransportDriverE
         U _ZN3ble6vendor6cordio3BLE14deviceInstanceEv
         U _ZN3ble9interface9LegacyGapINS_7generic10GenericGapINS_3pal6vendor6cordio3GapENS4_15SecurityManagerINS6_21CordioSecurityManagerINS2_22GenericSecurityManagerIS9_NS_6vendor6cordio19SigningEventMonitorEEEEESE_EESE_EEE10setAddressEN11BLEProtocol11AddressType4TypeEPKh
00000000 R _ZTVN3ble6vendor6cordio15CordioHCIDriverE
00000000 b _ZZN3ble6vendor6cordio15CordioHCIDriver21handle_reset_sequenceEPhE7randCnt
00000000 b _ZZN3ble6vendor6cordio15CordioHCIDriver35get_default_buffer_pool_descriptionEvE6buffer
00000000 r _ZZN3ble6vendor6cordio15CordioHCIDriver35get_default_buffer_pool_descriptionEvE9pool_desc
         U BdaCpy
         U hci_mbed_os_signal_reset_sequence_done
         U hciCoreCb
         U hciEventMask
         U hciEventMaskPage2
         U hciLeEventMask
         U HciLeRandCmd
         U HciLeReadBufSizeCmd
         U HciLeReadLocalSupFeatCmd
         U HciLeReadMaxDataLen
         U HciLeReadResolvingListSize
         U HciLeReadSupStatesCmd
         U HciLeReadWhiteListSizeCmd
         U HciLeSetEventMaskCmd
         U hciLeSupFeatCfg
         U HciLeWriteDefDataLen
         U HciReadBdAddrCmd
         U HciReadLocalVerInfoCmd
         U HciResetCmd
         U HciSetEventMaskCmd
         U HciSetEventMaskPage2Cmd

hci_cmd_phy.o:
         U hciCmdAlloc
         U hciCmdSend
00000000 T HciLeReadPhyCmd
00000000 T HciLeSetDefaultPhyCmd
00000000 T HciLeSetPhyCmd

hci_cmd_ae.o:
         U BdaCpy
         U hciCmdAlloc
         U hciCmdSend
00000000 T HciLeAddDeviceToPerAdvListCmd
00000000 T HciLeClearAdvSets
00000000 T HciLeClearPerAdvListCmd
00000000 T HciLeExtCreateConnCmd
00000000 T HciLeExtScanEnableCmd
00000000 T HciLePerAdvCreateSyncCancelCmd
00000000 T HciLePerAdvCreateSyncCmd
00000000 T HciLePerAdvTerminateSyncCmd
00000000 T HciLeReadMaxAdvDataLen
00000000 T HciLeReadNumSupAdvSets
00000000 T HciLeReadPerAdvListSizeCmd
00000000 T HciLeReadRfPathComp
00000000 T HciLeReadTxPower
00000000 T HciLeRemoveAdvSet
00000000 T HciLeRemoveDeviceFromPerAdvListCmd
00000000 T HciLeSetAdvSetRandAddrCmd
00000000 T HciLeSetExtAdvDataCmd
00000000 T HciLeSetExtAdvEnableCmd
00000000 T HciLeSetExtAdvParamCmd
00000000 T HciLeSetExtScanParamCmd
00000000 T HciLeSetExtScanRespDataCmd
00000000 T HciLeSetPerAdvDataCmd
00000000 T HciLeSetPerAdvEnableCmd
00000000 T HciLeSetPerAdvParamCmd
00000000 T HciLeWriteRfPathComp
         U memcpy

hci_cmd_past.o:
         U hciCmdAlloc
         U hciCmdSend
00000000 T HciLePerAdvSetInfoTrsfCmd
00000000 T HciLePerAdvSyncTrsfCmd
00000000 T HciLeSetDefaultPerAdvSyncTrsfParamsCmd
00000000 T HciLeSetPerAdvRcvEnableCmd
00000000 T HciLeSetPerAdvSyncTrsfParamsCmd

hci_cmd_cte.o:
         U hciCmdAlloc
         U hciCmdSend
00000000 T HciLeConnCteReqEnableCmd
00000000 T HciLeConnCteRspEnableCmd
00000000 T HciLeReadAntennaInfoCmd
00000000 T HciLeSetConnCteRxParamsCmd
00000000 T HciLeSetConnCteTxParamsCmd
         U memcpy

hci_core_ps.o:
         U hciCb
         U hciCmdInit
         U hciCmdTimeout
         U hciCoreAclReassembly
         U hciCoreCb
         U hciCoreConnByHandle
00000000 T HciCoreHandler
00000000 T hciCoreInit
00000000 T hciCoreNumCmplPkts
00000000 T hciCoreRecv
         U hciCoreResetSequence
         U hciCoreTxReady
         U hciEvtProcessMsg
00000000 T HciGetAdvTxPwr
00000000 T HciGetBdAddr
00000000 T HciGetBufSize
00000000 T HciGetLeSupFeat
00000000 T HciGetLocalVerInfo
00000000 T HciGetMaxAdvDataLen
00000000 T HciGetMaxRxAclLen
00000000 T HciGetNumBufs
00000000 T HciGetNumSupAdvSets
00000000 T HciGetPerAdvListSize
00000000 T HciGetResolvingListSize
00000000 T HciGetSupStates
00000000 T HciGetWhiteListSize
00000000 T HciLeAdvExtSupported
00000000 T HciLlPrivacySupported
         U WsfMsgDeq
         U WsfMsgEnq
         U WsfMsgFree
         U WsfSetEvent

hci_vs_ae.o:
         U hciCoreCb
00000000 t hciCoreExtResetSequence
00000000 t hciCoreReadNumSupAdvSets
00000000 t hciCoreReadPerAdvListSize
         U HciLeRandCmd
         U HciLeReadMaxAdvDataLen
         U HciLeReadNumSupAdvSets
         U HciLeReadPerAdvListSizeCmd
         U hciLeSupFeatCfg
00000000 T HciVsAeInit

sec_aes.o:
         U Calc128Cpy
         U HciLeEncryptCmd
00000000 T SecAes
00000000 T SecAesHciCback
00000000 T SecAesInit
         U secCb
         U WsfMsgAlloc
         U WsfMsgEnq
         U WsfMsgSend

CordioPalAttClient.o:
         U __aeabi_atexit
         U __cxa_guard_acquire
         U __cxa_guard_release
         U __dso_handle
         U _ZdlPvj
00000000 V _ZGVZN3ble3pal6vendor6cordio15CordioAttClient10get_clientEvE7_client
00000000 W _ZN3ble3pal27SimpleAttReadByTypeResponseD0Ev
00000000 W _ZN3ble3pal27SimpleAttReadByTypeResponseD1Ev
00000000 W _ZN3ble3pal27SimpleAttReadByTypeResponseD2Ev
00000000 n _ZN3ble3pal27SimpleAttReadByTypeResponseD5Ev
00000000 W _ZN3ble3pal32SimpleAttFindByTypeValueResponseD0Ev
00000000 W _ZN3ble3pal32SimpleAttFindByTypeValueResponseD1Ev
00000000 W _ZN3ble3pal32SimpleAttFindByTypeValueResponseD2Ev
00000000 n _ZN3ble3pal32SimpleAttFindByTypeValueResponseD5Ev
00000000 W _ZN3ble3pal32SimpleAttFindInformationResponseD0Ev
00000000 W _ZN3ble3pal32SimpleAttFindInformationResponseD1Ev
00000000 W _ZN3ble3pal32SimpleAttFindInformationResponseD2Ev
00000000 n _ZN3ble3pal32SimpleAttFindInformationResponseD5Ev
00000000 W _ZN3ble3pal32SimpleAttReadByGroupTypeResponseD0Ev
00000000 W _ZN3ble3pal32SimpleAttReadByGroupTypeResponseD1Ev
00000000 W _ZN3ble3pal32SimpleAttReadByGroupTypeResponseD2Ev
00000000 n _ZN3ble3pal32SimpleAttReadByGroupTypeResponseD5Ev
00000000 W _ZN3ble3pal6vendor6cordio15CordioAttClient10get_clientEv
00000000 W _ZN3ble3pal6vendor6cordio15CordioAttClient13event_handlerINS3_21ReadResponseConverterEEEbPK8attEvt_t
00000000 W _ZN3ble3pal6vendor6cordio15CordioAttClient13event_handlerINS3_22ErrorResponseConverterEEEbPK8attEvt_t
00000000 W _ZN3ble3pal6vendor6cordio15CordioAttClient13event_handlerINS3_22WriteResponseConverterEEEbPK8attEvt_t
00000000 W _ZN3ble3pal6vendor6cordio15CordioAttClient13event_handlerINS3_25ReadBlobResponseConverterEEEbPK8attEvt_t
00000000 W _ZN3ble3pal6vendor6cordio15CordioAttClient13event_handlerINS3_27ReadByTypeResponseConverterEEEbPK8attEvt_t
00000000 W _ZN3ble3pal6vendor6cordio15CordioAttClient13event_handlerINS3_29ExecuteWriteResponseConverterEEEbPK8attEvt_t
00000000 W _ZN3ble3pal6vendor6cordio15CordioAttClient13event_handlerINS3_29PrepareWriteResponseConverterEEEbPK8attEvt_t
00000000 W _ZN3ble3pal6vendor6cordio15CordioAttClient13event_handlerINS3_29ReadMultipleResponseConverterEEEbPK8attEvt_t
00000000 W _ZN3ble3pal6vendor6cordio15CordioAttClient13event_handlerINS3_30HandleValueIndicationConverterEEEbPK8attEvt_t
00000000 W _ZN3ble3pal6vendor6cordio15CordioAttClient13event_handlerINS3_32FindByTypeValueResponseConverterEEEbPK8attEvt_t
00000000 W _ZN3ble3pal6vendor6cordio15CordioAttClient13event_handlerINS3_32FindInformationResponseConverterEEEbPK8attEvt_t
00000000 W _ZN3ble3pal6vendor6cordio15CordioAttClient13event_handlerINS3_32HandleValueNotificationConverterEEEbPK8attEvt_t
00000000 W _ZN3ble3pal6vendor6cordio15CordioAttClient13event_handlerINS3_32ReadBygroupTypeResponseConverterEEEbPK8attEvt_t
00000000 T _ZN3ble3pal6vendor6cordio15CordioAttClient18att_client_handlerEPK8attEvt_t
00000000 W _ZN3ble3pal6vendor6cordio15CordioAttClient21timeout_event_handlerEPK8attEvt_t
00000000 W _ZN3ble3pal6vendor6cordio15CordioAttClientD1Ev
00000000 W _ZN3ble3pal6vendor6cordio15CordioAttClientD2Ev
00000000 n _ZN3ble3pal6vendor6cordio15CordioAttClientD5Ev
00000000 W _ZN3ble3pal9AttClientINS0_6vendor6cordio15CordioAttClientEE15on_server_eventEjRKNS0_16AttServerMessageE
         U _ZN3ble6vendor6cordio10GattServer11getInstanceEv
         U _ZN3ble6vendor6cordio10GattServer6att_cbEPK8attEvt_t
         U _ZN3ble6vendor6cordio3BLE14deviceInstanceEv
         U _ZN3ble6vendor6cordio3BLE16getPalGattClientEv
         U _ZN3ble7generic17GenericGattClientINS_3pal6vendor6cordio16CordioGattClientENS0_22GenericSecurityManagerINS4_21CordioSecurityManagerENS_6vendor6cordio19SigningEventMonitorEEEE18on_att_mtu_change_Ejt
         U _ZN3ble7generic17GenericGattClientINS_3pal6vendor6cordio16CordioGattClientENS0_22GenericSecurityManagerINS4_21CordioSecurityManagerENS_6vendor6cordio19SigningEventMonitorEEEE22on_write_command_sent_Ejth
00000000 W _ZN4mbed4SpanIKhLin1EEC1EPS1_i
00000000 W _ZN4mbed4SpanIKhLin1EEC2EPS1_i
00000000 n _ZN4mbed4SpanIKhLin1EEC5EPS1_i
00000000 W _ZNK3ble3pal27SimpleAttReadByTypeResponse4sizeEv
00000000 W _ZNK3ble3pal27SimpleAttReadByTypeResponseixEj
00000000 W _ZNK3ble3pal32SimpleAttFindByTypeValueResponse4sizeEv
00000000 W _ZNK3ble3pal32SimpleAttFindByTypeValueResponseixEj
00000000 W _ZNK3ble3pal32SimpleAttFindInformationResponse4sizeEv
00000000 W _ZNK3ble3pal32SimpleAttFindInformationResponseixEj
00000000 W _ZNK3ble3pal32SimpleAttReadByGroupTypeResponse4sizeEv
00000000 W _ZNK3ble3pal32SimpleAttReadByGroupTypeResponseixEj
00000000 V _ZTVN3ble3pal27SimpleAttReadByTypeResponseE
00000000 V _ZTVN3ble3pal32SimpleAttFindByTypeValueResponseE
00000000 V _ZTVN3ble3pal32SimpleAttFindInformationResponseE
00000000 V _ZTVN3ble3pal32SimpleAttReadByGroupTypeResponseE
00000000 V _ZZN3ble3pal6vendor6cordio15CordioAttClient10get_clientEvE7_client
00000000 r _ZZN3ble3pal6vendor6cordio15CordioAttClient18att_client_handlerEPK8attEvt_tE8handlers
         U mbed_assert_internal
         U memset

hci_evt.o:
         U BdaCpy
         U hciCb
         U hciCmdRecvCmpl
         U hciCoreConnClose
         U hciCoreConnOpen
         U hciCoreNumCmplPkts
         U hciCoreVsCmdCmplRcvd
00000000 r hciEvtCbackLen
00000000 T hciEvtCmdStatusFailure
00000000 T hciEvtGetStats
00000000 t hciEvtParseAuthTimeoutExpiredEvt
00000000 t hciEvtParseDataLenChange
00000000 t hciEvtParseDisconnectCmpl
00000000 t hciEvtParseEncChange
00000000 t hciEvtParseEncKeyRefreshCmpl
00000000 r hciEvtParseFcnTbl
00000000 t hciEvtParseGenDhKeyCmdCmpl
00000000 t hciEvtParseHwError
00000000 t hciEvtParseLeAddDevToResListCmdCmpl
00000000 t hciEvtParseLeAdvSetTerm
00000000 t hciEvtParseLeChSelAlgo
00000000 t hciEvtParseLeClearResListCmdCmpl
00000000 t hciEvtParseLeCmdCmpl
00000000 t hciEvtParseLeConnCmpl
00000000 t hciEvtParseLeConnCteReqEnableCmdCmpl
00000000 t hciEvtParseLeConnCteRspEnableCmdCmpl
00000000 t hciEvtParseLeConnUpdateCmpl
00000000 t hciEvtParseLeCreateConnCancelCmdCmpl
00000000 t hciEvtParseLeCteReqFailed
00000000 t hciEvtParseLeEncryptCmdCmpl
00000000 t hciEvtParseLeEnhancedConnCmpl
00000000 t hciEvtParseLeLtkReq
00000000 t hciEvtParseLeLtkReqNegReplCmdCmpl
00000000 t hciEvtParseLeLtkReqReplCmdCmpl
00000000 t hciEvtParseLePerAdvSetInfoTrsfCmdCmpl
00000000 t hciEvtParseLePerAdvSyncEst
00000000 t hciEvtParseLePerAdvSyncLost
00000000 t hciEvtParseLePerAdvSyncTrsfCmdCmpl
00000000 t hciEvtParseLePerSyncTrsfRcvd
00000000 t hciEvtParseLeRandCmdCmpl
00000000 t hciEvtParseLeReadAntennaInfoCmdCmpl
00000000 t hciEvtParseLeReadLocalResAddrCmdCmpl
00000000 t hciEvtParseLeReadPeerResAddrCmdCmpl
00000000 t hciEvtParseLeRemDevFromResListCmdCmpl
00000000 t hciEvtParseLeScanReqRcvd
00000000 t hciEvtParseLeScanTimeout
00000000 t hciEvtParseLeSetAddrResEnableCmdCmpl
00000000 t hciEvtParseLeSetConnCteRxParamsCmdCmpl
00000000 t hciEvtParseLeSetConnCteTxParamsCmdCmpl
00000000 t hciEvtParsePhyUpdateCmpl
00000000 t hciEvtParseReadChanMapCmdCmpl
00000000 t hciEvtParseReadDefDataLenCmdCmpl
00000000 t hciEvtParseReadLeRemoteFeatCmpl
00000000 t hciEvtParseReadMaxDataLenCmdCmpl
00000000 t hciEvtParseReadPhyCmdCmpl
00000000 t hciEvtParseReadPubKeyCmdCmpl
00000000 t hciEvtParseReadRemoteVerInfoCmpl
00000000 t hciEvtParseReadRssiCmdCmpl
00000000 t hciEvtParseReadTxPwrLvlCmdCmpl
00000000 t hciEvtParseRemConnParamNegRepCmdCmpl
00000000 t hciEvtParseRemConnParamRepCmdCmpl
00000000 t hciEvtParseRemConnParamReq
00000000 t hciEvtParseSetDataLenCmdCmpl
00000000 t hciEvtParseSetDefPhyCmdCmpl
00000000 t hciEvtParseVendorSpec
00000000 t hciEvtParseVendorSpecCmdCmpl
00000000 t hciEvtParseVendorSpecCmdStatus
00000000 t hciEvtParseWriteAuthTimeoutCmdCmpl
00000000 t hciEvtParseWriteDefDataLenCmdCmpl
00000000 T hciEvtProcessCmdCmpl
00000000 T hciEvtProcessCmdStatus
00000000 T hciEvtProcessMsg
00000000 b hciEvtStats
         U memcpy
         U WsfBufAlloc
         U WsfBufFree

sec_cmac_hci.o:
         U Calc128Cpy
         U Calc128Xor
         U memcpy
         U memset
         U secCb
00000000 T SecCmac
00000000 T SecCmacHciCback
00000000 T SecCmacInit
00000000 t secCmacKeyShift.constprop.0
00000000 t secCmacProcessBlock
         U SecLeEncryptCmd
         U WsfMsgAlloc
         U WsfMsgSend

sec_ccm_hci.o:
         U Calc128Cpy
         U Calc128Xor
         U memcmp
         U memcpy
         U memset
         U secCb
00000000 t secCcmBlockEncrypt
00000000 T SecCcmDec
00000000 T SecCcmEnc
00000000 t secCcmGenS1
00000000 t secCcmGenX0
00000000 T SecCcmHciCback
00000000 T SecCcmInit
         U SecLeEncryptCmd
         U WsfMsgAlloc
         U WsfMsgSend

sec_main.o:
         U HciLeEncryptCmd
         U HciLeRandCmd
         U HciSecRegister
00000050 C secCb
00000000 t secHciCback
00000000 T SecInit
00000000 T SecLeEncryptCmd
00000000 T SecRand
00000000 T SecRandInit
         U WsfMsgDeq
         U WsfMsgEnq
         U WStrReverse
         U WStrReverseCpy

att_uuid.o:
00000000 R attAcbmChUuid
00000000 R attAcChUuid
00000000 R attAggFmtUuid
00000000 R attAlChUuid
00000000 R attAncpChUuid
00000000 R attAnsSvcUuid
00000000 R attApChUuid
00000000 R attAsChUuid
00000000 R attBasSvcUuid
00000000 R attBlChUuid
00000000 R attBlsChUuid
00000000 R attBpfChUuid
00000000 R attBpmChUuid
00000000 R attBpsChUuid
00000000 R attBpsSvcUuid
00000000 R attBslChUuid
00000000 R attCarChUuid
00000000 R attChExtUuid
00000000 R attChPresFmtUuid
00000000 R attChUserDescUuid
00000000 R attChUuid
00000000 R attCliChCfgUuid
00000000 R attCpfChUuid
00000000 R attCpmChUuid
00000000 R attCsfChUuid
00000000 R attCsmChUuid
00000000 R attCtChUuid
00000000 R attCteEnChUuid
00000000 R attCteIntChUuid
00000000 R attCteMinLenChUuid
00000000 R attCtePhyChUuid
00000000 R attCteSvcUuid
00000000 R attCteTxCntChUuid
00000000 R attCteTxDurChUuid
00000000 R attCtsSvcUuid
00000000 R attDbciChUuid
00000000 R attDdtChUuid
00000000 R attDisSvcUuid
00000000 R attDnChUuid
00000000 R attDstoChUuid
00000000 R attDtChUuid
00000000 R attDwChUuid
00000000 R attElChUuid
00000000 R attEt100ChUuid
00000000 R attEt256ChUuid
00000000 R attFrsChUuid
00000000 R attGapSvcUuid
00000000 R attGattCsfChUuid
00000000 R attGattDbhChUuid
00000000 R attGattSvcUuid
00000000 R attGlfChUuid
00000000 R attGlmcChUuid
00000000 R attGlmChUuid
00000000 R attGlsSvcUuid
00000000 R attHbmiChUuid
00000000 R attHidBkiChUuid
00000000 R attHidBkoChUuid
00000000 R attHidBmiChUuid
00000000 R attHidcpChUuid
00000000 R attHidErmUuid
00000000 R attHidiChUuid
00000000 R attHidPmChUuid
00000000 R attHidRepChUuid
00000000 R attHidRimUuid
00000000 R attHidRmChUuid
00000000 R attHidSvcUuid
00000000 R attHrcpChUuid
00000000 R attHrmChUuid
00000000 R attHrsChUuid
00000000 R attHrsSvcUuid
00000000 R attHtsSvcUuid
00000000 R attIasSvcUuid
00000000 R attIcpChUuid
00000000 R attIeeeChUuid
00000000 R attIncUuid
00000000 R attItChUuid
00000000 R attLatChUuid
00000000 R attLlsSvcUuid
00000000 R attLongChUuid
00000000 R attLtiChUuid
00000000 R attMfnsChUuid
00000000 R attMnsChUuid
00000000 R attMprvDinChUuid
00000000 R attMprvDoutChUuid
00000000 R attMprvSvcUuid
00000000 R attMprxDinChUuid
00000000 R attMprxDoutChUuid
00000000 R attMprxSvcUuid
00000000 R attNaChUuid
00000000 R attNdcsSvcUuid
00000000 R attNwaChUuid
00000000 R attNwaSvcUuid
00000000 R attP2dChUuid
00000000 R attP3dChUuid
00000000 R attPassSvcUuid
00000000 R attPlxcmChUuid
00000000 R attPlxfChUuid
00000000 R attPlxscmChUuid
00000000 R attPlxsSvcUuid
00000000 R attPnpChUuid
00000000 R attPpcpChUuid
00000000 R attPpfChUuid
00000000 R attPrimSvcUuid
00000000 R attRaChUuid
00000000 R attRacpChUuid
00000000 R attRcpChUuid
00000000 R attRemChUuid
00000000 R attRpaoChUuid
00000000 R attRsChUuid
00000000 R attRsfChUuid
00000000 R attRsmChUuid
00000000 R attRtiChUuid
00000000 R attRtusSvcUuid
00000000 R attScChUuid
00000000 R attSecSvcUuid
00000000 R attSidChUuid
00000000 R attSiwChUuid
00000000 R attSlChUuid
00000000 R attSnacChUuid
00000000 R attSnsChUuid
00000000 R attSpsSvcUuid
00000000 R attSrChUuid
00000000 R attSrsChUuid
00000000 R attSrvChCfgUuid
00000000 R attStcChUuid
00000000 R attStrChUuid
00000000 R attStzChUuid
00000000 R attSuacChUuid
00000000 R attTaChUuid
00000000 R attTbChUuid
00000000 R attTcelChUuid
00000000 R attTdstChUuid
00000000 R attTfahChUuid
00000000 R attTmChUuid
00000000 R attTpsSvcUuid
00000000 R attTsChUuid
00000000 R attTtChUuid
00000000 R attTucpChUuid
00000000 R attTusChUuid
00000000 R attTxpChUuid
00000000 R attTzChUuid
00000000 R attUasChUuid
00000000 R attUcpChUuid
00000000 R attUdsSvcUuid
00000000 R attUiChUuid
00000000 R attValRangeUuid
00000000 R attVidChUuid
00000000 R attWdsSvcUuid
00000000 R attWmChUuid
00000000 R attWsfChUuid
00000000 R attWssSvcUuid

sec_ccm.o:

sec_ecc_hci.o:
         U HciLeGenerateDHKey
         U HciLeReadLocalP256PubKey
         U secCb
00000000 T SecEccGenKey
00000000 T SecEccGenSharedSecret
00000000 T SecEccHciCback
00000000 T SecEccInit
         U WsfMsgAlloc
         U WsfMsgEnq
         U WsfMsgSend
         U WStrReverseCpy

att_main.o:
00000000 d attBaseUuid
00000080 C attCb
00000000 T attCcbByConnId
00000000 T attCcbByHandle
00000000 T AttConnRegister
00000000 t attDmConnCback
00000000 T attEmptyConnCback
00000000 T attEmptyDataCback
00000000 T attEmptyHandler
00000000 T attExecCallback
00000000 R attFcnDefault
00000000 T AttGetMtu
00000000 T AttHandler
00000000 T AttHandlerInit
00000000 t attL2cCtrlCback
00000000 t attL2cDataCback
00000000 T attMsgAlloc
00000000 T AttMsgAlloc
00000000 T AttMsgFree
00000000 T AttRegister
00000000 T attSetMtu
00000000 T attUuidCmp16to128
         U DmConnIdByHandle
         U DmConnRegister
         U HciGetMaxRxAclLen
         U L2cRegister
         U memcmp
         U pAttCfg
         U WsfBufFree
         U WsfMsgDataAlloc
         U WsfMsgFree

CordioBLE.o:
         U __aeabi_atexit
         U __aeabi_uldivmod
         U __cxa_guard_acquire
         U __cxa_guard_release
         U __dso_handle
00000000 t _GLOBAL__sub_I_stack_handler_id
00000000 T _Z17createBLEInstancev
00000000 W _Z25ble_cordio_get_hci_driverv
         U _ZdlPvj
00000000 V _ZGVZN3ble3pal6vendor6cordio15CordioAttClient10get_clientEvE7_client
00000000 b _ZGVZN3ble6vendor6cordio3BLE12waitForEventEvE11nextTimeout
00000000 b _ZGVZN3ble6vendor6cordio3BLE13getGattClientEvE11gatt_client
00000000 b _ZGVZN3ble6vendor6cordio3BLE14callDispatcherEvE11nextTimeout
00000000 b _ZGVZN3ble6vendor6cordio3BLE14deviceInstanceEvE8instance
00000000 b _ZGVZN3ble6vendor6cordio3BLE16getPalGattClientEvE10pal_client
00000000 b _ZGVZN3ble6vendor6cordio3BLE18getSecurityManagerEvE10m_instance
00000000 b _ZGVZN3ble6vendor6cordio3BLE6getGapEvE18cordio_gap_service
00000000 b _ZGVZN3ble6vendor6cordio3BLE6getGapEvE3gap
         U _ZN15BLEInstanceBase21signalEventsToProcessEj
         U _ZN15BLEInstanceBaseD2Ev
00000000 W _ZN26FunctionPointerWithContextIPN3BLE37InitializationCompleteCallbackContextEE14functioncallerEPKS3_S2_
00000000 W _ZN38CallChainOfFunctionPointersWithContextIPK21GattHVXCallbackParamsED0Ev
00000000 W _ZN38CallChainOfFunctionPointersWithContextIPK21GattHVXCallbackParamsED1Ev
00000000 W _ZN38CallChainOfFunctionPointersWithContextIPK21GattHVXCallbackParamsED2Ev
00000000 n _ZN38CallChainOfFunctionPointersWithContextIPK21GattHVXCallbackParamsED5Ev
00000000 W _ZN38CallChainOfFunctionPointersWithContextIPK22GattReadCallbackParamsED0Ev
00000000 W _ZN38CallChainOfFunctionPointersWithContextIPK22GattReadCallbackParamsED1Ev
00000000 W _ZN38CallChainOfFunctionPointersWithContextIPK22GattReadCallbackParamsED2Ev
00000000 n _ZN38CallChainOfFunctionPointersWithContextIPK22GattReadCallbackParamsED5Ev
00000000 W _ZN38CallChainOfFunctionPointersWithContextIPK23GattWriteCallbackParamsED0Ev
00000000 W _ZN38CallChainOfFunctionPointersWithContextIPK23GattWriteCallbackParamsED1Ev
00000000 W _ZN38CallChainOfFunctionPointersWithContextIPK23GattWriteCallbackParamsED2Ev
00000000 n _ZN38CallChainOfFunctionPointersWithContextIPK23GattWriteCallbackParamsED5Ev
00000000 W _ZN38CallChainOfFunctionPointersWithContextIPKN3ble9interface10GattClientINS0_7generic17GenericGattClientINS0_3pal6vendor6cordio16CordioGattClientENS3_22GenericSecurityManagerINS7_21CordioSecurityManagerENS0_6vendor6cordio19SigningEventMonitorEEEEEEEED0Ev
00000000 W _ZN38CallChainOfFunctionPointersWithContextIPKN3ble9interface10GattClientINS0_7generic17GenericGattClientINS0_3pal6vendor6cordio16CordioGattClientENS3_22GenericSecurityManagerINS7_21CordioSecurityManagerENS0_6vendor6cordio19SigningEventMonitorEEEEEEEED1Ev
00000000 W _ZN38CallChainOfFunctionPointersWithContextIPKN3ble9interface10GattClientINS0_7generic17GenericGattClientINS0_3pal6vendor6cordio16CordioGattClientENS3_22GenericSecurityManagerINS7_21CordioSecurityManagerENS0_6vendor6cordio19SigningEventMonitorEEEEEEEED2Ev
00000000 n _ZN38CallChainOfFunctionPointersWithContextIPKN3ble9interface10GattClientINS0_7generic17GenericGattClientINS0_3pal6vendor6cordio16CordioGattClientENS3_22GenericSecurityManagerINS7_21CordioSecurityManagerENS0_6vendor6cordio19SigningEventMonitorEEEEEEEED5Ev
00000000 W _ZN38CallChainOfFunctionPointersWithContextIPKN3ble9interface15SecurityManagerINS0_7generic22GenericSecurityManagerINS0_3pal6vendor6cordio21CordioSecurityManagerENS0_6vendor6cordio19SigningEventMonitorEEEEEED0Ev
00000000 W _ZN38CallChainOfFunctionPointersWithContextIPKN3ble9interface15SecurityManagerINS0_7generic22GenericSecurityManagerINS0_3pal6vendor6cordio21CordioSecurityManagerENS0_6vendor6cordio19SigningEventMonitorEEEEEED1Ev
00000000 W _ZN38CallChainOfFunctionPointersWithContextIPKN3ble9interface15SecurityManagerINS0_7generic22GenericSecurityManagerINS0_3pal6vendor6cordio21CordioSecurityManagerENS0_6vendor6cordio19SigningEventMonitorEEEEEED2Ev
00000000 n _ZN38CallChainOfFunctionPointersWithContextIPKN3ble9interface15SecurityManagerINS0_7generic22GenericSecurityManagerINS0_3pal6vendor6cordio21CordioSecurityManagerENS0_6vendor6cordio19SigningEventMonitorEEEEEED5Ev
00000000 W _ZN3ble12byte_array_tILj16EEC1Ev
00000000 W _ZN3ble12byte_array_tILj16EEC2Ev
00000000 n _ZN3ble12byte_array_tILj16EEC5Ev
00000000 W _ZN3ble3pal10GattClientINS0_28AttClientToGattClientAdapterINS0_6vendor6cordio15CordioAttClientENS_7generic17GenericGattClientINS4_16CordioGattClientENS6_22GenericSecurityManagerINS4_21CordioSecurityManagerENS_6vendor6cordio19SigningEventMonitorEEEEEEESF_E15on_server_eventEjRKNS0_16AttServerMessageE
00000000 W _ZN3ble3pal10GattClientINS0_28AttClientToGattClientAdapterINS0_6vendor6cordio15CordioAttClientENS_7generic17GenericGattClientINS4_16CordioGattClientENS6_22GenericSecurityManagerINS4_21CordioSecurityManagerENS_6vendor6cordio19SigningEventMonitorEEEEEEESF_E22on_transaction_timeoutEj
00000000 W _ZN3ble3pal28AttClientToGattClientAdapterINS0_6vendor6cordio15CordioAttClientENS_7generic17GenericGattClientINS3_16CordioGattClientENS5_22GenericSecurityManagerINS3_21CordioSecurityManagerENS_6vendor6cordio19SigningEventMonitorEEEEEEC1ERS4_
00000000 W _ZN3ble3pal28AttClientToGattClientAdapterINS0_6vendor6cordio15CordioAttClientENS_7generic17GenericGattClientINS3_16CordioGattClientENS5_22GenericSecurityManagerINS3_21CordioSecurityManagerENS_6vendor6cordio19SigningEventMonitorEEEEEEC2ERS4_
00000000 n _ZN3ble3pal28AttClientToGattClientAdapterINS0_6vendor6cordio15CordioAttClientENS_7generic17GenericGattClientINS3_16CordioGattClientENS5_22GenericSecurityManagerINS3_21CordioSecurityManagerENS_6vendor6cordio19SigningEventMonitorEEEEEEC5ERS4_
         U _ZN3ble3pal6vendor6cordio15CordioAttClient18att_client_handlerEPK8attEvt_t
00000000 W _ZN3ble3pal6vendor6cordio15CordioAttClientD1Ev
00000000 W _ZN3ble3pal6vendor6cordio15CordioAttClientD2Ev
00000000 n _ZN3ble3pal6vendor6cordio15CordioAttClientD5Ev
00000000 W _ZN3ble3pal6vendor6cordio16CordioGattClientINS_7generic17GenericGattClientIS3_NS4_22GenericSecurityManagerINS2_21CordioSecurityManagerENS_6vendor6cordio19SigningEventMonitorEEEEEED1Ev
00000000 W _ZN3ble3pal6vendor6cordio16CordioGattClientINS_7generic17GenericGattClientIS3_NS4_22GenericSecurityManagerINS2_21CordioSecurityManagerENS_6vendor6cordio19SigningEventMonitorEEEEEED2Ev
00000000 n _ZN3ble3pal6vendor6cordio16CordioGattClientINS_7generic17GenericGattClientIS3_NS4_22GenericSecurityManagerINS2_21CordioSecurityManagerENS_6vendor6cordio19SigningEventMonitorEEEEEED5Ev
00000000 W _ZN3ble3pal6vendor6cordio20GenericAccessService14get_appearanceERN18GapAdvertisingData12Appearance_tE
00000000 W _ZN3ble3pal6vendor6cordio20GenericAccessService14set_appearanceEN18GapAdvertisingData12Appearance_tE
00000000 W _ZN3ble3pal6vendor6cordio20GenericAccessService15get_device_nameERN4mbed4SpanIhLin1EEE
00000000 W _ZN3ble3pal6vendor6cordio20GenericAccessService15set_device_nameEPKh
00000000 W _ZN3ble3pal6vendor6cordio20GenericAccessService22get_device_name_lengthERh
00000000 W _ZN3ble3pal6vendor6cordio20GenericAccessService45get_peripheral_prefered_connection_parametersERNS_9interface9LegacyGapINS_7generic10GenericGapINS2_3GapENS0_15SecurityManagerINS2_21CordioSecurityManagerINS6_22GenericSecurityManagerISA_NS_6vendor6cordio19SigningEventMonitorEEEEESF_EESF_EEE18ConnectionParams_tE
00000000 W _ZN3ble3pal6vendor6cordio20GenericAccessService45set_peripheral_prefered_connection_parametersERKNS_9interface9LegacyGapINS_7generic10GenericGapINS2_3GapENS0_15SecurityManagerINS2_21CordioSecurityManagerINS6_22GenericSecurityManagerISA_NS_6vendor6cordio19SigningEventMonitorEEEEESF_EESF_EEE18ConnectionParams_tE
00000000 W _ZN3ble3pal6vendor6cordio20GenericAccessServiceD0Ev
00000000 W _ZN3ble3pal6vendor6cordio20GenericAccessServiceD1Ev
00000000 W _ZN3ble3pal6vendor6cordio20GenericAccessServiceD2Ev
00000000 n _ZN3ble3pal6vendor6cordio20GenericAccessServiceD5Ev
         U _ZN3ble3pal6vendor6cordio21CordioSecurityManagerINS_7generic22GenericSecurityManagerIS3_NS_6vendor6cordio19SigningEventMonitorEEEE10sm_handlerEPK11wsfMsgHdr_t
         U _ZN3ble3pal6vendor6cordio21CordioSecurityManagerINS_7generic22GenericSecurityManagerIS3_NS_6vendor6cordio19SigningEventMonitorEEEE20get_security_managerEv
         U _ZN3ble3pal6vendor6cordio3GapINS_7generic10GenericGapIS3_NS0_15SecurityManagerINS2_21CordioSecurityManagerINS4_22GenericSecurityManagerIS7_NS_6vendor6cordio19SigningEventMonitorEEEEESC_EESC_EEE11gap_handlerEPK11wsfMsgHdr_t
         U _ZN3ble3pal6vendor6cordio3GapINS_7generic10GenericGapIS3_NS0_15SecurityManagerINS2_21CordioSecurityManagerINS4_22GenericSecurityManagerIS7_NS_6vendor6cordio19SigningEventMonitorEEEEESC_EESC_EEE7get_gapEv
         U _ZN3ble6vendor6cordio10GattServer10initializeEv
         U _ZN3ble6vendor6cordio10GattServer11getInstanceEv
         U _ZN3ble6vendor6cordio10GattServer12atts_auth_cbEhht
         U _ZN3ble6vendor6cordio10GattServer13getAppearanceEv
         U _ZN3ble6vendor6cordio10GattServer13getDeviceNameERPKhRt
         U _ZN3ble6vendor6cordio10GattServer13setAppearanceEN18GapAdvertisingData12Appearance_tE
         U _ZN3ble6vendor6cordio10GattServer13setDeviceNameEPKh
         U _ZN3ble6vendor6cordio10GattServer28getPreferredConnectionParamsEv
         U _ZN3ble6vendor6cordio10GattServer28setPreferredConnectionParamsERKNS_9interface9LegacyGapINS_7generic10GenericGapINS_3pal6vendor6cordio3GapENS7_15SecurityManagerINS9_21CordioSecurityManagerINS5_22GenericSecurityManagerISC_NS1_19SigningEventMonitorEEEEESF_EESF_EEE18ConnectionParams_tE
         U _ZN3ble6vendor6cordio15CordioHCIDriver10initializeEv
         U _ZN3ble6vendor6cordio15CordioHCIDriver5writeEhtPh
         U _ZN3ble6vendor6cordio15CordioHCIDriver9terminateEv
00000000 W _ZN3ble6vendor6cordio16SimpleEventQueue4postERKN4mbed8CallbackIFvvEEE
00000000 t _ZN3ble6vendor6cordio16SimpleEventQueue5clearEv.isra.5
00000000 T _ZN3ble6vendor6cordio19SigningEventMonitorINS_7generic22GenericSecurityManagerINS_3pal6vendor6cordio21CordioSecurityManagerES2_EEE26set_signing_event_handler_EPS9_
00000000 T _ZN3ble6vendor6cordio3BLE10getVersionEv
00000000 B _ZN3ble6vendor6cordio3BLE11_hci_driverE
00000000 T _ZN3ble6vendor6cordio3BLE11stack_setupEv
00000000 T _ZN3ble6vendor6cordio3BLE12waitForEventEv
00000000 T _ZN3ble6vendor6cordio3BLE13getGattClientEv
00000000 T _ZN3ble6vendor6cordio3BLE13getGattServerEv
00000000 T _ZN3ble6vendor6cordio3BLE13processEventsEv
00000000 T _ZN3ble6vendor6cordio3BLE13stack_handlerEtP11wsfMsgHdr_t
00000000 B _ZN3ble6vendor6cordio3BLE14_init_callbackE
00000000 T _ZN3ble6vendor6cordio3BLE14callDispatcherEv
00000000 T _ZN3ble6vendor6cordio3BLE14deviceInstanceEv
00000000 T _ZN3ble6vendor6cordio3BLE15timeoutCallbackEv
00000000 T _ZN3ble6vendor6cordio3BLE16getPalGattClientEv
00000000 T _ZN3ble6vendor6cordio3BLE17device_manager_cbEP7dmEvt_t
00000000 T _ZN3ble6vendor6cordio3BLE17start_stack_resetEv
00000000 T _ZN3ble6vendor6cordio3BLE18connection_handlerEP7dmEvt_t
00000000 T _ZN3ble6vendor6cordio3BLE18getSecurityManagerEv
00000000 T _ZN3ble6vendor6cordio3BLE4initEj26FunctionPointerWithContextIPN3BLE37InitializationCompleteCallbackContextEE
00000000 T _ZN3ble6vendor6cordio3BLE6getGapEv
00000000 T _ZN3ble6vendor6cordio3BLE8shutdownEv
00000000 T _ZN3ble6vendor6cordio3BLEC1ERNS1_15CordioHCIDriverE
00000000 T _ZN3ble6vendor6cordio3BLEC2ERNS1_15CordioHCIDriverE
00000000 T _ZN3ble6vendor6cordio3BLED0Ev
00000000 T _ZN3ble6vendor6cordio3BLED1Ev
00000000 T _ZN3ble6vendor6cordio3BLED2Ev
         U _ZN3ble7generic10GenericGapINS_3pal6vendor6cordio3GapENS2_15SecurityManagerINS4_21CordioSecurityManagerINS0_22GenericSecurityManagerIS7_NS_6vendor6cordio19SigningEventMonitorEEEEESC_EESC_E22on_data_length_change_Ejtt
         U _ZN3ble7generic10GenericGapINS_3pal6vendor6cordio3GapENS2_15SecurityManagerINS4_21CordioSecurityManagerINS0_22GenericSecurityManagerIS7_NS_6vendor6cordio19SigningEventMonitorEEEEESC_EESC_EC1ERNS2_10EventQueueERNS5_ISF_EERNS2_20GenericAccessServiceERSE_
         U _ZN3ble7generic10GenericGapINS_3pal6vendor6cordio3GapENS2_15SecurityManagerINS4_21CordioSecurityManagerINS0_22GenericSecurityManagerIS7_NS_6vendor6cordio19SigningEventMonitorEEEEESC_EESC_ED1Ev
         U _ZN3ble7generic17GenericGattClientINS_3pal6vendor6cordio16CordioGattClientENS0_22GenericSecurityManagerINS4_21CordioSecurityManagerENS_6vendor6cordio19SigningEventMonitorEEEE26set_signing_event_handler_EPSB_
         U _ZN3ble7generic17GenericGattClientINS_3pal6vendor6cordio16CordioGattClientENS0_22GenericSecurityManagerINS4_21CordioSecurityManagerENS_6vendor6cordio19SigningEventMonitorEEEEC1EPNS5_ISC_EE
00000000 W _ZN3ble7generic17GenericGattClientINS_3pal6vendor6cordio16CordioGattClientENS0_22GenericSecurityManagerINS4_21CordioSecurityManagerENS_6vendor6cordio19SigningEventMonitorEEEED1Ev
00000000 W _ZN3ble7generic17GenericGattClientINS_3pal6vendor6cordio16CordioGattClientENS0_22GenericSecurityManagerINS4_21CordioSecurityManagerENS_6vendor6cordio19SigningEventMonitorEEEED2Ev
00000000 n _ZN3ble7generic17GenericGattClientINS_3pal6vendor6cordio16CordioGattClientENS0_22GenericSecurityManagerINS4_21CordioSecurityManagerENS_6vendor6cordio19SigningEventMonitorEEEED5Ev
         U _ZN3ble7generic22GenericSecurityManagerINS_3pal6vendor6cordio21CordioSecurityManagerENS_6vendor6cordio19SigningEventMonitorEE14ControlBlock_tC1Ev
00000000 W _ZN3ble7generic22GenericSecurityManagerINS_3pal6vendor6cordio21CordioSecurityManagerENS_6vendor6cordio19SigningEventMonitorEED1Ev
00000000 W _ZN3ble7generic22GenericSecurityManagerINS_3pal6vendor6cordio21CordioSecurityManagerENS_6vendor6cordio19SigningEventMonitorEED2Ev
00000000 n _ZN3ble7generic22GenericSecurityManagerINS_3pal6vendor6cordio21CordioSecurityManagerENS_6vendor6cordio19SigningEventMonitorEED5Ev
         U _ZN3BLE8InstanceEj
00000000 W _ZN3ble9address_tC1Ev
00000000 W _ZN3ble9address_tC2Ev
00000000 n _ZN3ble9address_tC5Ev
         U _ZN3ble9interface10GattClientINS_7generic17GenericGattClientINS_3pal6vendor6cordio16CordioGattClientENS2_22GenericSecurityManagerINS6_21CordioSecurityManagerENS_6vendor6cordio19SigningEventMonitorEEEEEE5resetEv
         U _ZN3ble9interface10GattServerINS_6vendor6cordio10GattServerEE5resetEv
00000000 W _ZN3ble9interface15SecurityManagerINS_7generic22GenericSecurityManagerINS_3pal6vendor6cordio21CordioSecurityManagerENS_6vendor6cordio19SigningEventMonitorEEEE12EventHandler10signingKeyEjPKNS_12byte_array_tILj16EEEb
00000000 W _ZN3ble9interface15SecurityManagerINS_7generic22GenericSecurityManagerINS_3pal6vendor6cordio21CordioSecurityManagerENS_6vendor6cordio19SigningEventMonitorEEEE12EventHandler12oobGeneratedEPKNS_9address_tEPKNS_12byte_array_tILj16EEESK_
00000000 W _ZN3ble9interface15SecurityManagerINS_7generic22GenericSecurityManagerINS_3pal6vendor6cordio21CordioSecurityManagerENS_6vendor6cordio19SigningEventMonitorEEEE12EventHandler14pairingRequestEj
00000000 W _ZN3ble9interface15SecurityManagerINS_7generic22GenericSecurityManagerINS_3pal6vendor6cordio21CordioSecurityManagerENS_6vendor6cordio19SigningEventMonitorEEEE12EventHandler14passkeyRequestEj
00000000 W _ZN3ble9interface15SecurityManagerINS_7generic22GenericSecurityManagerINS_3pal6vendor6cordio21CordioSecurityManagerENS_6vendor6cordio19SigningEventMonitorEEEE12EventHandler19confirmationRequestEj
00000000 W _ZN3ble9interface15SecurityManagerINS_7generic22GenericSecurityManagerINS_3pal6vendor6cordio21CordioSecurityManagerENS_6vendor6cordio19SigningEventMonitorEEEE12EventHandler20keypressNotificationEjNSC_10Keypress_tE
00000000 W _ZN3ble9interface15SecurityManagerINS_7generic22GenericSecurityManagerINS_3pal6vendor6cordio21CordioSecurityManagerENS_6vendor6cordio19SigningEventMonitorEEEE12EventHandler22whitelistFromBondTableEPNS0_9LegacyGapINS2_10GenericGapINS6_3GapENS4_15SecurityManagerINS7_ISB_EESB_EESB_EEE11Whitelist_tE
00000000 W _ZN3ble9interface15SecurityManagerINS_7generic22GenericSecurityManagerINS_3pal6vendor6cordio21CordioSecurityManagerENS_6vendor6cordio19SigningEventMonitorEEEE12EventHandler23legacyPairingOobRequestEj
00000000 W _ZN3ble9interface15SecurityManagerINS_7generic22GenericSecurityManagerINS_3pal6vendor6cordio21CordioSecurityManagerENS_6vendor6cordio19SigningEventMonitorEEEE12EventHandler25legacyPairingOobGeneratedEPKNS_9address_tEPKNS_12byte_array_tILj16EEE
00000000 W _ZN3ble9interface15SecurityManagerINS_7generic22GenericSecurityManagerINS_3pal6vendor6cordio21CordioSecurityManagerENS_6vendor6cordio19SigningEventMonitorEEEE18LegacyEventHandler13pairingResultEjNSC_26SecurityCompletionStatus_tE
00000000 W _ZN3ble9interface15SecurityManagerINS_7generic22GenericSecurityManagerINS_3pal6vendor6cordio21CordioSecurityManagerENS_6vendor6cordio19SigningEventMonitorEEEE18LegacyEventHandler14passkeyDisplayEjPKh
00000000 W _ZN3ble9interface15SecurityManagerINS_7generic22GenericSecurityManagerINS_3pal6vendor6cordio21CordioSecurityManagerENS_6vendor6cordio19SigningEventMonitorEEEE18LegacyEventHandler20linkEncryptionResultEjNS_17link_encryption_tE
00000000 W _ZN3ble9interface15SecurityManagerINS_7generic22GenericSecurityManagerINS_3pal6vendor6cordio21CordioSecurityManagerENS_6vendor6cordio19SigningEventMonitorEEEE18LegacyEventHandlerD0Ev
00000000 W _ZN3ble9interface15SecurityManagerINS_7generic22GenericSecurityManagerINS_3pal6vendor6cordio21CordioSecurityManagerENS_6vendor6cordio19SigningEventMonitorEEEE18LegacyEventHandlerD1Ev
00000000 W _ZN3ble9interface15SecurityManagerINS_7generic22GenericSecurityManagerINS_3pal6vendor6cordio21CordioSecurityManagerENS_6vendor6cordio19SigningEventMonitorEEEE18LegacyEventHandlerD2Ev
00000000 n _ZN3ble9interface15SecurityManagerINS_7generic22GenericSecurityManagerINS_3pal6vendor6cordio21CordioSecurityManagerENS_6vendor6cordio19SigningEventMonitorEEEE18LegacyEventHandlerD5Ev
         U _ZN3ble9interface9LegacyGapINS_7generic10GenericGapINS_3pal6vendor6cordio3GapENS4_15SecurityManagerINS6_21CordioSecurityManagerINS2_22GenericSecurityManagerIS9_NS_6vendor6cordio19SigningEventMonitorEEEEESE_EESE_EEE5resetEv
         U _ZN4mbed10TimerEventD2Ev
00000000 W _ZN4mbed14LowPowerTickerD0Ev
00000000 W _ZN4mbed14LowPowerTickerD1Ev
00000000 W _ZN4mbed14LowPowerTickerD2Ev
00000000 n _ZN4mbed14LowPowerTickerD5Ev
00000000 W _ZN4mbed15LowPowerTimeout7handlerEv
00000000 W _ZN4mbed15LowPowerTimeoutD0Ev
00000000 W _ZN4mbed15LowPowerTimeoutD1Ev
00000000 W _ZN4mbed15LowPowerTimeoutD2Ev
00000000 n _ZN4mbed15LowPowerTimeoutD5Ev
         U _ZN4mbed19CriticalSectionLock7disableEv
         U _ZN4mbed19CriticalSectionLockC1Ev
         U _ZN4mbed19CriticalSectionLockD1Ev
         U _ZN4mbed5Timer23read_high_resolution_usEv
         U _ZN4mbed5Timer5resetEv
         U _ZN4mbed5Timer5startEv
         U _ZN4mbed5TimerC2EPK13ticker_data_t
         U _ZN4mbed5TimerD2Ev
         U _ZN4mbed6Ticker6detachEv
         U _ZN4mbed6Ticker7handlerEv
         U _ZN4mbed6Ticker9attach_usENS_8CallbackIFvvEEEy
         U _ZN4mbed6TickerC2EPK13ticker_data_t
         U _ZN4mbed6TickerC2Ev
00000000 W _ZN4mbed6TickerD0Ev
00000000 W _ZN4mbed6TickerD1Ev
00000000 W _ZN4mbed6TickerD2Ev
00000000 n _ZN4mbed6TickerD5Ev
00000000 W _ZN4mbed7TimeoutD0Ev
00000000 W _ZN4mbed7TimeoutD1Ev
00000000 W _ZN4mbed7TimeoutD2Ev
00000000 n _ZN4mbed7TimeoutD5Ev
00000000 W _ZN4mbed8CallbackIFvjEE13function_callINS2_14method_contextIN3ble3pal10GattClientINS6_28AttClientToGattClientAdapterINS6_6vendor6cordio15CordioAttClientENS5_7generic17GenericGattClientINSA_16CordioGattClientENSC_22GenericSecurityManagerINSA_21CordioSecurityManagerENS5_6vendor6cordio19SigningEventMonitorEEEEEEESL_EEMSN_FvjEEEEEvPKvj
00000000 W _ZN4mbed8CallbackIFvjEE13function_dtorINS2_14method_contextIN3ble3pal10GattClientINS6_28AttClientToGattClientAdapterINS6_6vendor6cordio15CordioAttClientENS5_7generic17GenericGattClientINSA_16CordioGattClientENSC_22GenericSecurityManagerINSA_21CordioSecurityManagerENS5_6vendor6cordio19SigningEventMonitorEEEEEEESL_EEMSN_FvjEEEEEvPv
00000000 W _ZN4mbed8CallbackIFvjEE13function_moveINS2_14method_contextIN3ble3pal10GattClientINS6_28AttClientToGattClientAdapterINS6_6vendor6cordio15CordioAttClientENS5_7generic17GenericGattClientINSA_16CordioGattClientENSC_22GenericSecurityManagerINSA_21CordioSecurityManagerENS5_6vendor6cordio19SigningEventMonitorEEEEEEESL_EEMSN_FvjEEEEEvPvPKv
00000000 W _ZN4mbed8CallbackIFvjEED1Ev
00000000 W _ZN4mbed8CallbackIFvjEED2Ev
00000000 n _ZN4mbed8CallbackIFvjEED5Ev
00000000 W _ZN4mbed8CallbackIFvjRKN3ble3pal16AttServerMessageEEE13function_callINS7_14method_contextINS2_10GattClientINS2_28AttClientToGattClientAdapterINS2_6vendor6cordio15CordioAttClientENS1_7generic17GenericGattClientINSD_16CordioGattClientENSF_22GenericSecurityManagerINSD_21CordioSecurityManagerENS1_6vendor6cordio19SigningEventMonitorEEEEEEESO_EEMSQ_FvjS5_EEEEEvPKvjS5_
00000000 W _ZN4mbed8CallbackIFvjRKN3ble3pal16AttServerMessageEEE13function_dtorINS7_14method_contextINS2_10GattClientINS2_28AttClientToGattClientAdapterINS2_6vendor6cordio15CordioAttClientENS1_7generic17GenericGattClientINSD_16CordioGattClientENSF_22GenericSecurityManagerINSD_21CordioSecurityManagerENS1_6vendor6cordio19SigningEventMonitorEEEEEEESO_EEMSQ_FvjS5_EEEEEvPv
00000000 W _ZN4mbed8CallbackIFvjRKN3ble3pal16AttServerMessageEEE13function_moveINS7_14method_contextINS2_10GattClientINS2_28AttClientToGattClientAdapterINS2_6vendor6cordio15CordioAttClientENS1_7generic17GenericGattClientINSD_16CordioGattClientENSF_22GenericSecurityManagerINSD_21CordioSecurityManagerENS1_6vendor6cordio19SigningEventMonitorEEEEEEESO_EEMSQ_FvjS5_EEEEEvPvPKv
00000000 W _ZN4mbed8CallbackIFvjRKN3ble3pal16AttServerMessageEEED1Ev
00000000 W _ZN4mbed8CallbackIFvjRKN3ble3pal16AttServerMessageEEED2Ev
00000000 n _ZN4mbed8CallbackIFvjRKN3ble3pal16AttServerMessageEEED5Ev
00000000 W _ZN4mbed8CallbackIFvvEE13function_callIPS1_EEvPKv
00000000 W _ZN4mbed8CallbackIFvvEE13function_dtorIPS1_EEvPv
00000000 W _ZN4mbed8CallbackIFvvEE13function_moveIPS1_EEvPvPKv
00000000 W _ZN4mbed8CallbackIFvvEEC1ERKS2_
00000000 W _ZN4mbed8CallbackIFvvEEC2ERKS2_
00000000 n _ZN4mbed8CallbackIFvvEEC5ERKS2_
00000000 W _ZN4mbed8CallbackIFvvEED1Ev
00000000 W _ZN4mbed8CallbackIFvvEED2Ev
00000000 n _ZN4mbed8CallbackIFvvEED5Ev
00000000 T _ZNK3ble6vendor6cordio3BLE13getGattServerEv
00000000 T _ZNK3ble6vendor6cordio3BLE14hasInitializedEv
00000000 T _ZNK3ble6vendor6cordio3BLE18getSecurityManagerEv
00000000 T _ZNK3ble6vendor6cordio3BLE6getGapEv
00000000 W _ZNK4mbed8CallbackIFvvEE4callEv
00000000 V _ZTV38CallChainOfFunctionPointersWithContextIPK21GattHVXCallbackParamsE
00000000 V _ZTV38CallChainOfFunctionPointersWithContextIPK22GattReadCallbackParamsE
00000000 V _ZTV38CallChainOfFunctionPointersWithContextIPK23GattWriteCallbackParamsE
00000000 V _ZTV38CallChainOfFunctionPointersWithContextIPKN3ble9interface10GattClientINS0_7generic17GenericGattClientINS0_3pal6vendor6cordio16CordioGattClientENS3_22GenericSecurityManagerINS7_21CordioSecurityManagerENS0_6vendor6cordio19SigningEventMonitorEEEEEEEE
00000000 V _ZTV38CallChainOfFunctionPointersWithContextIPKN3ble9interface15SecurityManagerINS0_7generic22GenericSecurityManagerINS0_3pal6vendor6cordio21CordioSecurityManagerENS0_6vendor6cordio19SigningEventMonitorEEEEEE
00000000 V _ZTVN3ble3pal6vendor6cordio20GenericAccessServiceE
00000000 V _ZTVN3ble6vendor6cordio16SimpleEventQueueE
00000000 R _ZTVN3ble6vendor6cordio3BLEE
00000000 V _ZTVN3ble9interface15SecurityManagerINS_7generic22GenericSecurityManagerINS_3pal6vendor6cordio21CordioSecurityManagerENS_6vendor6cordio19SigningEventMonitorEEEE18LegacyEventHandlerE
00000000 V _ZTVN4mbed14LowPowerTickerE
00000000 V _ZTVN4mbed15LowPowerTimeoutE
         U _ZTVN4mbed6TickerE
         U _ZTVN4mbed7TimeoutE
00000000 V _ZZN3ble3pal6vendor6cordio15CordioAttClient10get_clientEvE7_client
00000000 r _ZZN3ble6vendor6cordio3BLE10getVersionEvE7version
00000000 b _ZZN3ble6vendor6cordio3BLE12waitForEventEvE11nextTimeout
00000000 b _ZZN3ble6vendor6cordio3BLE13getGattClientEvE11gatt_client
00000000 b _ZZN3ble6vendor6cordio3BLE14callDispatcherEvE11nextTimeout
00000000 b _ZZN3ble6vendor6cordio3BLE14deviceInstanceEvE8instance
00000000 b _ZZN3ble6vendor6cordio3BLE16getPalGattClientEvE10pal_client
00000000 b _ZZN3ble6vendor6cordio3BLE18getSecurityManagerEvE10m_instance
00000000 b _ZZN3ble6vendor6cordio3BLE18getSecurityManagerEvE21signing_event_monitor
00000000 b _ZZN3ble6vendor6cordio3BLE6getGapEvE18cordio_gap_service
00000000 b _ZZN3ble6vendor6cordio3BLE6getGapEvE3gap
00000000 V _ZZN4mbed8CallbackIFvjEE8generateINS2_14method_contextIN3ble3pal10GattClientINS6_28AttClientToGattClientAdapterINS6_6vendor6cordio15CordioAttClientENS5_7generic17GenericGattClientINSA_16CordioGattClientENSC_22GenericSecurityManagerINSA_21CordioSecurityManagerENS5_6vendor6cordio19SigningEventMonitorEEEEEEESL_EEMSN_FvjEEEEEvRKT_E3ops
00000000 V _ZZN4mbed8CallbackIFvjRKN3ble3pal16AttServerMessageEEE8generateINS7_14method_contextINS2_10GattClientINS2_28AttClientToGattClientAdapterINS2_6vendor6cordio15CordioAttClientENS1_7generic17GenericGattClientINSD_16CordioGattClientENSF_22GenericSecurityManagerINSD_21CordioSecurityManagerENS1_6vendor6cordio19SigningEventMonitorEEEEEEESO_EEMSQ_FvjS5_EEEEEvRKT_E3ops
00000000 V _ZZN4mbed8CallbackIFvvEE8generateIPS1_EEvRKT_E3ops
         U AttcInit
         U AttConnRegister
         U AttcSignInit
         U AttHandler
         U AttHandlerInit
         U AttRegister
         U AttsAuthorRegister
         U AttsCccClearTable
         U AttsCccInitTable
         U AttsIndInit
         U AttsInit
         U AttsSignInit
         U DmAdvInit
         U DmConnInit
         U DmConnMasterInit
         U DmConnRegister
         U DmConnSlaveInit
         U DmDevReset
         U DmExtAdvInit
         U DmExtConnMasterInit
         U DmExtConnSlaveInit
         U DmExtScanInit
         U DmHandler
         U DmHandlerInit
         U DmPhyInit
         U DmPrivInit
         U DmRegister
         U DmScanInit
         U DmSecInit
         U DmSecLescInit
         U get_lp_ticker_data
00000000 T hci_mbed_os_drv_write
00000000 T hci_mbed_os_handle_reset_sequence
00000000 T hci_mbed_os_start_reset_sequence
         U HciGetLeSupFeat
         U HciHandler
         U HciHandlerInit
         U HciSetMaxRxAclLen
         U L2cInit
         U L2cMasterInit
         U L2cSlaveHandler
         U L2cSlaveHandlerInit
         U L2cSlaveInit
         U mbed_assert_internal
         U mbed_warning
         U memcpy
         U memset
         U printf
         U SecAesInit
         U SecCmacInit
         U SecEccInit
         U SecInit
         U SecRandInit
         U SmpHandler
         U SmpHandlerInit
         U SmpiInit
         U SmpiScInit
         U SmprInit
         U SmprScInit
00000000 B stack_handler_id
00000000 B SystemHeapSize
00000000 B SystemHeapStart
00000000 W wsf_mbed_ble_signal_event
         U WsfBufAlloc
         U WsfBufFree
         U WsfBufInit
         U wsfOsDispatcher
         U wsfOsReadyToSleep
         U WsfOsSetNextHandler
         U WsfTimerInit
         U WsfTimerNextExpiration
         U WsfTimerUpdate

attc_disc.o:
00000000 T AttcDiscCharCmpl
00000000 T AttcDiscCharStart
00000000 T AttcDiscConfigCmpl
00000000 t attcDiscConfigNext
00000000 T AttcDiscConfigResume
00000000 T AttcDiscConfigStart
00000000 t attcDiscDescriptors
00000000 T AttcDiscService
00000000 T AttcDiscServiceCmpl
         U AttcFindByTypeValueReq
         U AttcFindInfoReq
         U attChUuid
         U AttcReadByTypeReq
         U AttcReadReq
00000000 t attcUuidCmp
         U AttcWriteReq
         U attUuidCmp16to128
         U memcmp
         U memset

attc_read.o:
00000000 T AttcFindByTypeValueReq
00000000 T attcProcFindByTypeRsp
00000000 T attcProcReadLongRsp
00000000 T AttcReadByGroupTypeReq
00000000 T AttcReadByTypeReq
00000000 T AttcReadLongReq
00000000 T AttcReadMultipleReq
         U attcSendMsg
         U attMsgAlloc
         U memcpy

attc_main.o:
         U attCb
000000b0 C attcCb
00000000 T attcCcbByConnId
00000000 T attcCcbByHandle
00000000 t attcConnCback
00000000 t attcCtrlCback
00000000 t attcDataCback
00000000 T attcExecCallback
00000000 r attcFcnIf
00000000 T attcFreePkt
         U AttcIndConfirm
00000000 T AttcInit
00000000 t attcMsgCback
         U AttcMtuReq
         U attcProcInd
         U attcProcRsp
00000000 T attcReqClear
00000000 t attcSendContinuingReq
00000000 t attcSendMtuReq
00000000 t attcSendPrepWriteReq
00000000 T attcSendReq
00000000 r attcSendReqTbl
00000000 t attcSendSimpleReq
00000000 t attcSendWriteCmd
00000000 T AttcSetAutoConfirm
00000000 T attcSetupReq
         U attExecCallback
         U attMsgAlloc
         U DmConnIdByHandle
         U DmConnInUse
         U DmConnRole
         U HciGetMaxRxAclLen
         U L2cDataReq
         U memcpy
         U pAttCfg
         U WsfMsgFree
         U WsfTimerStartSec
         U WsfTimerStop

CordioGattServer.o:
         U __aeabi_atexit
         U __cxa_guard_acquire
         U __cxa_guard_release
         U __dso_handle
00000000 t _GLOBAL__sub_I__ZN3ble6vendor6cordio10GattServer11getInstanceEv
         U _ZdlPvj
00000000 b _ZGVZN3ble6vendor6cordio10GattServer11getInstanceEvE10m_instance
00000000 W _ZN26FunctionPointerWithContextItE14functioncallerEPKS0_t
00000000 W _ZN26FunctionPointerWithContextItEaSERKS0_
00000000 W _ZN26FunctionPointerWithContextItEC1EPFvtE
00000000 W _ZN26FunctionPointerWithContextItEC2EPFvtE
00000000 n _ZN26FunctionPointerWithContextItEC5EPFvtE
00000000 W _ZN38CallChainOfFunctionPointersWithContextIjED0Ev
00000000 W _ZN38CallChainOfFunctionPointersWithContextIjED1Ev
00000000 W _ZN38CallChainOfFunctionPointersWithContextIjED2Ev
00000000 n _ZN38CallChainOfFunctionPointersWithContextIjED5Ev
00000000 W _ZN38CallChainOfFunctionPointersWithContextIPK22GattReadCallbackParamsED0Ev
00000000 W _ZN38CallChainOfFunctionPointersWithContextIPK22GattReadCallbackParamsED1Ev
00000000 W _ZN38CallChainOfFunctionPointersWithContextIPK22GattReadCallbackParamsED2Ev
00000000 n _ZN38CallChainOfFunctionPointersWithContextIPK22GattReadCallbackParamsED5Ev
00000000 W _ZN38CallChainOfFunctionPointersWithContextIPK23GattWriteCallbackParamsED0Ev
00000000 W _ZN38CallChainOfFunctionPointersWithContextIPK23GattWriteCallbackParamsED1Ev
00000000 W _ZN38CallChainOfFunctionPointersWithContextIPK23GattWriteCallbackParamsED2Ev
00000000 n _ZN38CallChainOfFunctionPointersWithContextIPK23GattWriteCallbackParamsED5Ev
00000000 W _ZN38CallChainOfFunctionPointersWithContextIPKN3ble9interface10GattServerINS0_6vendor6cordio10GattServerEEEED0Ev
00000000 W _ZN38CallChainOfFunctionPointersWithContextIPKN3ble9interface10GattServerINS0_6vendor6cordio10GattServerEEEED1Ev
00000000 W _ZN38CallChainOfFunctionPointersWithContextIPKN3ble9interface10GattServerINS0_6vendor6cordio10GattServerEEEED2Ev
00000000 n _ZN38CallChainOfFunctionPointersWithContextIPKN3ble9interface10GattServerINS0_6vendor6cordio10GattServerEEEED5Ev
00000000 T _ZN3ble6vendor6cordio10GattServer10initializeEv
00000000 T _ZN3ble6vendor6cordio10GattServer11addService_ER11GattService
00000000 T _ZN3ble6vendor6cordio10GattServer11alloc_blockEj
00000000 T _ZN3ble6vendor6cordio10GattServer11getInstanceEv
00000000 T _ZN3ble6vendor6cordio10GattServer11insert_cccdEP18GattCharacteristicRP10attsAttr_t
00000000 T _ZN3ble6vendor6cordio10GattServer12atts_auth_cbEhht
00000000 T _ZN3ble6vendor6cordio10GattServer12atts_read_cbEhthtP10attsAttr_t
00000000 T _ZN3ble6vendor6cordio10GattServer13atts_write_cbEhthttPhP10attsAttr_t
00000000 T _ZN3ble6vendor6cordio10GattServer13get_auth_charEt
00000000 T _ZN3ble6vendor6cordio10GattServer13getAppearanceEv
00000000 T _ZN3ble6vendor6cordio10GattServer13getDeviceNameERPKhRt
00000000 T _ZN3ble6vendor6cordio10GattServer13setAppearanceEN18GapAdvertisingData12Appearance_tE
00000000 T _ZN3ble6vendor6cordio10GattServer13setDeviceNameEPKh
00000000 T _ZN3ble6vendor6cordio10GattServer17insert_descriptorEP18GattCharacteristicP13GattAttributeRP10attsAttr_tRb
00000000 T _ZN3ble6vendor6cordio10GattServer18areUpdatesEnabled_EjRK18GattCharacteristicPb
00000000 T _ZN3ble6vendor6cordio10GattServer18areUpdatesEnabled_ERK18GattCharacteristicPb
00000000 T _ZN3ble6vendor6cordio10GattServer20add_default_servicesEv
00000000 T _ZN3ble6vendor6cordio10GattServer20is_update_authorizedEjt
00000000 T _ZN3ble6vendor6cordio10GattServer21insert_characteristicEP18GattCharacteristicRP10attsAttr_t
00000000 T _ZN3ble6vendor6cordio10GattServer23is_characteristic_validEP18GattCharacteristic
00000000 T _ZN3ble6vendor6cordio10GattServer24compute_attributes_countER11GattService
00000000 T _ZN3ble6vendor6cordio10GattServer24insert_service_attributeER11GattServiceRP10attsAttr_t
00000000 T _ZN3ble6vendor6cordio10GattServer26add_generic_access_serviceEv
00000000 T _ZN3ble6vendor6cordio10GattServer28getPreferredConnectionParamsEv
00000000 T _ZN3ble6vendor6cordio10GattServer28setPreferredConnectionParamsERKNS_9interface9LegacyGapINS_7generic10GenericGapINS_3pal6vendor6cordio3GapENS7_15SecurityManagerINS9_21CordioSecurityManagerINS5_22GenericSecurityManagerISC_NS1_19SigningEventMonitorEEEEESF_EESF_EEE18ConnectionParams_tE
00000000 T _ZN3ble6vendor6cordio10GattServer29add_generic_attribute_serviceEv
00000000 T _ZN3ble6vendor6cordio10GattServer37insert_characteristic_value_attributeEP18GattCharacteristicRP10attsAttr_t
00000000 T _ZN3ble6vendor6cordio10GattServer43insert_characteristic_declaration_attributeEP18GattCharacteristicRP10attsAttr_t
00000000 T _ZN3ble6vendor6cordio10GattServer5read_EjtPhPt
00000000 T _ZN3ble6vendor6cordio10GattServer5read_EtPhPt
00000000 T _ZN3ble6vendor6cordio10GattServer6att_cbEPK8attEvt_t
00000000 T _ZN3ble6vendor6cordio10GattServer6reset_Ev
00000000 T _ZN3ble6vendor6cordio10GattServer6write_EjtPKhtb
00000000 T _ZN3ble6vendor6cordio10GattServer6write_EtPKhtb
00000000 T _ZN3ble6vendor6cordio10GattServer7cccd_cbEP12attsCccEvt_t
00000000 T _ZN3ble6vendor6cordio10GattServerC1Ev
00000000 T _ZN3ble6vendor6cordio10GattServerC2Ev
00000000 W _ZN3ble6vendor6cordio10GattServerD1Ev
00000000 W _ZN3ble6vendor6cordio10GattServerD2Ev
00000000 n _ZN3ble6vendor6cordio10GattServerD5Ev
00000000 b _ZN3ble6vendor6cordio12_GLOBAL__N_1L9CCCD_UUIDE
         U _ZN3ble6vendor6cordio3BLE14deviceInstanceEv
         U _ZN3ble7generic22GenericSecurityManagerINS_3pal6vendor6cordio21CordioSecurityManagerENS_6vendor6cordio19SigningEventMonitorEE25on_signed_write_received_Ejm
00000000 W _ZN3ble9interface10GattServerINS_6vendor6cordio10GattServerEE10addServiceER11GattService
00000000 W _ZN3ble9interface10GattServerINS_6vendor6cordio10GattServerEE10onDataReadERK26FunctionPointerWithContextIPK22GattReadCallbackParamsE
00000000 W _ZN3ble9interface10GattServerINS_6vendor6cordio10GattServerEE10onDataReadEv
00000000 W _ZN3ble9interface10GattServerINS_6vendor6cordio10GattServerEE10onDataSentERK26FunctionPointerWithContextIjE
00000000 W _ZN3ble9interface10GattServerINS_6vendor6cordio10GattServerEE10onDataSentEv
00000000 W _ZN3ble9interface10GattServerINS_6vendor6cordio10GattServerEE10onShutdownERK26FunctionPointerWithContextIPKS5_E
00000000 W _ZN3ble9interface10GattServerINS_6vendor6cordio10GattServerEE10onShutdownEv
00000000 W _ZN3ble9interface10GattServerINS_6vendor6cordio10GattServerEE11addService_ER11GattService
00000000 W _ZN3ble9interface10GattServerINS_6vendor6cordio10GattServerEE11handleEventEN16GattServerEvents11gattEvent_eEt
00000000 W _ZN3ble9interface10GattServerINS_6vendor6cordio10GattServerEE12EventHandler14onAttMtuChangeEjt
00000000 W _ZN3ble9interface10GattServerINS_6vendor6cordio10GattServerEE13onDataWrittenERK26FunctionPointerWithContextIPK23GattWriteCallbackParamsE
00000000 W _ZN3ble9interface10GattServerINS_6vendor6cordio10GattServerEE13onDataWrittenEv
00000000 W _ZN3ble9interface10GattServerINS_6vendor6cordio10GattServerEE15setEventHandlerEPNS5_12EventHandlerE
00000000 W _ZN3ble9interface10GattServerINS_6vendor6cordio10GattServerEE16onUpdatesEnabledE26FunctionPointerWithContextItE
00000000 W _ZN3ble9interface10GattServerINS_6vendor6cordio10GattServerEE17areUpdatesEnabledEjRK18GattCharacteristicPb
00000000 W _ZN3ble9interface10GattServerINS_6vendor6cordio10GattServerEE17areUpdatesEnabledERK18GattCharacteristicPb
00000000 W _ZN3ble9interface10GattServerINS_6vendor6cordio10GattServerEE17onUpdatesDisabledE26FunctionPointerWithContextItE
00000000 W _ZN3ble9interface10GattServerINS_6vendor6cordio10GattServerEE18areUpdatesEnabled_EjRK18GattCharacteristicPb
00000000 W _ZN3ble9interface10GattServerINS_6vendor6cordio10GattServerEE18areUpdatesEnabled_ERK18GattCharacteristicPb
00000000 W _ZN3ble9interface10GattServerINS_6vendor6cordio10GattServerEE19handleDataReadEventEPK22GattReadCallbackParams
00000000 W _ZN3ble9interface10GattServerINS_6vendor6cordio10GattServerEE19handleDataSentEventEj
00000000 W _ZN3ble9interface10GattServerINS_6vendor6cordio10GattServerEE22handleDataWrittenEventEPK23GattWriteCallbackParams
00000000 W _ZN3ble9interface10GattServerINS_6vendor6cordio10GattServerEE22onConfirmationReceivedE26FunctionPointerWithContextItE
00000000 W _ZN3ble9interface10GattServerINS_6vendor6cordio10GattServerEE4readEjtPhPt
00000000 W _ZN3ble9interface10GattServerINS_6vendor6cordio10GattServerEE4readEtPhPt
00000000 W _ZN3ble9interface10GattServerINS_6vendor6cordio10GattServerEE5read_EjtPhPt
00000000 W _ZN3ble9interface10GattServerINS_6vendor6cordio10GattServerEE5read_EtPhPt
00000000 W _ZN3ble9interface10GattServerINS_6vendor6cordio10GattServerEE5resetEv
00000000 W _ZN3ble9interface10GattServerINS_6vendor6cordio10GattServerEE5writeEjtPKhtb
00000000 W _ZN3ble9interface10GattServerINS_6vendor6cordio10GattServerEE5writeEtPKhtb
00000000 W _ZN3ble9interface10GattServerINS_6vendor6cordio10GattServerEE6reset_Ev
00000000 W _ZN3ble9interface10GattServerINS_6vendor6cordio10GattServerEE6write_EjtPKhtb
00000000 W _ZN3ble9interface10GattServerINS_6vendor6cordio10GattServerEE6write_EtPKhtb
00000000 W _ZN3ble9interface10GattServerINS_6vendor6cordio10GattServerEEC1Ev
00000000 W _ZN3ble9interface10GattServerINS_6vendor6cordio10GattServerEEC2Ev
00000000 n _ZN3ble9interface10GattServerINS_6vendor6cordio10GattServerEEC5Ev
         U _ZN3ble9interface15SecurityManagerINS_7generic22GenericSecurityManagerINS_3pal6vendor6cordio21CordioSecurityManagerENS_6vendor6cordio19SigningEventMonitorEEEE17getLinkEncryptionEjPNS_17link_encryption_tE
00000000 W _ZN4UUIDC1Et
00000000 W _ZN4UUIDC2Et
00000000 n _ZN4UUIDC5Et
00000000 W _ZNK18GattCharacteristic26isReadAuthorizationEnabledEv
00000000 W _ZNK18GattCharacteristic27isWriteAuthorizationEnabledEv
00000000 W _ZNK26FunctionPointerWithContextItE4callEt
00000000 W _ZNK38CallChainOfFunctionPointersWithContextIjE4callEj
00000000 W _ZNK38CallChainOfFunctionPointersWithContextIPK22GattReadCallbackParamsE4callES2_
00000000 W _ZNK38CallChainOfFunctionPointersWithContextIPK23GattWriteCallbackParamsE4callES2_
00000000 T _ZNK3ble6vendor6cordio10GattServer22isOnDataReadAvailable_Ev
00000000 T _ZNK3ble6vendor6cordio10GattServer29get_cccd_index_by_cccd_handleEtRh
00000000 T _ZNK3ble6vendor6cordio10GattServer30get_cccd_index_by_value_handleEtRh
00000000 W _ZNK3ble9interface10GattServerINS_6vendor6cordio10GattServerEE21isOnDataReadAvailableEv
00000000 W _ZNK3ble9interface10GattServerINS_6vendor6cordio10GattServerEE22isOnDataReadAvailable_Ev
00000000 W _ZNK4UUIDeqERKS_
00000000 W _ZNK9SafeBool_4base7trueTagEv
         U _Znwj
00000000 V _ZTV38CallChainOfFunctionPointersWithContextIjE
00000000 V _ZTV38CallChainOfFunctionPointersWithContextIPK22GattReadCallbackParamsE
00000000 V _ZTV38CallChainOfFunctionPointersWithContextIPK23GattWriteCallbackParamsE
00000000 V _ZTV38CallChainOfFunctionPointersWithContextIPKN3ble9interface10GattServerINS0_6vendor6cordio10GattServerEEEE
00000000 V _ZTVN3ble9interface10GattServerINS_6vendor6cordio10GattServerEE12EventHandlerE
00000000 b _ZZN3ble6vendor6cordio10GattServer11getInstanceEvE10m_instance
         U attApChUuid
         U attChUuid
         U attCliChCfgUuid
         U attDnChUuid
         U attGapSvcUuid
         U attGattSvcUuid
         U attPpcpChUuid
         U attPrimSvcUuid
         U AttsAddGroup
         U AttsAuthorRegister
         U AttsCccEnabled
         U AttsCccGet
         U AttsCccRegister
         U AttsCccSet
         U attScChUuid
         U AttsGetAttr
         U AttsGetSignCounter
         U AttsHandleValueInd
         U AttsHandleValueNtf
         U AttsRemoveGroup
         U AttsSetAttr
         U DmConnInUse
         U free
         U malloc
         U memcmp
         U memcpy
         U memset
         U realloc
         U strlen

attc_proc.o:
         U attCb
00000000 T AttcCancelReq
         U attcCb
         U attcCcbByConnId
         U attcCcbByHandle
         U attcExecCallback
00000000 T AttcFindInfoReq
         U attcFreePkt
00000000 T AttcIndConfirm
00000000 T AttcMtuReq
00000000 T attcProcErrRsp
         U attcProcFindByTypeRsp
00000000 T attcProcFindOrReadRsp
00000000 T attcProcInd
00000000 T attcProcMtuRsp
         U attcProcPrepWriteRsp
         U attcProcReadLongRsp
00000000 T attcProcReadRsp
00000000 T attcProcRsp
00000000 r attcProcRspTbl
00000000 T attcProcWriteRsp
00000000 T AttcReadReq
00000000 T attcSendMsg
         U attcSendReq
         U attcSetupReq
00000000 T AttcWriteReq
         U attMsgAlloc
         U attSetMtu
         U HciGetMaxRxAclLen
         U L2cDataReq
         U memcpy
         U pAttCfg
         U WsfMsgAlloc
         U WsfMsgFree
         U WsfMsgSend
         U WsfTaskLock
         U WsfTaskUnlock
         U WsfTimerStop

attc_sign.o:
         U attCb
         U attcCb
         U attcReqClear
         U attcSendMsg
         U attcSetupReq
00000000 t attcSignCloseCback
00000000 T AttcSignedWriteCmd
00000000 r attcSignFcnIf
00000000 T AttcSignInit
00000000 t attcSignMsgCback
         U AttcWriteCmd
         U attMsgAlloc
         U DmConnSecLevel
         U DmSecGetLocalCsrk
         U memcpy
         U memset
00000000 b pAttcSignCb
         U SecCmac
         U WsfBufAlloc
         U WsfBufFree
         U WStrReverseCpy

attc_write.o:
00000000 T AttcExecuteWriteReq
00000000 T AttcPrepareWriteReq
00000000 T attcProcPrepWriteRsp
         U attcSendMsg
00000000 T AttcWriteCmd
         U attMsgAlloc
         U memcpy

atts_csf.o:
         U attsCheckPendDbHashReadRsp
00000000 T attsCsfActClientState
00000010 C attsCsfCb
00000000 T AttsCsfConnOpen
00000000 T AttsCsfGetChangeAwareState
00000000 T AttsCsfGetFeatures
00000000 T attsCsfGetHashUpdateStatus
00000000 T AttsCsfInit
00000000 T attsCsfIsClientChangeAware
00000000 T AttsCsfRegister
00000000 T AttsCsfSetClientsChangeAwarenessState
00000000 T attsCsfSetHashUpdateStatus
00000000 T AttsCsfWriteFeatures
         U memcpy

atts_ccc.o:
         U attsCb
00000000 b attsCccCb
00000000 T AttsCccClearTable
00000000 T AttsCccEnabled
00000000 T AttsCccGet
00000000 T AttsCccInitTable
00000000 t attsCccMainCback
00000000 T AttsCccRegister
00000000 T AttsCccSet
00000000 T AttsGetCccTableLen
         U DmConnSecLevel
         U memset
         U WsfBufAlloc
         U WsfBufFree

atts_dyn.o:
         U AttsAddGroup
00000000 T AttsDynAddAttr
00000000 T AttsDynAddAttrConst
00000000 t attsDynAlloc
00000000 b attsDynCb
00000000 T AttsDynCreateGroup
00000000 T AttsDynDeleteGroup
00000000 b attsDynHeap
00000000 T AttsDynInit
00000000 T AttsDynRegister
         U AttsRemoveGroup
         U memcpy
         U memset

atts_ind.o:
         U attCb
         U attEmptyDataCback
         U attExecCallback
         U attMsgAlloc
         U AttMsgFree
         U attsCb
         U attsCsfIsClientChangeAware
00000000 t attsExecCallback
00000000 T AttsHandleValueInd
00000000 t attsHandleValueIndNtf
00000000 T AttsHandleValueIndZeroCpy
00000000 T AttsHandleValueNtf
00000000 T AttsHandleValueNtfZeroCpy
00000054 C attsIndCb
00000000 t attsIndCcbByConnId
00000000 t attsIndConnCback
00000000 t attsIndCtrlCback
00000000 r attsIndFcnIf
00000000 T AttsIndInit
00000000 t attsIndMsgCback
00000000 t attsIndNtfCallback
00000000 T attsProcValueCnf
         U DmConnInUse
         U L2cDataReq
         U memcpy
         U pAttCfg
         U WsfMsgAlloc
         U WsfMsgFree
         U WsfMsgSend
         U WsfTaskLock
         U WsfTaskUnlock
         U WsfTimerStartSec
         U WsfTimerStop

atts_main.o:
         U attCb
         U attCcbByHandle
         U attEmptyHandler
         U attFcnDefault
         U attGattDbhChUuid
         U attMsgAlloc
00000000 T AttsAddGroup
00000000 T AttsAuthorRegister
00000000 T AttsCalculateDbHash
00000018 C attsCb
00000000 T attsCheckPendDbHashReadRsp
00000000 T attsClearPrepWrites
00000000 t attsConnCback
         U attsCsfActClientState
         U attsCsfSetHashUpdateStatus
00000000 t attsDataCback
00000000 T attsDiscBusy
00000000 T AttsErrorTest
00000000 T attsErrRsp
00000000 r attsFcnIf
         U attsFindByHandle
         U attsFindUuidInRange
00000000 T AttsGetAttr
00000000 T AttsHashDatabaseString
00000000 T AttsInit
00000000 T attsIsHashableAttr
00000000 t attsL2cCtrlCback
00000000 r attsMinPduLen
00000000 t attsMsgCback
00000000 T attsProcessDatabaseHashUpdate
         U attsProcExecWriteReq
00000000 D attsProcFcnTbl
         U attsProcFindInfoReq
         U attsProcFindTypeReq
         U attsProcMtuReq
         U attsProcPrepWriteReq
         U attsProcReadBlobReq
         U attsProcReadGroupTypeReq
         U attsProcReadMultReq
         U attsProcReadReq
         U attsProcReadTypeReq
         U attsProcValueCnf
         U attsProcWrite
00000000 T AttsRemoveGroup
00000000 T AttsSetAttr
         U DmConnCheckIdle
         U DmConnSetIdle
00000000 b isAttrCharVal.8772
         U L2cDataReq
         U memcpy
         U memset
         U pAttCfg
         U SecCmac
         U WsfBufAlloc
         U WsfBufFree
         U WsfQueueDeq
         U WsfQueueInsert
         U WsfQueueRemove
         U WsfTaskLock
         U WsfTaskUnlock
         U WsfTimerStartSec
         U WsfTimerStop

atts_proc.o:
         U attMsgAlloc
         U attsCb
         U attsDiscBusy
         U attsErrRsp
         U attSetMtu
00000000 T attsFindByHandle
00000000 T attsFindInRange
00000000 T attsPermissions
00000000 T attsProcFindInfoReq
00000000 T attsProcMtuReq
00000000 T attsProcReadReq
00000000 T attsUuid16Cmp
00000000 T attsUuidCmp
         U attUuidCmp16to128
         U DmConnSecLevel
         U HciGetMaxRxAclLen
         U L2cDataReq
         U memcmp
         U memcpy
         U pAttCfg
         U WsfMsgFree

atts_read.o:
         U attGattDbhChUuid
         U attMsgAlloc
         U attsCb
         U attsCsfGetHashUpdateStatus
         U attsDiscBusy
         U attsErrRsp
         U attsFindByHandle
00000000 T attsFindServiceGroupEnd
00000000 T attsFindUuidInRange
         U attsPermissions
00000000 T attsProcFindTypeReq
00000000 T attsProcReadBlobReq
00000000 T attsProcReadGroupTypeReq
00000000 T attsProcReadMultReq
00000000 T attsProcReadTypeReq
         U attsUuid16Cmp
         U attsUuidCmp
         U L2cDataReq
         U memcmp
         U memcpy
         U WsfBufAlloc
         U WsfMsgFree

cfg_stack.o:
00000000 D attCfg
00000000 R dmCfg
00000000 R l2cCfg
00000000 D pAttCfg
00000000 D pDmCfg
00000000 D pL2cCfg
00000000 D pSmpCfg
00000000 D smpCfg
00000000 T StackGetVersionNumber

atts_sign.o:
         U attCb
         U attsCb
         U attsFindByHandle
00000000 T AttsGetSignCounter
         U attsProcFcnTbl
00000000 t attsProcSignedWrite
00000000 T AttsSetCsrk
00000000 T AttsSetSignCounter
00000000 b attsSignCb
00000000 t attsSignedWriteStart
00000000 T AttsSignInit
00000000 t attsSignMsgCback
         U memcmp
         U memcpy
         U memset
         U SecCmac
         U WsfBufAlloc
         U WsfBufFree
         U WsfQueueDeq
         U WsfQueueEnq
         U WStrReverseCpy

atts_write.o:
         U attCcbByConnId
         U attMsgAlloc
         U attsCb
         U attsClearPrepWrites
00000000 T AttsContinueWriteReq
         U attsErrRsp
         U attsFindByHandle
         U attsPermissions
00000000 T attsProcExecWriteReq
00000000 T attsProcPrepWriteReq
00000000 T attsProcWrite
         U L2cDataReq
         U memcpy
         U pAttCfg
         U WsfBufAlloc
         U WsfBufFree
         U WsfQueueCount
         U WsfQueueDeq
         U WsfQueueEnq

dm_adv.o:
         U BdaCpy
00000044 C dmAdvCb
00000000 T dmAdvCbInit
00000000 T DmAdvClearAdvSets
00000000 T DmAdvConfig
00000000 T dmAdvGenConnCmpl
00000000 T dmAdvInit
00000000 T DmAdvRemoveAdvSet
00000000 T DmAdvSetAddrType
00000000 T DmAdvSetAdValue
00000000 T DmAdvSetChannelMap
00000000 T DmAdvSetData
00000000 T DmAdvSetInterval
00000000 T DmAdvSetName
00000000 T DmAdvSetRandAddr
00000000 T DmAdvStart
00000000 T DmAdvStop
         U dmCb
         U dmDevPassHciEvtToConn
         U DmFindAdType
         U memcpy
         U memmove
         U memset
         U WsfMsgAlloc
         U WsfMsgSend
         U WsfTaskLock
         U WsfTaskUnlock

dm_adv_leg.o:
         U BdaCpy
00000000 r dmAdvAct
00000000 T dmAdvActClearSets
00000000 T dmAdvActConfig
00000000 T dmAdvActRemoveSet
00000000 T dmAdvActSetData
00000000 T dmAdvActSetRandAddr
00000000 T dmAdvActStart
00000000 T dmAdvActStop
00000000 T dmAdvActTimeout
         U dmAdvCb
00000000 T dmAdvConnected
00000000 T dmAdvConnectFailed
00000000 r dmAdvFcnIf
         U dmAdvGenConnCmpl
00000000 T dmAdvHciHandler
         U dmAdvInit
00000000 T DmAdvInit
00000000 T DmAdvModeLeg
00000000 T dmAdvMsgHandler
00000000 T dmAdvReset
00000000 T dmAdvStartDirected
00000000 T dmAdvStopDirected
         U dmCb
         U dmDevCb
         U dmDevPassEvtToDevPriv
         U dmFcnIfTbl
00000000 b dmLegAdvCb
         U DmLlAddrType
         U HciLeSetAdvDataCmd
         U HciLeSetAdvEnableCmd
         U HciLeSetAdvParamCmd
         U HciLeSetScanRespDataCmd
         U HciVsInit
         U WsfTaskLock
         U WsfTaskUnlock
         U WsfTimerStartMs
         U WsfTimerStop

dm_conn_master.o:
         U dmCb
         U dmConnCcbByHandle
00000000 T DmConnOpen
         U dmConnOpenAccept
00000000 T DmConnSetAddrType
00000000 T dmConnSmActCancelOpen
00000000 T dmConnSmActL2cUpdateInd
00000000 T dmConnSmActUpdateMaster
         U dmConnSmExecute
         U dmDevPassEvtToDevPriv
00000000 T DmL2cConnUpdateInd
         U HciLeConnUpdateCmd
         U HciLeCreateConnCancelCmd
         U L2cDmConnUpdateRsp
         U WsfTaskLock
         U WsfTaskUnlock

dm_adv_ae.o:
         U BdaCpy
00000000 r CSWTCH.31
00000000 r dmAdvAct
         U dmAdvCb
         U dmAdvCbInit
00000000 t dmAdvDirectedByConnId
00000000 t dmAdvDirectedDisable
00000000 t dmAdvDirectedEnabled
00000000 r dmAdvFcnIf
         U dmAdvGenConnCmpl
00000000 T DmAdvIncTxPwr
         U dmAdvInit
00000000 T DmAdvModeExt
00000000 T DmAdvOmitAdvAddr
00000000 T DmAdvScanReqNotifEnable
00000000 T DmAdvSetFragPref
00000000 T DmAdvSetPhyParam
00000000 t dmAdvStart
00000000 t dmAdvStop
00000000 T DmAdvUseLegacyPdu
         U dmCb
         U dmDevCb
         U dmDevPassEvtToDevPriv
00000000 T dmExtAdvActClearSets
00000000 T dmExtAdvActConfig
00000000 T dmExtAdvActHciEnableCmpl
00000000 T dmExtAdvActRemoveSet
00000000 T dmExtAdvActSetData
00000000 T dmExtAdvActSetRandAddr
00000000 T dmExtAdvActStart
00000000 T dmExtAdvActStop
00000000 T dmExtAdvActTimeout
00000000 b dmExtAdvCb
00000000 t dmExtAdvCbInit
00000000 t dmExtAdvCmdCmplPending
00000000 T dmExtAdvConnected
00000000 T dmExtAdvConnectFailed
00000000 T dmExtAdvHciHandler
00000000 T dmExtAdvInit
00000000 T DmExtAdvInit
00000000 T dmExtAdvMsgHandler
00000000 T dmExtAdvReset
00000000 T dmExtAdvStartDirected
00000000 T dmExtAdvStopDirected
00000000 T DmExtMaxAdvDataLen
         U dmFcnIfTbl
         U DmLlAddrType
00000000 r dmPerAdvAct
00000000 T dmPerAdvActConfig
00000000 T dmPerAdvActSetData
00000000 T dmPerAdvActStart
00000000 T dmPerAdvActStop
00000000 b dmPerAdvCb
00000000 t dmPerAdvCmdCmplPending
00000000 T DmPerAdvConfig
00000000 r dmPerAdvFcnIf
00000000 T dmPerAdvHciHandler
00000000 T DmPerAdvIncTxPwr
00000000 T dmPerAdvInit
00000000 T dmPerAdvMsgHandler
00000000 T dmPerAdvReset
00000000 T DmPerAdvSetData
00000000 T DmPerAdvSetInterval
00000000 T DmPerAdvStart
00000000 T dmPerAdvState
00000000 T DmPerAdvStop
         U HciGetMaxAdvDataLen
         U HciLeClearAdvSets
         U HciLeRemoveAdvSet
         U HciLeSetAdvSetRandAddrCmd
         U HciLeSetExtAdvDataCmd
         U HciLeSetExtAdvEnableCmd
         U HciLeSetExtAdvParamCmd
         U HciLeSetExtScanRespDataCmd
         U HciLeSetPerAdvDataCmd
         U HciLeSetPerAdvEnableCmd
         U HciLeSetPerAdvParamCmd
         U HciVsAeInit
         U memcpy
         U memset
         U WsfMsgAlloc
         U WsfMsgSend
         U WsfTaskLock
         U WsfTaskUnlock

dm_conn_cte.o:
         U dmCb
         U dmConnCcbByHandle
         U dmConnCcbById
00000000 r dmConnCteAct
00000000 t dmConnCteActReqStart
00000000 t dmConnCteActReqStop
00000000 t dmConnCteActRspStart
00000000 t dmConnCteActRspStop
00000000 t dmConnCteActRxSampleStart
00000000 t dmConnCteActRxSampleStop
00000000 t dmConnCteActState
00000000 t dmConnCteActTxCfg
00000000 b dmConnCteCb
00000000 r dmConnCteFcnIf
00000000 T dmConnCteHciHandler
00000000 T dmConnCteInit
00000000 T DmConnCteInit
00000000 T dmConnCteMsgHandler
00000000 T DmConnCteReqStart
00000000 T DmConnCteReqStop
00000000 T dmConnCteReset
00000000 T DmConnCteRspStart
00000000 T DmConnCteRspStop
00000000 T DmConnCteRxSampleStart
00000000 T DmConnCteRxSampleStop
00000000 T DmConnCteTxConfig
         U dmFcnIfTbl
00000000 T DmReadAntennaInfo
         U HciLeConnCteReqEnableCmd
         U HciLeConnCteRspEnableCmd
         U HciLeReadAntennaInfoCmd
         U HciLeSetConnCteRxParamsCmd
         U HciLeSetConnCteTxParamsCmd
         U memcpy
         U WsfMsgAlloc
         U WsfMsgSend

dm_conn_master_leg.o:
         U dmCb
         U dmConnActSet
00000000 r dmConnActSetMaster
         U dmConnCb
00000000 T DmConnMasterInit
         U dmConnSmActCancelOpen
         U dmConnSmActL2cUpdateInd
00000000 T dmConnSmActOpen
         U dmConnSmActUpdateMaster
         U dmDevPassEvtToDevPriv
         U DmLlAddrType
         U DmScanPhyToIdx
         U HciLeCreateConnCmd

dm_conn.o:
         U BdaCmp
         U BdaCpy
         U dmCb
00000000 r dmConn2FcnIf
00000000 T dmConn2HciHandler
00000000 T dmConn2MsgHandler
         U dmConnActSet
00000000 r dmConnActSetMain
000000d4 C dmConnCb
00000000 T dmConnCcbAlloc
00000000 T dmConnCcbByBdAddr
00000000 T dmConnCcbByHandle
00000000 T dmConnCcbById
00000000 T dmConnCcbDealloc
00000000 T DmConnCheckIdle
00000000 T DmConnClose
00000000 T dmConnExecCback
00000000 r dmConnFcnIf
00000000 T dmConnHciHandler
00000000 T DmConnIdByHandle
00000000 T DmConnInit
00000000 T DmConnInUse
00000000 T DmConnLocalAddr
00000000 T DmConnLocalAddrType
00000000 T DmConnLocalRpa
00000000 T dmConnMsgHandler
00000000 T dmConnNum
00000000 T dmConnOpenAccept
00000000 T DmConnPeerAddr
00000000 T DmConnPeerAddrType
00000000 T DmConnPeerRpa
00000000 T DmConnReadRssi
00000000 T DmConnRegister
00000000 T dmConnReset
00000000 T DmConnRole
00000000 T DmConnSecLevel
00000000 t dmConnSetConnSpec
00000000 T DmConnSetConnSpec
00000000 T DmConnSetDataLen
00000000 T DmConnSetIdle
00000000 T DmConnSetScanInterval
00000000 T dmConnSmActClose
00000000 T dmConnSmActConnClosed
00000000 T dmConnSmActConnFailed
00000000 T dmConnSmActConnOpened
00000000 T dmConnSmActHciUpdated
00000000 T dmConnSmActNone
         U dmConnSmExecute
00000000 r dmConnSpecDefaults
00000000 T DmConnUpdate
         U dmDevPassEvtToConnCte
         U dmDevPassEvtToDevPriv
         U dmEmptyReset
00000000 T DmExtConnSetConnSpec
00000000 T DmExtConnSetScanInterval
         U dmFcnIfTbl
         U DmHostAddrType
         U DmInitPhyToIdx
00000000 T DmReadRemoteFeatures
00000000 T DmReadRemoteVerInfo
00000000 T DmRemoteConnParamReqNegReply
00000000 T DmRemoteConnParamReqReply
00000000 T DmWriteAuthPayloadTimeout
         U HciDisconnectCmd
         U HciGetBdAddr
         U HciLeReadRemoteFeatCmd
         U HciLeRemoteConnParamReqNegReply
         U HciLeRemoteConnParamReqReply
         U HciLeSetDataLen
         U HciReadRemoteVerInfoCmd
         U HciReadRssiCmd
         U HciWriteAuthPayloadTimeout
         U memset
         U WsfMsgAlloc
         U WsfMsgSend
         U WsfTaskLock
         U WsfTaskUnlock

dm_conn_slave.o:
00000000 T DmConnAccept
         U dmConnCb
         U dmConnCcbByHandle
         U dmConnOpenAccept
00000000 T dmConnSmActL2cUpdateCnf
00000000 T dmConnSmActUpdateSlave
         U dmConnSmExecute
00000000 t dmConnUpdateCback
00000000 T DmL2cCmdRejInd
00000000 T DmL2cConnUpdateCnf
         U HciGetLeSupFeat
         U HciLeConnUpdateCmd
         U L2cDmConnUpdateReq

dm_conn_master_ae.o:
         U dmCb
         U dmConnActSet
00000000 r dmConnActSetMaster
         U dmConnCb
         U dmConnSmActCancelOpen
         U dmConnSmActL2cUpdateInd
         U dmConnSmActUpdateMaster
         U dmDevPassEvtToDevPriv
00000000 T DmExtConnMasterInit
00000000 T dmExtConnSmActOpen
         U DmInitPhyToIdx
         U DmLlAddrType
         U HciLeExtCreateConnCmd

dm_conn_slave_ae.o:
         U dmConnActSet
00000000 r dmConnActSetSlave
         U dmConnSmActConnFailed
         U dmConnSmActConnOpened
         U dmConnSmActL2cUpdateCnf
         U dmConnSmActUpdateSlave
         U dmExtAdvConnected
         U dmExtAdvConnectFailed
         U dmExtAdvStartDirected
         U dmExtAdvStopDirected
00000000 T DmExtConnSlaveInit
00000000 T dmExtConnSmActAccept
00000000 T dmExtConnSmActAcceptFailed
00000000 T dmExtConnSmActCancelAccept
00000000 T dmExtConnSmActConnAccepted

dm_conn_slave_leg.o:
         U dmAdvConnected
         U dmAdvConnectFailed
         U dmAdvStartDirected
         U dmAdvStopDirected
         U dmConnActSet
00000000 r dmConnActSetSlave
00000000 T DmConnSlaveInit
00000000 T dmConnSmActAccept
00000000 T dmConnSmActAcceptFailed
00000000 T dmConnSmActCancelAccept
00000000 T dmConnSmActConnAccepted
         U dmConnSmActConnFailed
         U dmConnSmActConnOpened
         U dmConnSmActL2cUpdateCnf
         U dmConnSmActUpdateSlave

CordioImplementations.o:
         U __aeabi_atexit
         U __cxa_guard_acquire
         U __cxa_guard_release
         U __cxa_pure_virtual
         U __dso_handle
00000000 t _GLOBAL__sub_I_CordioImplementations.cpp
         U _Z17createBLEInstancev
         U _ZdaPv
         U _ZdlPvj
00000000 W _ZeqRK24DiscoveredCharacteristicS1_
00000000 V _ZGVZN3ble3pal6vendor6cordio15CordioAttClient10get_clientEvE7_client
00000000 V _ZGVZN3ble3pal6vendor6cordio21CordioSecurityManagerINS_7generic22GenericSecurityManagerIS3_NS_6vendor6cordio19SigningEventMonitorEEEE20get_security_managerEvE17_security_manager
00000000 V _ZGVZN3ble3pal6vendor6cordio3GapINS_7generic10GenericGapIS3_NS0_15SecurityManagerINS2_21CordioSecurityManagerINS4_22GenericSecurityManagerIS7_NS_6vendor6cordio19SigningEventMonitorEEEEESC_EESC_EEE7get_gapEvE4_gap
00000000 t _ZN12_GLOBAL__N_120convert_address_typeEN3ble19peer_address_type_tEPKhRN11BLEProtocol11AddressType4TypeE
         U _ZN17GapScanningParams10setTimeoutEt
         U _ZN17GapScanningParams11setIntervalEt
         U _ZN17GapScanningParams17setActiveScanningEb
         U _ZN17GapScanningParams9setWindowEt
         U _ZN17GapScanningParamsC1Etttb
00000000 W _ZN18GapAdvertisingData11appendFieldENS_10DataType_tEPKhh
00000000 W _ZN18GapAdvertisingData11updateFieldENS_10DataType_tEPKhhPh
00000000 W _ZN18GapAdvertisingData5clearEv
00000000 W _ZN18GapAdvertisingData7addDataENS_10DataType_tEPKhh
00000000 W _ZN26FunctionPointerWithContextIbE14functioncallerEPKS0_b
00000000 W _ZN26FunctionPointerWithContextIjE14functioncallerEPKS0_j
00000000 W _ZN26FunctionPointerWithContextIPK17DiscoveredServiceEC1ERKS3_
00000000 W _ZN26FunctionPointerWithContextIPK17DiscoveredServiceEC2ERKS3_
00000000 n _ZN26FunctionPointerWithContextIPK17DiscoveredServiceEC5ERKS3_
00000000 W _ZN26FunctionPointerWithContextIPK24DiscoveredCharacteristicE14functioncallerEPKS3_S2_
00000000 W _ZN26FunctionPointerWithContextIPKN3ble9interface9LegacyGapINS0_7generic10GenericGapINS0_3pal6vendor6cordio3GapENS5_15SecurityManagerINS7_21CordioSecurityManagerINS3_22GenericSecurityManagerISA_NS0_6vendor6cordio19SigningEventMonitorEEEEESF_EESF_EEE29AdvertisementCallbackParams_tEE14functioncallerEPKSN_SM_
00000000 W _ZN38CallChainOfFunctionPointersWithContextIN3ble9interface9LegacyGapINS0_7generic10GenericGapINS0_3pal6vendor6cordio3GapENS5_15SecurityManagerINS7_21CordioSecurityManagerINS3_22GenericSecurityManagerISA_NS0_6vendor6cordio19SigningEventMonitorEEEEESF_EESF_EEE15TimeoutSource_tEED0Ev
00000000 W _ZN38CallChainOfFunctionPointersWithContextIN3ble9interface9LegacyGapINS0_7generic10GenericGapINS0_3pal6vendor6cordio3GapENS5_15SecurityManagerINS7_21CordioSecurityManagerINS3_22GenericSecurityManagerISA_NS0_6vendor6cordio19SigningEventMonitorEEEEESF_EESF_EEE15TimeoutSource_tEED1Ev
00000000 W _ZN38CallChainOfFunctionPointersWithContextIN3ble9interface9LegacyGapINS0_7generic10GenericGapINS0_3pal6vendor6cordio3GapENS5_15SecurityManagerINS7_21CordioSecurityManagerINS3_22GenericSecurityManagerISA_NS0_6vendor6cordio19SigningEventMonitorEEEEESF_EESF_EEE15TimeoutSource_tEED2Ev
00000000 n _ZN38CallChainOfFunctionPointersWithContextIN3ble9interface9LegacyGapINS0_7generic10GenericGapINS0_3pal6vendor6cordio3GapENS5_15SecurityManagerINS7_21CordioSecurityManagerINS3_22GenericSecurityManagerISA_NS0_6vendor6cordio19SigningEventMonitorEEEEESF_EESF_EEE15TimeoutSource_tEED5Ev
00000000 W _ZN38CallChainOfFunctionPointersWithContextIPK21GattHVXCallbackParamsED0Ev
00000000 W _ZN38CallChainOfFunctionPointersWithContextIPK21GattHVXCallbackParamsED1Ev
00000000 W _ZN38CallChainOfFunctionPointersWithContextIPK21GattHVXCallbackParamsED2Ev
00000000 n _ZN38CallChainOfFunctionPointersWithContextIPK21GattHVXCallbackParamsED5Ev
00000000 W _ZN38CallChainOfFunctionPointersWithContextIPK22GattReadCallbackParamsED0Ev
00000000 W _ZN38CallChainOfFunctionPointersWithContextIPK22GattReadCallbackParamsED1Ev
00000000 W _ZN38CallChainOfFunctionPointersWithContextIPK22GattReadCallbackParamsED2Ev
00000000 n _ZN38CallChainOfFunctionPointersWithContextIPK22GattReadCallbackParamsED5Ev
00000000 W _ZN38CallChainOfFunctionPointersWithContextIPK23GattWriteCallbackParamsE3addERK26FunctionPointerWithContextIS2_E
00000000 W _ZN38CallChainOfFunctionPointersWithContextIPK23GattWriteCallbackParamsED0Ev
00000000 W _ZN38CallChainOfFunctionPointersWithContextIPK23GattWriteCallbackParamsED1Ev
00000000 W _ZN38CallChainOfFunctionPointersWithContextIPK23GattWriteCallbackParamsED2Ev
00000000 n _ZN38CallChainOfFunctionPointersWithContextIPK23GattWriteCallbackParamsED5Ev
00000000 W _ZN38CallChainOfFunctionPointersWithContextIPKN3ble9interface10GattClientINS0_7generic17GenericGattClientINS0_3pal6vendor6cordio16CordioGattClientENS3_22GenericSecurityManagerINS7_21CordioSecurityManagerENS0_6vendor6cordio19SigningEventMonitorEEEEEEEED0Ev
00000000 W _ZN38CallChainOfFunctionPointersWithContextIPKN3ble9interface10GattClientINS0_7generic17GenericGattClientINS0_3pal6vendor6cordio16CordioGattClientENS3_22GenericSecurityManagerINS7_21CordioSecurityManagerENS0_6vendor6cordio19SigningEventMonitorEEEEEEEED1Ev
00000000 W _ZN38CallChainOfFunctionPointersWithContextIPKN3ble9interface10GattClientINS0_7generic17GenericGattClientINS0_3pal6vendor6cordio16CordioGattClientENS3_22GenericSecurityManagerINS7_21CordioSecurityManagerENS0_6vendor6cordio19SigningEventMonitorEEEEEEEED2Ev
00000000 n _ZN38CallChainOfFunctionPointersWithContextIPKN3ble9interface10GattClientINS0_7generic17GenericGattClientINS0_3pal6vendor6cordio16CordioGattClientENS3_22GenericSecurityManagerINS7_21CordioSecurityManagerENS0_6vendor6cordio19SigningEventMonitorEEEEEEEED5Ev
00000000 W _ZN38CallChainOfFunctionPointersWithContextIPKN3ble9interface15SecurityManagerINS0_7generic22GenericSecurityManagerINS0_3pal6vendor6cordio21CordioSecurityManagerENS0_6vendor6cordio19SigningEventMonitorEEEEEED0Ev
00000000 W _ZN38CallChainOfFunctionPointersWithContextIPKN3ble9interface15SecurityManagerINS0_7generic22GenericSecurityManagerINS0_3pal6vendor6cordio21CordioSecurityManagerENS0_6vendor6cordio19SigningEventMonitorEEEEEED1Ev
00000000 W _ZN38CallChainOfFunctionPointersWithContextIPKN3ble9interface15SecurityManagerINS0_7generic22GenericSecurityManagerINS0_3pal6vendor6cordio21CordioSecurityManagerENS0_6vendor6cordio19SigningEventMonitorEEEEEED2Ev
00000000 n _ZN38CallChainOfFunctionPointersWithContextIPKN3ble9interface15SecurityManagerINS0_7generic22GenericSecurityManagerINS0_3pal6vendor6cordio21CordioSecurityManagerENS0_6vendor6cordio19SigningEventMonitorEEEEEED5Ev
00000000 W _ZN38CallChainOfFunctionPointersWithContextIPKN3ble9interface9LegacyGapINS0_7generic10GenericGapINS0_3pal6vendor6cordio3GapENS5_15SecurityManagerINS7_21CordioSecurityManagerINS3_22GenericSecurityManagerISA_NS0_6vendor6cordio19SigningEventMonitorEEEEESF_EESF_EEE26ConnectionCallbackParams_tEED0Ev
00000000 W _ZN38CallChainOfFunctionPointersWithContextIPKN3ble9interface9LegacyGapINS0_7generic10GenericGapINS0_3pal6vendor6cordio3GapENS5_15SecurityManagerINS7_21CordioSecurityManagerINS3_22GenericSecurityManagerISA_NS0_6vendor6cordio19SigningEventMonitorEEEEESF_EESF_EEE26ConnectionCallbackParams_tEED1Ev
00000000 W _ZN38CallChainOfFunctionPointersWithContextIPKN3ble9interface9LegacyGapINS0_7generic10GenericGapINS0_3pal6vendor6cordio3GapENS5_15SecurityManagerINS7_21CordioSecurityManagerINS3_22GenericSecurityManagerISA_NS0_6vendor6cordio19SigningEventMonitorEEEEESF_EESF_EEE26ConnectionCallbackParams_tEED2Ev
00000000 n _ZN38CallChainOfFunctionPointersWithContextIPKN3ble9interface9LegacyGapINS0_7generic10GenericGapINS0_3pal6vendor6cordio3GapENS5_15SecurityManagerINS7_21CordioSecurityManagerINS3_22GenericSecurityManagerISA_NS0_6vendor6cordio19SigningEventMonitorEEEEESF_EESF_EEE26ConnectionCallbackParams_tEED5Ev
00000000 W _ZN38CallChainOfFunctionPointersWithContextIPKN3ble9interface9LegacyGapINS0_7generic10GenericGapINS0_3pal6vendor6cordio3GapENS5_15SecurityManagerINS7_21CordioSecurityManagerINS3_22GenericSecurityManagerISA_NS0_6vendor6cordio19SigningEventMonitorEEEEESF_EESF_EEE29DisconnectionCallbackParams_tEED0Ev
00000000 W _ZN38CallChainOfFunctionPointersWithContextIPKN3ble9interface9LegacyGapINS0_7generic10GenericGapINS0_3pal6vendor6cordio3GapENS5_15SecurityManagerINS7_21CordioSecurityManagerINS3_22GenericSecurityManagerISA_NS0_6vendor6cordio19SigningEventMonitorEEEEESF_EESF_EEE29DisconnectionCallbackParams_tEED1Ev
00000000 W _ZN38CallChainOfFunctionPointersWithContextIPKN3ble9interface9LegacyGapINS0_7generic10GenericGapINS0_3pal6vendor6cordio3GapENS5_15SecurityManagerINS7_21CordioSecurityManagerINS3_22GenericSecurityManagerISA_NS0_6vendor6cordio19SigningEventMonitorEEEEESF_EESF_EEE29DisconnectionCallbackParams_tEED2Ev
00000000 n _ZN38CallChainOfFunctionPointersWithContextIPKN3ble9interface9LegacyGapINS0_7generic10GenericGapINS0_3pal6vendor6cordio3GapENS5_15SecurityManagerINS7_21CordioSecurityManagerINS3_22GenericSecurityManagerISA_NS0_6vendor6cordio19SigningEventMonitorEEEEESF_EESF_EEE29DisconnectionCallbackParams_tEED5Ev
00000000 W _ZN38CallChainOfFunctionPointersWithContextIPKN3ble9interface9LegacyGapINS0_7generic10GenericGapINS0_3pal6vendor6cordio3GapENS5_15SecurityManagerINS7_21CordioSecurityManagerINS3_22GenericSecurityManagerISA_NS0_6vendor6cordio19SigningEventMonitorEEEEESF_EESF_EEEEED0Ev
00000000 W _ZN38CallChainOfFunctionPointersWithContextIPKN3ble9interface9LegacyGapINS0_7generic10GenericGapINS0_3pal6vendor6cordio3GapENS5_15SecurityManagerINS7_21CordioSecurityManagerINS3_22GenericSecurityManagerISA_NS0_6vendor6cordio19SigningEventMonitorEEEEESF_EESF_EEEEED1Ev
00000000 W _ZN38CallChainOfFunctionPointersWithContextIPKN3ble9interface9LegacyGapINS0_7generic10GenericGapINS0_3pal6vendor6cordio3GapENS5_15SecurityManagerINS7_21CordioSecurityManagerINS3_22GenericSecurityManagerISA_NS0_6vendor6cordio19SigningEventMonitorEEEEESF_EESF_EEEEED2Ev
00000000 n _ZN38CallChainOfFunctionPointersWithContextIPKN3ble9interface9LegacyGapINS0_7generic10GenericGapINS0_3pal6vendor6cordio3GapENS5_15SecurityManagerINS7_21CordioSecurityManagerINS3_22GenericSecurityManagerISA_NS0_6vendor6cordio19SigningEventMonitorEEEEESF_EESF_EEEEED5Ev
00000000 W _ZN3ble12byte_array_tILj16EEC1Ev
00000000 W _ZN3ble12byte_array_tILj16EEC2Ev
00000000 n _ZN3ble12byte_array_tILj16EEC5Ev
00000000 W _ZN3ble12PasskeyAscii6to_numEPKh
00000000 W _ZN3ble21AdvertisingParameters9normalizeEv
00000000 W _ZN3ble3pal10GattClientINS0_28AttClientToGattClientAdapterINS0_6vendor6cordio15CordioAttClientENS_7generic17GenericGattClientINS4_16CordioGattClientENS6_22GenericSecurityManagerINS4_21CordioSecurityManagerENS_6vendor6cordio19SigningEventMonitorEEEEEEESF_E15on_server_eventEjRKNS0_16AttServerMessageE
00000000 W _ZN3ble3pal10GattClientINS0_28AttClientToGattClientAdapterINS0_6vendor6cordio15CordioAttClientENS_7generic17GenericGattClientINS4_16CordioGattClientENS6_22GenericSecurityManagerINS4_21CordioSecurityManagerENS_6vendor6cordio19SigningEventMonitorEEEEEEESF_E22on_transaction_timeoutEj
00000000 t _ZN3ble3pal15KeyDistribution11set_signingEb.isra.47
00000000 W _ZN3ble3pal18advertising_data_tC1EPKhj
00000000 W _ZN3ble3pal18advertising_data_tC2EPKhj
00000000 n _ZN3ble3pal18advertising_data_tC5EPKhj
00000000 t _ZN3ble3pal18AuthenticationMask8set_mitmEb.isra.53
00000000 t _ZN3ble3pal28AttClientToGattClientAdapterINS0_6vendor6cordio15CordioAttClientENS_7generic17GenericGattClientINS3_16CordioGattClientENS5_22GenericSecurityManagerINS3_21CordioSecurityManagerENS_6vendor6cordio19SigningEventMonitorEEEEEE25discover_primary_service_Ejt.isra.210
00000000 t _ZN3ble3pal28AttClientToGattClientAdapterINS0_6vendor6cordio15CordioAttClientENS_7generic17GenericGattClientINS3_16CordioGattClientENS5_22GenericSecurityManagerINS3_21CordioSecurityManagerENS_6vendor6cordio19SigningEventMonitorEEEEEE38discover_characteristics_of_a_service_EjNS_24attribute_handle_range_tE.isra.242
00000000 W _ZN3ble3pal28AttClientToGattClientAdapterINS0_6vendor6cordio15CordioAttClientENS_7generic17GenericGattClientINS3_16CordioGattClientENS5_22GenericSecurityManagerINS3_21CordioSecurityManagerENS_6vendor6cordio19SigningEventMonitorEEEEEEC1ERS4_
00000000 W _ZN3ble3pal28AttClientToGattClientAdapterINS0_6vendor6cordio15CordioAttClientENS_7generic17GenericGattClientINS3_16CordioGattClientENS5_22GenericSecurityManagerINS3_21CordioSecurityManagerENS_6vendor6cordio19SigningEventMonitorEEEEEEC2ERS4_
00000000 n _ZN3ble3pal28AttClientToGattClientAdapterINS0_6vendor6cordio15CordioAttClientENS_7generic17GenericGattClientINS3_16CordioGattClientENS5_22GenericSecurityManagerINS3_21CordioSecurityManagerENS_6vendor6cordio19SigningEventMonitorEEEEEEC5ERS4_
00000000 W _ZN3ble3pal3GapINS0_6vendor6cordio3GapINS_7generic10GenericGapIS4_NS0_15SecurityManagerINS3_21CordioSecurityManagerINS5_22GenericSecurityManagerIS8_NS_6vendor6cordio19SigningEventMonitorEEEEESD_EESD_EEEESG_E14emit_gap_eventERKNS0_8GapEventE
00000000 W _ZN3ble3pal3GapINS0_6vendor6cordio3GapINS_7generic10GenericGapIS4_NS0_15SecurityManagerINS3_21CordioSecurityManagerINS5_22GenericSecurityManagerIS8_NS_6vendor6cordio19SigningEventMonitorEEEEESD_EESD_EEEESG_E20set_advertising_dataEhRKNS0_18advertising_data_tE
00000000 W _ZN3ble3pal3GapINS0_6vendor6cordio3GapINS_7generic10GenericGapIS4_NS0_15SecurityManagerINS3_21CordioSecurityManagerINS5_22GenericSecurityManagerIS8_NS_6vendor6cordio19SigningEventMonitorEEEEESD_EESD_EEEESG_E22set_scan_response_dataEhRKNS0_18advertising_data_tE
00000000 W _ZN3ble3pal3GapINS0_6vendor6cordio3GapINS_7generic10GenericGapIS4_NS0_15SecurityManagerINS3_21CordioSecurityManagerINS5_22GenericSecurityManagerIS8_NS_6vendor6cordio19SigningEventMonitorEEEEESD_EESD_EEEESG_E29set_extended_advertising_dataEhNS0_34advertising_fragment_description_tEbhPKh
00000000 W _ZN3ble3pal3GapINS0_6vendor6cordio3GapINS_7generic10GenericGapIS4_NS0_15SecurityManagerINS3_21CordioSecurityManagerINS5_22GenericSecurityManagerIS8_NS_6vendor6cordio19SigningEventMonitorEEEEESD_EESD_EEEESG_E31set_extended_scan_response_dataEhNS0_34advertising_fragment_description_tEbhPKh
00000000 t _ZN3ble3pal6vendor6cordio12_GLOBAL__N_123dummy_gap_event_handlerEPK11wsfMsgHdr_t
00000000 W _ZN3ble3pal6vendor6cordio15CordioAttClientD1Ev
00000000 W _ZN3ble3pal6vendor6cordio15CordioAttClientD2Ev
00000000 n _ZN3ble3pal6vendor6cordio15CordioAttClientD5Ev
00000000 W _ZN3ble3pal6vendor6cordio16CordioGattClientINS_7generic17GenericGattClientIS3_NS4_22GenericSecurityManagerINS2_21CordioSecurityManagerENS_6vendor6cordio19SigningEventMonitorEEEEEEC1ERNS2_15CordioAttClientE
00000000 W _ZN3ble3pal6vendor6cordio16CordioGattClientINS_7generic17GenericGattClientIS3_NS4_22GenericSecurityManagerINS2_21CordioSecurityManagerENS_6vendor6cordio19SigningEventMonitorEEEEEEC2ERNS2_15CordioAttClientE
00000000 n _ZN3ble3pal6vendor6cordio16CordioGattClientINS_7generic17GenericGattClientIS3_NS4_22GenericSecurityManagerINS2_21CordioSecurityManagerENS_6vendor6cordio19SigningEventMonitorEEEEEEC5ERNS2_15CordioAttClientE
00000000 W _ZN3ble3pal6vendor6cordio21CordioSecurityManagerINS_7generic22GenericSecurityManagerIS3_NS_6vendor6cordio19SigningEventMonitorEEEE10sm_handlerEPK11wsfMsgHdr_t
00000000 W _ZN3ble3pal6vendor6cordio21CordioSecurityManagerINS_7generic22GenericSecurityManagerIS3_NS_6vendor6cordio19SigningEventMonitorEEEE10terminate_Ev
00000000 W _ZN3ble3pal6vendor6cordio21CordioSecurityManagerINS_7generic22GenericSecurityManagerIS3_NS_6vendor6cordio19SigningEventMonitorEEEE11initialize_Ev
00000000 W _ZN3ble3pal6vendor6cordio21CordioSecurityManagerINS_7generic22GenericSecurityManagerIS3_NS_6vendor6cordio19SigningEventMonitorEEEE13encrypt_data_ERKNS_12byte_array_tILj16EEERSC_
00000000 W _ZN3ble3pal6vendor6cordio21CordioSecurityManagerINS_7generic22GenericSecurityManagerIS3_NS_6vendor6cordio19SigningEventMonitorEEEE14set_peer_csrk_EjRKNS_12byte_array_tILj16EEEbm
00000000 W _ZN3ble3pal6vendor6cordio21CordioSecurityManagerINS_7generic22GenericSecurityManagerIS3_NS_6vendor6cordio19SigningEventMonitorEEEE15cancel_pairing_EjNS_17pairing_failure_tE
00000000 W _ZN3ble3pal6vendor6cordio21CordioSecurityManagerINS_7generic22GenericSecurityManagerIS3_NS_6vendor6cordio19SigningEventMonitorEEEE16get_random_data_ERNS_12byte_array_tILj8EEE
00000000 W _ZN3ble3pal6vendor6cordio21CordioSecurityManagerINS_7generic22GenericSecurityManagerIS3_NS_6vendor6cordio19SigningEventMonitorEEEE17remove_peer_csrk_Ej
00000000 W _ZN3ble3pal6vendor6cordio21CordioSecurityManagerINS_7generic22GenericSecurityManagerIS3_NS_6vendor6cordio19SigningEventMonitorEEEE18cleanup_peer_csrksEv
00000000 W _ZN3ble3pal6vendor6cordio21CordioSecurityManagerINS_7generic22GenericSecurityManagerIS3_NS_6vendor6cordio19SigningEventMonitorEEEE18enable_encryption_EjRKNS_12byte_array_tILj16EEEb
00000000 W _ZN3ble3pal6vendor6cordio21CordioSecurityManagerINS_7generic22GenericSecurityManagerIS3_NS_6vendor6cordio19SigningEventMonitorEEEE18enable_encryption_EjRKNS_12byte_array_tILj16EEERKNSB_ILj8EEERKNSB_ILj2EEEb
00000000 W _ZN3ble3pal6vendor6cordio21CordioSecurityManagerINS_7generic22GenericSecurityManagerIS3_NS_6vendor6cordio19SigningEventMonitorEEEE18set_io_capability_ENS_15io_capability_tE
00000000 W _ZN3ble3pal6vendor6cordio21CordioSecurityManagerINS_7generic22GenericSecurityManagerIS3_NS_6vendor6cordio19SigningEventMonitorEEEE18set_ltk_not_found_Ej
00000000 W _ZN3ble3pal6vendor6cordio21CordioSecurityManagerINS_7generic22GenericSecurityManagerIS3_NS_6vendor6cordio19SigningEventMonitorEEEE19PrivacyControlBlock8set_nextEPSB_
00000000 W _ZN3ble3pal6vendor6cordio21CordioSecurityManagerINS_7generic22GenericSecurityManagerIS3_NS_6vendor6cordio19SigningEventMonitorEEEE19PrivacyControlBlockC1Ev
00000000 W _ZN3ble3pal6vendor6cordio21CordioSecurityManagerINS_7generic22GenericSecurityManagerIS3_NS_6vendor6cordio19SigningEventMonitorEEEE19PrivacyControlBlockC2Ev
00000000 n _ZN3ble3pal6vendor6cordio21CordioSecurityManagerINS_7generic22GenericSecurityManagerIS3_NS_6vendor6cordio19SigningEventMonitorEEEE19PrivacyControlBlockC5Ev
00000000 W _ZN3ble3pal6vendor6cordio21CordioSecurityManagerINS_7generic22GenericSecurityManagerIS3_NS_6vendor6cordio19SigningEventMonitorEEEE19PrivacyControlBlockD0Ev
00000000 W _ZN3ble3pal6vendor6cordio21CordioSecurityManagerINS_7generic22GenericSecurityManagerIS3_NS_6vendor6cordio19SigningEventMonitorEEEE19PrivacyControlBlockD1Ev
00000000 W _ZN3ble3pal6vendor6cordio21CordioSecurityManagerINS_7generic22GenericSecurityManagerIS3_NS_6vendor6cordio19SigningEventMonitorEEEE19PrivacyControlBlockD2Ev
00000000 n _ZN3ble3pal6vendor6cordio21CordioSecurityManagerINS_7generic22GenericSecurityManagerIS3_NS_6vendor6cordio19SigningEventMonitorEEEE19PrivacyControlBlockD5Ev
00000000 W _ZN3ble3pal6vendor6cordio21CordioSecurityManagerINS_7generic22GenericSecurityManagerIS3_NS_6vendor6cordio19SigningEventMonitorEEEE20get_security_managerEv
00000000 W _ZN3ble3pal6vendor6cordio21CordioSecurityManagerINS_7generic22GenericSecurityManagerIS3_NS_6vendor6cordio19SigningEventMonitorEEEE20set_display_passkey_Em
00000000 W _ZN3ble3pal6vendor6cordio21CordioSecurityManagerINS_7generic22GenericSecurityManagerIS3_NS_6vendor6cordio19SigningEventMonitorEEEE21clear_resolving_list_Ev
00000000 W _ZN3ble3pal6vendor6cordio21CordioSecurityManagerINS_7generic22GenericSecurityManagerIS3_NS_6vendor6cordio19SigningEventMonitorEEEE21confirmation_entered_Ejb
00000000 W _ZN3ble3pal6vendor6cordio21CordioSecurityManagerINS_7generic22GenericSecurityManagerIS3_NS_6vendor6cordio19SigningEventMonitorEEEE21send_pairing_request_EjbNS0_18AuthenticationMaskENS0_15KeyDistributionESC_
00000000 W _ZN3ble3pal6vendor6cordio21CordioSecurityManagerINS_7generic22GenericSecurityManagerIS3_NS_6vendor6cordio19SigningEventMonitorEEEE22passkey_request_reply_Ejm
00000000 W _ZN3ble3pal6vendor6cordio21CordioSecurityManagerINS_7generic22GenericSecurityManagerIS3_NS_6vendor6cordio19SigningEventMonitorEEEE22send_pairing_response_EjbNS0_18AuthenticationMaskENS0_15KeyDistributionESC_
00000000 W _ZN3ble3pal6vendor6cordio21CordioSecurityManagerINS_7generic22GenericSecurityManagerIS3_NS_6vendor6cordio19SigningEventMonitorEEEE23slave_security_request_EjNS0_18AuthenticationMaskE
00000000 W _ZN3ble3pal6vendor6cordio21CordioSecurityManagerINS_7generic22GenericSecurityManagerIS3_NS_6vendor6cordio19SigningEventMonitorEEEE26queue_clear_resolving_listEv
00000000 W _ZN3ble3pal6vendor6cordio21CordioSecurityManagerINS_7generic22GenericSecurityManagerIS3_NS_6vendor6cordio19SigningEventMonitorEEEE27get_authentication_timeout_EjRt
00000000 W _ZN3ble3pal6vendor6cordio21CordioSecurityManagerINS_7generic22GenericSecurityManagerIS3_NS_6vendor6cordio19SigningEventMonitorEEEE27queue_privacy_control_blockEPNSA_19PrivacyControlBlockE
00000000 W _ZN3ble3pal6vendor6cordio21CordioSecurityManagerINS_7generic22GenericSecurityManagerIS3_NS_6vendor6cordio19SigningEventMonitorEEEE27send_keypress_notification_EjNS_9interface15SecurityManagerIS9_E10Keypress_tE
00000000 W _ZN3ble3pal6vendor6cordio21CordioSecurityManagerINS_7generic22GenericSecurityManagerIS3_NS_6vendor6cordio19SigningEventMonitorEEEE27set_authentication_timeout_Ejt
00000000 W _ZN3ble3pal6vendor6cordio21CordioSecurityManagerINS_7generic22GenericSecurityManagerIS3_NS_6vendor6cordio19SigningEventMonitorEEEE28clear_privacy_control_blocksEv
00000000 W _ZN3ble3pal6vendor6cordio21CordioSecurityManagerINS_7generic22GenericSecurityManagerIS3_NS_6vendor6cordio19SigningEventMonitorEEEE28set_private_address_timeout_Et
00000000 W _ZN3ble3pal6vendor6cordio21CordioSecurityManagerINS_7generic22GenericSecurityManagerIS3_NS_6vendor6cordio19SigningEventMonitorEEEE29add_device_to_resolving_list_ENS_26target_peer_address_type_tERKNS_9address_tERKNS_12byte_array_tILj16EEE
00000000 W _ZN3ble3pal6vendor6cordio21CordioSecurityManagerINS_7generic22GenericSecurityManagerIS3_NS_6vendor6cordio19SigningEventMonitorEEEE29read_resolving_list_capacity_Ev
00000000 W _ZN3ble3pal6vendor6cordio21CordioSecurityManagerINS_7generic22GenericSecurityManagerIS3_NS_6vendor6cordio19SigningEventMonitorEEEE30process_privacy_control_blocksEb
00000000 W _ZN3ble3pal6vendor6cordio21CordioSecurityManagerINS_7generic22GenericSecurityManagerIS3_NS_6vendor6cordio19SigningEventMonitorEEEE31get_secure_connections_support_ERb
00000000 W _ZN3ble3pal6vendor6cordio21CordioSecurityManagerINS_7generic22GenericSecurityManagerIS3_NS_6vendor6cordio19SigningEventMonitorEEEE31PrivacyClearResListControlBlock7executeEv
00000000 W _ZN3ble3pal6vendor6cordio21CordioSecurityManagerINS_7generic22GenericSecurityManagerIS3_NS_6vendor6cordio19SigningEventMonitorEEEE31PrivacyClearResListControlBlockC1Ev
00000000 W _ZN3ble3pal6vendor6cordio21CordioSecurityManagerINS_7generic22GenericSecurityManagerIS3_NS_6vendor6cordio19SigningEventMonitorEEEE31PrivacyClearResListControlBlockC2Ev
00000000 n _ZN3ble3pal6vendor6cordio21CordioSecurityManagerINS_7generic22GenericSecurityManagerIS3_NS_6vendor6cordio19SigningEventMonitorEEEE31PrivacyClearResListControlBlockC5Ev
00000000 W _ZN3ble3pal6vendor6cordio21CordioSecurityManagerINS_7generic22GenericSecurityManagerIS3_NS_6vendor6cordio19SigningEventMonitorEEEE31PrivacyClearResListControlBlockD0Ev
00000000 W _ZN3ble3pal6vendor6cordio21CordioSecurityManagerINS_7generic22GenericSecurityManagerIS3_NS_6vendor6cordio19SigningEventMonitorEEEE31PrivacyClearResListControlBlockD1Ev
00000000 W _ZN3ble3pal6vendor6cordio21CordioSecurityManagerINS_7generic22GenericSecurityManagerIS3_NS_6vendor6cordio19SigningEventMonitorEEEE31PrivacyClearResListControlBlockD2Ev
00000000 n _ZN3ble3pal6vendor6cordio21CordioSecurityManagerINS_7generic22GenericSecurityManagerIS3_NS_6vendor6cordio19SigningEventMonitorEEEE31PrivacyClearResListControlBlockD5Ev
00000000 W _ZN3ble3pal6vendor6cordio21CordioSecurityManagerINS_7generic22GenericSecurityManagerIS3_NS_6vendor6cordio19SigningEventMonitorEEEE32generate_secure_connections_oob_Ev
00000000 W _ZN3ble3pal6vendor6cordio21CordioSecurityManagerINS_7generic22GenericSecurityManagerIS3_NS_6vendor6cordio19SigningEventMonitorEEEE32set_encryption_key_requirements_Ehh
00000000 W _ZN3ble3pal6vendor6cordio21CordioSecurityManagerINS_7generic22GenericSecurityManagerIS3_NS_6vendor6cordio19SigningEventMonitorEEEE33legacy_pairing_oob_request_reply_EjRKNS_12byte_array_tILj16EEE
00000000 W _ZN3ble3pal6vendor6cordio21CordioSecurityManagerINS_7generic22GenericSecurityManagerIS3_NS_6vendor6cordio19SigningEventMonitorEEEE34PrivacyAddDevToResListControlBlock7executeEv
00000000 W _ZN3ble3pal6vendor6cordio21CordioSecurityManagerINS_7generic22GenericSecurityManagerIS3_NS_6vendor6cordio19SigningEventMonitorEEEE34PrivacyAddDevToResListControlBlockC1ENS_26target_peer_address_type_tERKNS_9address_tERKNS_12byte_array_tILj16EEE
00000000 W _ZN3ble3pal6vendor6cordio21CordioSecurityManagerINS_7generic22GenericSecurityManagerIS3_NS_6vendor6cordio19SigningEventMonitorEEEE34PrivacyAddDevToResListControlBlockC2ENS_26target_peer_address_type_tERKNS_9address_tERKNS_12byte_array_tILj16EEE
00000000 n _ZN3ble3pal6vendor6cordio21CordioSecurityManagerINS_7generic22GenericSecurityManagerIS3_NS_6vendor6cordio19SigningEventMonitorEEEE34PrivacyAddDevToResListControlBlockC5ENS_26target_peer_address_type_tERKNS_9address_tERKNS_12byte_array_tILj16EEE
00000000 W _ZN3ble3pal6vendor6cordio21CordioSecurityManagerINS_7generic22GenericSecurityManagerIS3_NS_6vendor6cordio19SigningEventMonitorEEEE34PrivacyAddDevToResListControlBlockD0Ev
00000000 W _ZN3ble3pal6vendor6cordio21CordioSecurityManagerINS_7generic22GenericSecurityManagerIS3_NS_6vendor6cordio19SigningEventMonitorEEEE34PrivacyAddDevToResListControlBlockD1Ev
00000000 W _ZN3ble3pal6vendor6cordio21CordioSecurityManagerINS_7generic22GenericSecurityManagerIS3_NS_6vendor6cordio19SigningEventMonitorEEEE34PrivacyAddDevToResListControlBlockD2Ev
00000000 n _ZN3ble3pal6vendor6cordio21CordioSecurityManagerINS_7generic22GenericSecurityManagerIS3_NS_6vendor6cordio19SigningEventMonitorEEEE34PrivacyAddDevToResListControlBlockD5Ev
00000000 W _ZN3ble3pal6vendor6cordio21CordioSecurityManagerINS_7generic22GenericSecurityManagerIS3_NS_6vendor6cordio19SigningEventMonitorEEEE34queue_add_device_to_resolving_listENS_26target_peer_address_type_tERKNS_9address_tERKNS_12byte_array_tILj16EEE
00000000 W _ZN3ble3pal6vendor6cordio21CordioSecurityManagerINS_7generic22GenericSecurityManagerIS3_NS_6vendor6cordio19SigningEventMonitorEEEE34remove_device_from_resolving_list_ENS_26target_peer_address_type_tERKNS_9address_tE
00000000 W _ZN3ble3pal6vendor6cordio21CordioSecurityManagerINS_7generic22GenericSecurityManagerIS3_NS_6vendor6cordio19SigningEventMonitorEEEE37secure_connections_oob_request_reply_EjRKNS_12byte_array_tILj16EEESE_SE_
00000000 W _ZN3ble3pal6vendor6cordio21CordioSecurityManagerINS_7generic22GenericSecurityManagerIS3_NS_6vendor6cordio19SigningEventMonitorEEEE39PrivacyRemoveDevFromResListControlBlock7executeEv
00000000 W _ZN3ble3pal6vendor6cordio21CordioSecurityManagerINS_7generic22GenericSecurityManagerIS3_NS_6vendor6cordio19SigningEventMonitorEEEE39PrivacyRemoveDevFromResListControlBlockC1ENS_26target_peer_address_type_tERKNS_9address_tE
00000000 W _ZN3ble3pal6vendor6cordio21CordioSecurityManagerINS_7generic22GenericSecurityManagerIS3_NS_6vendor6cordio19SigningEventMonitorEEEE39PrivacyRemoveDevFromResListControlBlockC2ENS_26target_peer_address_type_tERKNS_9address_tE
00000000 n _ZN3ble3pal6vendor6cordio21CordioSecurityManagerINS_7generic22GenericSecurityManagerIS3_NS_6vendor6cordio19SigningEventMonitorEEEE39PrivacyRemoveDevFromResListControlBlockC5ENS_26target_peer_address_type_tERKNS_9address_tE
00000000 W _ZN3ble3pal6vendor6cordio21CordioSecurityManagerINS_7generic22GenericSecurityManagerIS3_NS_6vendor6cordio19SigningEventMonitorEEEE39PrivacyRemoveDevFromResListControlBlockD0Ev
00000000 W _ZN3ble3pal6vendor6cordio21CordioSecurityManagerINS_7generic22GenericSecurityManagerIS3_NS_6vendor6cordio19SigningEventMonitorEEEE39PrivacyRemoveDevFromResListControlBlockD1Ev
00000000 W _ZN3ble3pal6vendor6cordio21CordioSecurityManagerINS_7generic22GenericSecurityManagerIS3_NS_6vendor6cordio19SigningEventMonitorEEEE39PrivacyRemoveDevFromResListControlBlockD2Ev
00000000 n _ZN3ble3pal6vendor6cordio21CordioSecurityManagerINS_7generic22GenericSecurityManagerIS3_NS_6vendor6cordio19SigningEventMonitorEEEE39PrivacyRemoveDevFromResListControlBlockD5Ev
00000000 W _ZN3ble3pal6vendor6cordio21CordioSecurityManagerINS_7generic22GenericSecurityManagerIS3_NS_6vendor6cordio19SigningEventMonitorEEEE39queue_remove_device_from_resolving_listENS_26target_peer_address_type_tERKNS_9address_tE
00000000 W _ZN3ble3pal6vendor6cordio21CordioSecurityManagerINS_7generic22GenericSecurityManagerIS3_NS_6vendor6cordio19SigningEventMonitorEEEE6reset_Ev
00000000 W _ZN3ble3pal6vendor6cordio21CordioSecurityManagerINS_7generic22GenericSecurityManagerIS3_NS_6vendor6cordio19SigningEventMonitorEEEE8set_irk_ERKNS_12byte_array_tILj16EEE
00000000 W _ZN3ble3pal6vendor6cordio21CordioSecurityManagerINS_7generic22GenericSecurityManagerIS3_NS_6vendor6cordio19SigningEventMonitorEEEE8set_ltk_EjRKNS_12byte_array_tILj16EEEbb
00000000 W _ZN3ble3pal6vendor6cordio21CordioSecurityManagerINS_7generic22GenericSecurityManagerIS3_NS_6vendor6cordio19SigningEventMonitorEEEE9set_csrk_ERKNS_12byte_array_tILj16EEEm
00000000 W _ZN3ble3pal6vendor6cordio21CordioSecurityManagerINS_7generic22GenericSecurityManagerIS3_NS_6vendor6cordio19SigningEventMonitorEEEEC1Ev
00000000 W _ZN3ble3pal6vendor6cordio21CordioSecurityManagerINS_7generic22GenericSecurityManagerIS3_NS_6vendor6cordio19SigningEventMonitorEEEEC2Ev
00000000 n _ZN3ble3pal6vendor6cordio21CordioSecurityManagerINS_7generic22GenericSecurityManagerIS3_NS_6vendor6cordio19SigningEventMonitorEEEEC5Ev
00000000 W _ZN3ble3pal6vendor6cordio21CordioSecurityManagerINS_7generic22GenericSecurityManagerIS3_NS_6vendor6cordio19SigningEventMonitorEEEED1Ev
00000000 W _ZN3ble3pal6vendor6cordio21CordioSecurityManagerINS_7generic22GenericSecurityManagerIS3_NS_6vendor6cordio19SigningEventMonitorEEEED2Ev
00000000 n _ZN3ble3pal6vendor6cordio21CordioSecurityManagerINS_7generic22GenericSecurityManagerIS3_NS_6vendor6cordio19SigningEventMonitorEEEED5Ev
00000000 W _ZN3ble3pal6vendor6cordio3GapINS_7generic10GenericGapIS3_NS0_15SecurityManagerINS2_21CordioSecurityManagerINS4_22GenericSecurityManagerIS7_NS_6vendor6cordio19SigningEventMonitorEEEEESC_EESC_EEE10terminate_Ev
00000000 W _ZN3ble3pal6vendor6cordio3GapINS_7generic10GenericGapIS3_NS0_15SecurityManagerINS2_21CordioSecurityManagerINS4_22GenericSecurityManagerIS7_NS_6vendor6cordio19SigningEventMonitorEEEEESC_EESC_EEE11disconnect_EjNS_28local_disconnection_reason_tE
00000000 W _ZN3ble3pal6vendor6cordio3GapINS_7generic10GenericGapIS3_NS0_15SecurityManagerINS2_21CordioSecurityManagerINS4_22GenericSecurityManagerIS7_NS_6vendor6cordio19SigningEventMonitorEEEEESC_EESC_EEE11gap_handlerEPK11wsfMsgHdr_t
00000000 W _ZN3ble3pal6vendor6cordio3GapINS_7generic10GenericGapIS3_NS0_15SecurityManagerINS2_21CordioSecurityManagerINS4_22GenericSecurityManagerIS7_NS_6vendor6cordio19SigningEventMonitorEEEEESC_EESC_EEE11initialize_Ev
00000000 W _ZN3ble3pal6vendor6cordio3GapINS_7generic10GenericGapIS3_NS0_15SecurityManagerINS2_21CordioSecurityManagerINS4_22GenericSecurityManagerIS7_NS_6vendor6cordio19SigningEventMonitorEEEEESC_EESC_EEE12scan_enable_Ebb
00000000 W _ZN3ble3pal6vendor6cordio3GapINS_7generic10GenericGapIS3_NS0_15SecurityManagerINS2_21CordioSecurityManagerINS4_22GenericSecurityManagerIS7_NS_6vendor6cordio19SigningEventMonitorEEEEESC_EESC_EEE13event_handlerINSG_29DisconnectionMessageConverterEEEbPK11wsfMsgHdr_t
00000000 W _ZN3ble3pal6vendor6cordio3GapINS_7generic10GenericGapIS3_NS0_15SecurityManagerINS2_21CordioSecurityManagerINS4_22GenericSecurityManagerIS7_NS_6vendor6cordio19SigningEventMonitorEEEEESC_EESC_EEE13event_handlerINSG_32ConnectionUpdateMessageConverterEEEbPK11wsfMsgHdr_t
00000000 W _ZN3ble3pal6vendor6cordio3GapINS_7generic10GenericGapIS3_NS0_15SecurityManagerINS2_21CordioSecurityManagerINS4_22GenericSecurityManagerIS7_NS_6vendor6cordio19SigningEventMonitorEEEEESC_EESC_EEE13event_handlerINSG_34ConnectionCompleteMessageConverterEEEbPK11wsfMsgHdr_t
00000000 W _ZN3ble3pal6vendor6cordio3GapINS_7generic10GenericGapIS3_NS0_15SecurityManagerINS2_21CordioSecurityManagerINS4_22GenericSecurityManagerIS7_NS_6vendor6cordio19SigningEventMonitorEEEEESC_EESC_EEE13event_handlerINSG_36GapAdvertisingReportMessageConverterEEEbPK11wsfMsgHdr_t
00000000 W _ZN3ble3pal6vendor6cordio3GapINS_7generic10GenericGapIS3_NS0_15SecurityManagerINS2_21CordioSecurityManagerINS4_22GenericSecurityManagerIS7_NS_6vendor6cordio19SigningEventMonitorEEEEESC_EESC_EEE13event_handlerINSG_48RemoteConnectionParameterRequestMessageConverterEEEbPK11wsfMsgHdr_t
00000000 W _ZN3ble3pal6vendor6cordio3GapINS_7generic10GenericGapIS3_NS0_15SecurityManagerINS2_21CordioSecurityManagerINS4_22GenericSecurityManagerIS7_NS_6vendor6cordio19SigningEventMonitorEEEEESC_EESC_EEE16clear_whitelist_Ev
00000000 W _ZN3ble3pal6vendor6cordio3GapINS_7generic10GenericGapIS3_NS0_15SecurityManagerINS2_21CordioSecurityManagerINS4_22GenericSecurityManagerIS7_NS_6vendor6cordio19SigningEventMonitorEEEEESC_EESC_EEE18create_connection_EttNS_25initiator_filter_policy_tENS0_30connection_peer_address_type_tERKNS_9address_tENS_18own_address_type_tEtttttt
00000000 W _ZN3ble3pal6vendor6cordio3GapINS_7generic10GenericGapIS3_NS0_15SecurityManagerINS2_21CordioSecurityManagerINS4_22GenericSecurityManagerIS7_NS_6vendor6cordio19SigningEventMonitorEEEEESC_EESC_EEE19advertising_enable_Eb
00000000 W _ZN3ble3pal6vendor6cordio3GapINS_7generic10GenericGapIS3_NS0_15SecurityManagerINS2_21CordioSecurityManagerINS4_22GenericSecurityManagerIS7_NS_6vendor6cordio19SigningEventMonitorEEEEESC_EESC_EEE19get_device_address_Ev
00000000 W _ZN3ble3pal6vendor6cordio3GapINS_7generic10GenericGapIS3_NS0_15SecurityManagerINS2_21CordioSecurityManagerINS4_22GenericSecurityManagerIS7_NS_6vendor6cordio19SigningEventMonitorEEEEESC_EESC_EEE19get_random_address_Ev
00000000 W _ZN3ble3pal6vendor6cordio3GapINS_7generic10GenericGapIS3_NS0_15SecurityManagerINS2_21CordioSecurityManagerINS4_22GenericSecurityManagerIS7_NS_6vendor6cordio19SigningEventMonitorEEEEESC_EESC_EEE19set_preferred_phys_ERKNS_9phy_set_tESJ_
00000000 W _ZN3ble3pal6vendor6cordio3GapINS_7generic10GenericGapIS3_NS0_15SecurityManagerINS2_21CordioSecurityManagerINS4_22GenericSecurityManagerIS7_NS_6vendor6cordio19SigningEventMonitorEEEEESC_EESC_EEE19set_random_address_ERKNS_9address_tE
00000000 W _ZN3ble3pal6vendor6cordio3GapINS_7generic10GenericGapIS3_NS0_15SecurityManagerINS2_21CordioSecurityManagerINS4_22GenericSecurityManagerIS7_NS_6vendor6cordio19SigningEventMonitorEEEEESC_EESC_EEE20set_scan_parameters_EbttNS_18own_address_type_tENS_24scanning_filter_policy_tE
00000000 W _ZN3ble3pal6vendor6cordio3GapINS_7generic10GenericGapIS3_NS0_15SecurityManagerINS2_21CordioSecurityManagerINS4_22GenericSecurityManagerIS7_NS_6vendor6cordio19SigningEventMonitorEEEEESC_EESC_EEE21extended_scan_enable_EbNS_19duplicates_filter_tEtt
00000000 W _ZN3ble3pal6vendor6cordio3GapINS_7generic10GenericGapIS3_NS0_15SecurityManagerINS2_21CordioSecurityManagerINS4_22GenericSecurityManagerIS7_NS_6vendor6cordio19SigningEventMonitorEEEEESC_EESC_EEE21is_feature_supported_ENS_31controller_supported_features_tE
00000000 W _ZN3ble3pal6vendor6cordio3GapINS_7generic10GenericGapIS3_NS0_15SecurityManagerINS2_21CordioSecurityManagerINS4_22GenericSecurityManagerIS7_NS_6vendor6cordio19SigningEventMonitorEEEEESC_EESC_EEE21is_privacy_supported_Ev
00000000 W _ZN3ble3pal6vendor6cordio3GapINS_7generic10GenericGapIS3_NS0_15SecurityManagerINS2_21CordioSecurityManagerINS4_22GenericSecurityManagerIS7_NS_6vendor6cordio19SigningEventMonitorEEEEESC_EESC_EEE21set_advertising_data_EhRKNS0_18advertising_data_tE
00000000 W _ZN3ble3pal6vendor6cordio3GapINS_7generic10GenericGapIS3_NS0_15SecurityManagerINS2_21CordioSecurityManagerINS4_22GenericSecurityManagerIS7_NS_6vendor6cordio19SigningEventMonitorEEEEESC_EESC_EEE23clear_advertising_sets_Ev
00000000 W _ZN3ble3pal6vendor6cordio3GapINS_7generic10GenericGapIS3_NS0_15SecurityManagerINS2_21CordioSecurityManagerINS4_22GenericSecurityManagerIS7_NS_6vendor6cordio19SigningEventMonitorEEEEESC_EESC_EEE23remove_advertising_set_Eh
00000000 W _ZN3ble3pal6vendor6cordio3GapINS_7generic10GenericGapIS3_NS0_15SecurityManagerINS2_21CordioSecurityManagerINS4_22GenericSecurityManagerIS7_NS_6vendor6cordio19SigningEventMonitorEEEEESC_EESC_EEE23set_address_resolution_Eb
00000000 W _ZN3ble3pal6vendor6cordio3GapINS_7generic10GenericGapIS3_NS0_15SecurityManagerINS2_21CordioSecurityManagerINS4_22GenericSecurityManagerIS7_NS_6vendor6cordio19SigningEventMonitorEEEEESC_EESC_EEE23set_scan_response_data_EhRKNS0_18advertising_data_tE
00000000 W _ZN3ble3pal6vendor6cordio3GapINS_7generic10GenericGapIS3_NS0_15SecurityManagerINS2_21CordioSecurityManagerINS4_22GenericSecurityManagerIS7_NS_6vendor6cordio19SigningEventMonitorEEEEESC_EESC_EEE24add_device_to_whitelist_ENS0_24whitelist_address_type_tENS_9address_tE
00000000 W _ZN3ble3pal6vendor6cordio3GapINS_7generic10GenericGapIS3_NS0_15SecurityManagerINS2_21CordioSecurityManagerINS4_22GenericSecurityManagerIS7_NS_6vendor6cordio19SigningEventMonitorEEEEESC_EESC_EEE25read_white_list_capacity_Ev
00000000 W _ZN3ble3pal6vendor6cordio3GapINS_7generic10GenericGapIS3_NS0_15SecurityManagerINS2_21CordioSecurityManagerINS4_22GenericSecurityManagerIS7_NS_6vendor6cordio19SigningEventMonitorEEEEESC_EESC_EEE27cancel_connection_creation_Ev
00000000 W _ZN3ble3pal6vendor6cordio3GapINS_7generic10GenericGapIS3_NS0_15SecurityManagerINS2_21CordioSecurityManagerINS4_22GenericSecurityManagerIS7_NS_6vendor6cordio19SigningEventMonitorEEEEESC_EESC_EEE27extended_create_connection_ENS_25initiator_filter_policy_tENS_18own_address_type_tENS_19peer_address_type_tERKNS_9address_tENS_9phy_set_tEPKtSP_SP_SP_SP_SP_SP_SP_
00000000 W _ZN3ble3pal6vendor6cordio3GapINS_7generic10GenericGapIS3_NS0_15SecurityManagerINS2_21CordioSecurityManagerINS4_22GenericSecurityManagerIS7_NS_6vendor6cordio19SigningEventMonitorEEEEESC_EESC_EEE27set_advertising_parameters_EttNS_18advertising_type_tENS_18own_address_type_tENS_26target_peer_address_type_tERKNS_9address_tENS0_25advertising_channel_map_tENS_27advertising_filter_policy_tE
00000000 W _ZN3ble3pal6vendor6cordio3GapINS_7generic10GenericGapIS3_NS0_15SecurityManagerINS2_21CordioSecurityManagerINS4_22GenericSecurityManagerIS7_NS_6vendor6cordio19SigningEventMonitorEEEEESC_EESC_EEE28extended_advertising_enable_EbhPKhPKtSI_
00000000 W _ZN3ble3pal6vendor6cordio3GapINS_7generic10GenericGapIS3_NS0_15SecurityManagerINS2_21CordioSecurityManagerINS4_22GenericSecurityManagerIS7_NS_6vendor6cordio19SigningEventMonitorEEEEESC_EESC_EEE28periodic_advertising_enable_Ebh
00000000 W _ZN3ble3pal6vendor6cordio3GapINS_7generic10GenericGapIS3_NS0_15SecurityManagerINS2_21CordioSecurityManagerINS4_22GenericSecurityManagerIS7_NS_6vendor6cordio19SigningEventMonitorEEEEESC_EESC_EEE29connection_parameters_update_Ejtttttt
00000000 W _ZN3ble3pal6vendor6cordio3GapINS_7generic10GenericGapIS3_NS0_15SecurityManagerINS2_21CordioSecurityManagerINS4_22GenericSecurityManagerIS7_NS_6vendor6cordio19SigningEventMonitorEEEEESC_EESC_EEE29DisconnectionMessageConverter7convertEPK22hciDisconnectCmplEvt_t
00000000 W _ZN3ble3pal6vendor6cordio3GapINS_7generic10GenericGapIS3_NS0_15SecurityManagerINS2_21CordioSecurityManagerINS4_22GenericSecurityManagerIS7_NS_6vendor6cordio19SigningEventMonitorEEEEESC_EESC_EEE29remove_device_from_whitelist_ENS0_24whitelist_address_type_tENS_9address_tE
00000000 W _ZN3ble3pal6vendor6cordio3GapINS_7generic10GenericGapIS3_NS0_15SecurityManagerINS2_21CordioSecurityManagerINS4_22GenericSecurityManagerIS7_NS_6vendor6cordio19SigningEventMonitorEEEEESC_EESC_EEE29set_extended_scan_parameters_ENS_18own_address_type_tENS_24scanning_filter_policy_tENS_9phy_set_tEPKbPKtSN_
00000000 W _ZN3ble3pal6vendor6cordio3GapINS_7generic10GenericGapIS3_NS0_15SecurityManagerINS2_21CordioSecurityManagerINS4_22GenericSecurityManagerIS7_NS_6vendor6cordio19SigningEventMonitorEEEEESC_EESC_EEE30set_extended_advertising_data_EhNS0_34advertising_fragment_description_tEbhPKh
00000000 W _ZN3ble3pal6vendor6cordio3GapINS_7generic10GenericGapIS3_NS0_15SecurityManagerINS2_21CordioSecurityManagerINS4_22GenericSecurityManagerIS7_NS_6vendor6cordio19SigningEventMonitorEEEEESC_EESC_EEE30set_periodic_advertising_data_EhNS0_34advertising_fragment_description_tEhPKh
00000000 W _ZN3ble3pal6vendor6cordio3GapINS_7generic10GenericGapIS3_NS0_15SecurityManagerINS2_21CordioSecurityManagerINS4_22GenericSecurityManagerIS7_NS_6vendor6cordio19SigningEventMonitorEEEEESC_EESC_EEE31clear_periodic_advertiser_list_Ev
00000000 W _ZN3ble3pal6vendor6cordio3GapINS_7generic10GenericGapIS3_NS0_15SecurityManagerINS2_21CordioSecurityManagerINS4_22GenericSecurityManagerIS7_NS_6vendor6cordio19SigningEventMonitorEEEEESC_EESC_EEE32ConnectionUpdateMessageConverter7convertEPK24hciLeConnUpdateCmplEvt_t
00000000 W _ZN3ble3pal6vendor6cordio3GapINS_7generic10GenericGapIS3_NS0_15SecurityManagerINS2_21CordioSecurityManagerINS4_22GenericSecurityManagerIS7_NS_6vendor6cordio19SigningEventMonitorEEEEESC_EESC_EEE32set_extended_scan_response_data_EhNS0_34advertising_fragment_description_tEbhPKh
00000000 W _ZN3ble3pal6vendor6cordio3GapINS_7generic10GenericGapIS3_NS0_15SecurityManagerINS2_21CordioSecurityManagerINS4_22GenericSecurityManagerIS7_NS_6vendor6cordio19SigningEventMonitorEEEEESC_EESC_EEE33periodic_advertising_create_sync_EbhNS_19peer_address_type_tERKNS_9address_tEtt
00000000 W _ZN3ble3pal6vendor6cordio3GapINS_7generic10GenericGapIS3_NS0_15SecurityManagerINS2_21CordioSecurityManagerINS4_22GenericSecurityManagerIS7_NS_6vendor6cordio19SigningEventMonitorEEEEESC_EESC_EEE34ConnectionCompleteMessageConverter7convertEPK18hciLeConnCmplEvt_t
00000000 W _ZN3ble3pal6vendor6cordio3GapINS_7generic10GenericGapIS3_NS0_15SecurityManagerINS2_21CordioSecurityManagerINS4_22GenericSecurityManagerIS7_NS_6vendor6cordio19SigningEventMonitorEEEEESC_EESC_EEE35get_max_number_of_advertising_sets_Ev
00000000 W _ZN3ble3pal6vendor6cordio3GapINS_7generic10GenericGapIS3_NS0_15SecurityManagerINS2_21CordioSecurityManagerINS4_22GenericSecurityManagerIS7_NS_6vendor6cordio19SigningEventMonitorEEEEESC_EESC_EEE35read_periodic_advertiser_list_size_Ev
00000000 W _ZN3ble3pal6vendor6cordio3GapINS_7generic10GenericGapIS3_NS0_15SecurityManagerINS2_21CordioSecurityManagerINS4_22GenericSecurityManagerIS7_NS_6vendor6cordio19SigningEventMonitorEEEEESC_EESC_EEE35set_advertising_set_random_address_EhRKNS_9address_tE
00000000 W _ZN3ble3pal6vendor6cordio3GapINS_7generic10GenericGapIS3_NS0_15SecurityManagerINS2_21CordioSecurityManagerINS4_22GenericSecurityManagerIS7_NS_6vendor6cordio19SigningEventMonitorEEEEESC_EESC_EEE36accept_connection_parameter_request_Ejtttttt
00000000 W _ZN3ble3pal6vendor6cordio3GapINS_7generic10GenericGapIS3_NS0_15SecurityManagerINS2_21CordioSecurityManagerINS4_22GenericSecurityManagerIS7_NS_6vendor6cordio19SigningEventMonitorEEEEESC_EESC_EEE36GapAdvertisingReportMessageConverter31CordioGapAdvertisingReportEventC1ERKNS0_25GapAdvertisingReportEvent13advertising_tE
00000000 W _ZN3ble3pal6vendor6cordio3GapINS_7generic10GenericGapIS3_NS0_15SecurityManagerINS2_21CordioSecurityManagerINS4_22GenericSecurityManagerIS7_NS_6vendor6cordio19SigningEventMonitorEEEEESC_EESC_EEE36GapAdvertisingReportMessageConverter31CordioGapAdvertisingReportEventC2ERKNS0_25GapAdvertisingReportEvent13advertising_tE
00000000 n _ZN3ble3pal6vendor6cordio3GapINS_7generic10GenericGapIS3_NS0_15SecurityManagerINS2_21CordioSecurityManagerINS4_22GenericSecurityManagerIS7_NS_6vendor6cordio19SigningEventMonitorEEEEESC_EESC_EEE36GapAdvertisingReportMessageConverter31CordioGapAdvertisingReportEventC5ERKNS0_25GapAdvertisingReportEvent13advertising_tE
00000000 W _ZN3ble3pal6vendor6cordio3GapINS_7generic10GenericGapIS3_NS0_15SecurityManagerINS2_21CordioSecurityManagerINS4_22GenericSecurityManagerIS7_NS_6vendor6cordio19SigningEventMonitorEEEEESC_EESC_EEE36GapAdvertisingReportMessageConverter31CordioGapAdvertisingReportEventD0Ev
00000000 W _ZN3ble3pal6vendor6cordio3GapINS_7generic10GenericGapIS3_NS0_15SecurityManagerINS2_21CordioSecurityManagerINS4_22GenericSecurityManagerIS7_NS_6vendor6cordio19SigningEventMonitorEEEEESC_EESC_EEE36GapAdvertisingReportMessageConverter31CordioGapAdvertisingReportEventD1Ev
00000000 W _ZN3ble3pal6vendor6cordio3GapINS_7generic10GenericGapIS3_NS0_15SecurityManagerINS2_21CordioSecurityManagerINS4_22GenericSecurityManagerIS7_NS_6vendor6cordio19SigningEventMonitorEEEEESC_EESC_EEE36GapAdvertisingReportMessageConverter31CordioGapAdvertisingReportEventD2Ev
00000000 n _ZN3ble3pal6vendor6cordio3GapINS_7generic10GenericGapIS3_NS0_15SecurityManagerINS2_21CordioSecurityManagerINS4_22GenericSecurityManagerIS7_NS_6vendor6cordio19SigningEventMonitorEEEEESC_EESC_EEE36GapAdvertisingReportMessageConverter31CordioGapAdvertisingReportEventD5Ev
00000000 W _ZN3ble3pal6vendor6cordio3GapINS_7generic10GenericGapIS3_NS0_15SecurityManagerINS2_21CordioSecurityManagerINS4_22GenericSecurityManagerIS7_NS_6vendor6cordio19SigningEventMonitorEEEEESC_EESC_EEE36GapAdvertisingReportMessageConverter7convertEPK19hciLeAdvReportEvt_t
00000000 W _ZN3ble3pal6vendor6cordio3GapINS_7generic10GenericGapIS3_NS0_15SecurityManagerINS2_21CordioSecurityManagerINS4_22GenericSecurityManagerIS7_NS_6vendor6cordio19SigningEventMonitorEEEEESC_EESC_EEE36get_maximum_advertising_data_length_Ev
00000000 W _ZN3ble3pal6vendor6cordio3GapINS_7generic10GenericGapIS3_NS0_15SecurityManagerINS2_21CordioSecurityManagerINS4_22GenericSecurityManagerIS7_NS_6vendor6cordio19SigningEventMonitorEEEEESC_EESC_EEE36periodic_advertising_terminate_sync_Et
00000000 W _ZN3ble3pal6vendor6cordio3GapINS_7generic10GenericGapIS3_NS0_15SecurityManagerINS2_21CordioSecurityManagerINS4_22GenericSecurityManagerIS7_NS_6vendor6cordio19SigningEventMonitorEEEEESC_EESC_EEE36reject_connection_parameter_request_EjNS0_16hci_error_code_tE
00000000 W _ZN3ble3pal6vendor6cordio3GapINS_7generic10GenericGapIS3_NS0_15SecurityManagerINS2_21CordioSecurityManagerINS4_22GenericSecurityManagerIS7_NS_6vendor6cordio19SigningEventMonitorEEEEESC_EESC_EEE36set_extended_advertising_parameters_EhNS0_30advertising_event_properties_tEmmNS0_25advertising_channel_map_tENS_18own_address_type_tENS_26target_peer_address_type_tERKNS_9address_tENS_27advertising_filter_policy_tEaNS_5phy_tEhSP_hb
00000000 W _ZN3ble3pal6vendor6cordio3GapINS_7generic10GenericGapIS3_NS0_15SecurityManagerINS2_21CordioSecurityManagerINS4_22GenericSecurityManagerIS7_NS_6vendor6cordio19SigningEventMonitorEEEEESC_EESC_EEE36set_periodic_advertising_parameters_Ehttb
00000000 W _ZN3ble3pal6vendor6cordio3GapINS_7generic10GenericGapIS3_NS0_15SecurityManagerINS2_21CordioSecurityManagerINS4_22GenericSecurityManagerIS7_NS_6vendor6cordio19SigningEventMonitorEEEEESC_EESC_EEE39add_device_to_periodic_advertiser_list_ENS_26target_peer_address_type_tERKNS_9address_tEh
00000000 W _ZN3ble3pal6vendor6cordio3GapINS_7generic10GenericGapIS3_NS0_15SecurityManagerINS2_21CordioSecurityManagerINS4_22GenericSecurityManagerIS7_NS_6vendor6cordio19SigningEventMonitorEEEEESC_EESC_EEE40cancel_periodic_advertising_create_sync_Ev
00000000 W _ZN3ble3pal6vendor6cordio3GapINS_7generic10GenericGapIS3_NS0_15SecurityManagerINS2_21CordioSecurityManagerINS4_22GenericSecurityManagerIS7_NS_6vendor6cordio19SigningEventMonitorEEEEESC_EESC_EEE40get_maximum_hci_advertising_data_length_Ev
00000000 W _ZN3ble3pal6vendor6cordio3GapINS_7generic10GenericGapIS3_NS0_15SecurityManagerINS2_21CordioSecurityManagerINS4_22GenericSecurityManagerIS7_NS_6vendor6cordio19SigningEventMonitorEEEEESC_EESC_EEE44remove_device_from_periodic_advertiser_list_ENS_26target_peer_address_type_tERKNS_9address_tEh
00000000 W _ZN3ble3pal6vendor6cordio3GapINS_7generic10GenericGapIS3_NS0_15SecurityManagerINS2_21CordioSecurityManagerINS4_22GenericSecurityManagerIS7_NS_6vendor6cordio19SigningEventMonitorEEEEESC_EESC_EEE48get_maximum_connectable_advertising_data_length_Ev
00000000 W _ZN3ble3pal6vendor6cordio3GapINS_7generic10GenericGapIS3_NS0_15SecurityManagerINS2_21CordioSecurityManagerINS4_22GenericSecurityManagerIS7_NS_6vendor6cordio19SigningEventMonitorEEEEESC_EESC_EEE48RemoteConnectionParameterRequestMessageConverter7convertEPK25hciLeRemConnParamReqEvt_t
00000000 W _ZN3ble3pal6vendor6cordio3GapINS_7generic10GenericGapIS3_NS0_15SecurityManagerINS2_21CordioSecurityManagerINS4_22GenericSecurityManagerIS7_NS_6vendor6cordio19SigningEventMonitorEEEEESC_EESC_EEE7get_gapEv
00000000 W _ZN3ble3pal6vendor6cordio3GapINS_7generic10GenericGapIS3_NS0_15SecurityManagerINS2_21CordioSecurityManagerINS4_22GenericSecurityManagerIS7_NS_6vendor6cordio19SigningEventMonitorEEEEESC_EESC_EEE8set_phy_EjRKNS_9phy_set_tESJ_NS_22coded_symbol_per_bit_tE
00000000 W _ZN3ble3pal6vendor6cordio3GapINS_7generic10GenericGapIS3_NS0_15SecurityManagerINS2_21CordioSecurityManagerINS4_22GenericSecurityManagerIS7_NS_6vendor6cordio19SigningEventMonitorEEEEESC_EESC_EEE9read_phy_Ej
00000000 W _ZN3ble3pal6vendor6cordio3GapINS_7generic10GenericGapIS3_NS0_15SecurityManagerINS2_21CordioSecurityManagerINS4_22GenericSecurityManagerIS7_NS_6vendor6cordio19SigningEventMonitorEEEEESC_EESC_EEED1Ev
00000000 W _ZN3ble3pal6vendor6cordio3GapINS_7generic10GenericGapIS3_NS0_15SecurityManagerINS2_21CordioSecurityManagerINS4_22GenericSecurityManagerIS7_NS_6vendor6cordio19SigningEventMonitorEEEEESC_EESC_EEED2Ev
00000000 n _ZN3ble3pal6vendor6cordio3GapINS_7generic10GenericGapIS3_NS0_15SecurityManagerINS2_21CordioSecurityManagerINS4_22GenericSecurityManagerIS7_NS_6vendor6cordio19SigningEventMonitorEEEEESC_EESC_EEED5Ev
         U _ZN3ble6vendor6cordio19SigningEventMonitorINS_7generic22GenericSecurityManagerINS_3pal6vendor6cordio21CordioSecurityManagerES2_EEE26set_signing_event_handler_EPS9_
00000000 W _ZN3ble7generic10GenericGapINS_3pal6vendor6cordio3GapENS2_15SecurityManagerINS4_21CordioSecurityManagerINS0_22GenericSecurityManagerIS7_NS_6vendor6cordio19SigningEventMonitorEEEEESC_EESC_E10startScan_ENS_8DurationItLm10000ENS_5RangeILm0ELm65535EEENS_5ValueItLt0EEEEENS_19duplicates_filter_tENSG_ItLm1280000ESI_PvEE
00000000 W _ZN3ble7generic10GenericGapINS_3pal6vendor6cordio3GapENS2_15SecurityManagerINS4_21CordioSecurityManagerINS0_22GenericSecurityManagerIS7_NS_6vendor6cordio19SigningEventMonitorEEEEESC_EESC_E11createSync_ENS_19peer_address_type_tERKNS_9address_tEhNS_7BoundedItLt0ELt499EEENS_8DurationItLm10000ENS_5RangeILm10ELm16384EEEPvEE
00000000 W _ZN3ble7generic10GenericGapINS_3pal6vendor6cordio3GapENS2_15SecurityManagerINS4_21CordioSecurityManagerINS0_22GenericSecurityManagerIS7_NS_6vendor6cordio19SigningEventMonitorEEEEESC_EESC_E11createSync_ENS_7BoundedItLt0ELt499EEENS_8DurationItLm10000ENS_5RangeILm10ELm16384EEEPvEE
00000000 W _ZN3ble7generic10GenericGapINS_3pal6vendor6cordio3GapENS2_15SecurityManagerINS4_21CordioSecurityManagerINS0_22GenericSecurityManagerIS7_NS_6vendor6cordio19SigningEventMonitorEEEEESC_EESC_E11disconnect_EjNS_28local_disconnection_reason_tE
00000000 W _ZN3ble7generic10GenericGapINS_3pal6vendor6cordio3GapENS2_15SecurityManagerINS4_21CordioSecurityManagerINS0_22GenericSecurityManagerIS7_NS_6vendor6cordio19SigningEventMonitorEEEEESC_EESC_E11disconnect_EjNS_9interface9LegacyGapISF_E21DisconnectionReason_tE
00000000 W _ZN3ble7generic10GenericGapINS_3pal6vendor6cordio3GapENS2_15SecurityManagerINS4_21CordioSecurityManagerINS0_22GenericSecurityManagerIS7_NS_6vendor6cordio19SigningEventMonitorEEEEESC_EESC_E11disconnect_ENS_9interface9LegacyGapISF_E21DisconnectionReason_tE
00000000 W _ZN3ble7generic10GenericGapINS_3pal6vendor6cordio3GapENS2_15SecurityManagerINS4_21CordioSecurityManagerINS0_22GenericSecurityManagerIS7_NS_6vendor6cordio19SigningEventMonitorEEEEESC_EESC_E11getAddress_EPN11BLEProtocol11AddressType4TypeEPh
00000000 W _ZN3ble7generic10GenericGapINS_3pal6vendor6cordio3GapENS2_15SecurityManagerINS4_21CordioSecurityManagerINS0_22GenericSecurityManagerIS7_NS_6vendor6cordio19SigningEventMonitorEEEEESC_EESC_E11setAddress_EN11BLEProtocol11AddressType4TypeEPKh
00000000 W _ZN3ble7generic10GenericGapINS_3pal6vendor6cordio3GapENS2_15SecurityManagerINS4_21CordioSecurityManagerINS0_22GenericSecurityManagerIS7_NS_6vendor6cordio19SigningEventMonitorEEEEESC_EESC_E11setTxPower_Ea
00000000 W _ZN3ble7generic10GenericGapINS_3pal6vendor6cordio3GapENS2_15SecurityManagerINS4_21CordioSecurityManagerINS0_22GenericSecurityManagerIS7_NS_6vendor6cordio19SigningEventMonitorEEEEESC_EESC_E12on_read_phy_ENS2_16hci_error_code_tEjNS_5phy_tESH_
00000000 W _ZN3ble7generic10GenericGapINS_3pal6vendor6cordio3GapENS2_15SecurityManagerINS4_21CordioSecurityManagerINS0_22GenericSecurityManagerIS7_NS_6vendor6cordio19SigningEventMonitorEEEEESC_EESC_E13setWhitelist_ERKNS_9interface9LegacyGapISF_E11Whitelist_tE
00000000 W _ZN3ble7generic10GenericGapINS_3pal6vendor6cordio3GapENS2_15SecurityManagerINS4_21CordioSecurityManagerINS0_22GenericSecurityManagerIS7_NS_6vendor6cordio19SigningEventMonitorEEEEESC_EESC_E14cancelConnect_Ev
00000000 W _ZN3ble7generic10GenericGapINS_3pal6vendor6cordio3GapENS2_15SecurityManagerINS4_21CordioSecurityManagerINS0_22GenericSecurityManagerIS7_NS_6vendor6cordio19SigningEventMonitorEEEEESC_EESC_E14enablePrivacy_Eb
00000000 W _ZN3ble7generic10GenericGapINS_3pal6vendor6cordio3GapENS2_15SecurityManagerINS4_21CordioSecurityManagerINS0_22GenericSecurityManagerIS7_NS_6vendor6cordio19SigningEventMonitorEEEEESC_EESC_E14getAppearance_EPN18GapAdvertisingData12Appearance_tE
00000000 W _ZN3ble7generic10GenericGapINS_3pal6vendor6cordio3GapENS2_15SecurityManagerINS4_21CordioSecurityManagerINS0_22GenericSecurityManagerIS7_NS_6vendor6cordio19SigningEventMonitorEEEEESC_EESC_E14getDeviceName_EPhPj
00000000 W _ZN3ble7generic10GenericGapINS_3pal6vendor6cordio3GapENS2_15SecurityManagerINS4_21CordioSecurityManagerINS0_22GenericSecurityManagerIS7_NS_6vendor6cordio19SigningEventMonitorEEEEESC_EESC_E14setAppearance_EN18GapAdvertisingData12Appearance_tE
00000000 W _ZN3ble7generic10GenericGapINS_3pal6vendor6cordio3GapENS2_15SecurityManagerINS4_21CordioSecurityManagerINS0_22GenericSecurityManagerIS7_NS_6vendor6cordio19SigningEventMonitorEEEEESC_EESC_E14setDeviceName_EPKh
00000000 W _ZN3ble7generic10GenericGapINS_3pal6vendor6cordio3GapENS2_15SecurityManagerINS4_21CordioSecurityManagerINS0_22GenericSecurityManagerIS7_NS_6vendor6cordio19SigningEventMonitorEEEEESC_EESC_E14terminateSync_Et
00000000 W _ZN3ble7generic10GenericGapINS_3pal6vendor6cordio3GapENS2_15SecurityManagerINS4_21CordioSecurityManagerINS0_22GenericSecurityManagerIS7_NS_6vendor6cordio19SigningEventMonitorEEEEESC_EESC_E15startRadioScan_ERK17GapScanningParams
00000000 W _ZN3ble7generic10GenericGapINS_3pal6vendor6cordio3GapENS2_15SecurityManagerINS4_21CordioSecurityManagerINS0_22GenericSecurityManagerIS7_NS_6vendor6cordio19SigningEventMonitorEEEEESC_EESC_E16on_scan_timeout_Ev
00000000 W _ZN3ble7generic10GenericGapINS_3pal6vendor6cordio3GapENS2_15SecurityManagerINS4_21CordioSecurityManagerINS0_22GenericSecurityManagerIS7_NS_6vendor6cordio19SigningEventMonitorEEEEESC_EESC_E16stopAdvertising_Eh
00000000 W _ZN3ble7generic10GenericGapINS_3pal6vendor6cordio3GapENS2_15SecurityManagerINS4_21CordioSecurityManagerINS0_22GenericSecurityManagerIS7_NS_6vendor6cordio19SigningEventMonitorEEEEESC_EESC_E16stopAdvertising_Ev
00000000 W _ZN3ble7generic10GenericGapINS_3pal6vendor6cordio3GapENS2_15SecurityManagerINS4_21CordioSecurityManagerINS0_22GenericSecurityManagerIS7_NS_6vendor6cordio19SigningEventMonitorEEEEESC_EESC_E17cancelCreateSync_Ev
00000000 W _ZN3ble7generic10GenericGapINS_3pal6vendor6cordio3GapENS2_15SecurityManagerINS4_21CordioSecurityManagerINS0_22GenericSecurityManagerIS7_NS_6vendor6cordio19SigningEventMonitorEEEEESC_EESC_E17setPreferredPhys_EPKNS_9phy_set_tESI_
00000000 W _ZN3ble7generic10GenericGapINS_3pal6vendor6cordio3GapENS2_15SecurityManagerINS4_21CordioSecurityManagerINS0_22GenericSecurityManagerIS7_NS_6vendor6cordio19SigningEventMonitorEEEEESC_EESC_E17startAdvertising_EhNS_8DurationItLm10000ENS_5RangeILm0ELm65535EEENS_5ValueItLt0EEEEEh
00000000 W _ZN3ble7generic10GenericGapINS_3pal6vendor6cordio3GapENS2_15SecurityManagerINS4_21CordioSecurityManagerINS0_22GenericSecurityManagerIS7_NS_6vendor6cordio19SigningEventMonitorEEEEESC_EESC_E17startAdvertising_ERK20GapAdvertisingParams
00000000 W _ZN3ble7generic10GenericGapINS_3pal6vendor6cordio3GapENS2_15SecurityManagerINS4_21CordioSecurityManagerINS0_22GenericSecurityManagerIS7_NS_6vendor6cordio19SigningEventMonitorEEEEESC_EESC_E18setAdvertisingDataEhN4mbed4SpanIKhLin1EEEbb
00000000 W _ZN3ble7generic10GenericGapINS_3pal6vendor6cordio3GapENS2_15SecurityManagerINS4_21CordioSecurityManagerINS0_22GenericSecurityManagerIS7_NS_6vendor6cordio19SigningEventMonitorEEEEESC_EESC_E18setScanParameters_ERKNS_14ScanParametersE
00000000 W _ZN3ble7generic10GenericGapINS_3pal6vendor6cordio3GapENS2_15SecurityManagerINS4_21CordioSecurityManagerINS0_22GenericSecurityManagerIS7_NS_6vendor6cordio19SigningEventMonitorEEEEESC_EESC_E19isFeatureSupported_ENS_31controller_supported_features_tE
00000000 W _ZN3ble7generic10GenericGapINS_3pal6vendor6cordio3GapENS2_15SecurityManagerINS4_21CordioSecurityManagerINS0_22GenericSecurityManagerIS7_NS_6vendor6cordio19SigningEventMonitorEEEEESC_EESC_E19on_unexpected_errorERKNS2_23GapUnexpectedErrorEventE
00000000 W _ZN3ble7generic10GenericGapINS_3pal6vendor6cordio3GapENS2_15SecurityManagerINS4_21CordioSecurityManagerINS0_22GenericSecurityManagerIS7_NS_6vendor6cordio19SigningEventMonitorEEEEESC_EESC_E19setAdvertisingData_ERK18GapAdvertisingDataSI_
00000000 W _ZN3ble7generic10GenericGapINS_3pal6vendor6cordio3GapENS2_15SecurityManagerINS4_21CordioSecurityManagerINS0_22GenericSecurityManagerIS7_NS_6vendor6cordio19SigningEventMonitorEEEEESC_EESC_E20get_own_address_typeENSF_16AddressUseType_tE
00000000 W _ZN3ble7generic10GenericGapINS_3pal6vendor6cordio3GapENS2_15SecurityManagerINS4_21CordioSecurityManagerINS0_22GenericSecurityManagerIS7_NS_6vendor6cordio19SigningEventMonitorEEEEESC_EESC_E20isAdvertisingActive_Eh
00000000 V _ZN3ble7generic10GenericGapINS_3pal6vendor6cordio3GapENS2_15SecurityManagerINS4_21CordioSecurityManagerINS0_22GenericSecurityManagerIS7_NS_6vendor6cordio19SigningEventMonitorEEEEESC_EESC_E20MAX_ADVERTISING_SETSE
00000000 W _ZN3ble7generic10GenericGapINS_3pal6vendor6cordio3GapENS2_15SecurityManagerINS4_21CordioSecurityManagerINS0_22GenericSecurityManagerIS7_NS_6vendor6cordio19SigningEventMonitorEEEEESC_EESC_E20on_connection_updateERKNS2_24GapConnectionUpdateEventE
00000000 W _ZN3ble7generic10GenericGapINS_3pal6vendor6cordio3GapENS2_15SecurityManagerINS4_21CordioSecurityManagerINS0_22GenericSecurityManagerIS7_NS_6vendor6cordio19SigningEventMonitorEEEEESC_EESC_E20process_scan_timeoutEv
00000000 W _ZN3ble7generic10GenericGapINS_3pal6vendor6cordio3GapENS2_15SecurityManagerINS4_21CordioSecurityManagerINS0_22GenericSecurityManagerIS7_NS_6vendor6cordio19SigningEventMonitorEEEEESC_EESC_E21createAdvertisingSet_EPhRKNS_21AdvertisingParametersE
00000000 W _ZN3ble7generic10GenericGapINS_3pal6vendor6cordio3GapENS2_15SecurityManagerINS4_21CordioSecurityManagerINS0_22GenericSecurityManagerIS7_NS_6vendor6cordio19SigningEventMonitorEEEEESC_EESC_E21on_advertising_reportERKNS2_25GapAdvertisingReportEventE
00000000 W _ZN3ble7generic10GenericGapINS_3pal6vendor6cordio3GapENS2_15SecurityManagerINS4_21CordioSecurityManagerINS0_22GenericSecurityManagerIS7_NS_6vendor6cordio19SigningEventMonitorEEEEESC_EESC_E21on_gap_event_receivedERKNS2_8GapEventE
00000000 W _ZN3ble7generic10GenericGapINS_3pal6vendor6cordio3GapENS2_15SecurityManagerINS4_21CordioSecurityManagerINS0_22GenericSecurityManagerIS7_NS_6vendor6cordio19SigningEventMonitorEEEEESC_EESC_E21update_random_addressEv
00000000 W _ZN3ble7generic10GenericGapINS_3pal6vendor6cordio3GapENS2_15SecurityManagerINS4_21CordioSecurityManagerINS0_22GenericSecurityManagerIS7_NS_6vendor6cordio19SigningEventMonitorEEEEESC_EESC_E22destroyAdvertisingSet_Eh
00000000 W _ZN3ble7generic10GenericGapINS_3pal6vendor6cordio3GapENS2_15SecurityManagerINS4_21CordioSecurityManagerINS0_22GenericSecurityManagerIS7_NS_6vendor6cordio19SigningEventMonitorEEEEESC_EESC_E22initRadioNotification_Ev
00000000 W _ZN3ble7generic10GenericGapINS_3pal6vendor6cordio3GapENS2_15SecurityManagerINS4_21CordioSecurityManagerINS0_22GenericSecurityManagerIS7_NS_6vendor6cordio19SigningEventMonitorEEEEESC_EESC_E22on_advertising_timeoutEv
00000000 W _ZN3ble7generic10GenericGapINS_3pal6vendor6cordio3GapENS2_15SecurityManagerINS4_21CordioSecurityManagerINS0_22GenericSecurityManagerIS7_NS_6vendor6cordio19SigningEventMonitorEEEEESC_EESC_E22on_connection_completeERKNS2_26GapConnectionCompleteEventE
00000000 W _ZN3ble7generic10GenericGapINS_3pal6vendor6cordio3GapENS2_15SecurityManagerINS4_21CordioSecurityManagerINS0_22GenericSecurityManagerIS7_NS_6vendor6cordio19SigningEventMonitorEEEEESC_EESC_E22on_data_length_change_Ejtt
00000000 W _ZN3ble7generic10GenericGapINS_3pal6vendor6cordio3GapENS2_15SecurityManagerINS4_21CordioSecurityManagerINS0_22GenericSecurityManagerIS7_NS_6vendor6cordio19SigningEventMonitorEEEEESC_EESC_E22processConnectionEventEjNS_9interface9LegacyGapISF_E6Role_tENS_19peer_address_type_tEPKhN11BLEProtocol11AddressType4TypeESM_PKNSI_18ConnectionParams_tESM_SM_
00000000 W _ZN3ble7generic10GenericGapINS_3pal6vendor6cordio3GapENS2_15SecurityManagerINS4_21CordioSecurityManagerINS0_22GenericSecurityManagerIS7_NS_6vendor6cordio19SigningEventMonitorEEEEESC_EESC_E22setAdvertisingPayload_EhN4mbed4SpanIKhLin1EEE
00000000 W _ZN3ble7generic10GenericGapINS_3pal6vendor6cordio3GapENS2_15SecurityManagerINS4_21CordioSecurityManagerINS0_22GenericSecurityManagerIS7_NS_6vendor6cordio19SigningEventMonitorEEEEESC_EESC_E22setScanningPolicyMode_ENS_9interface9LegacyGapISF_E20ScanningPolicyMode_tE
00000000 W _ZN3ble7generic10GenericGapINS_3pal6vendor6cordio3GapENS2_15SecurityManagerINS4_21CordioSecurityManagerINS0_22GenericSecurityManagerIS7_NS_6vendor6cordio19SigningEventMonitorEEEEESC_EESC_E23on_phy_update_complete_ENS2_16hci_error_code_tEjNS_5phy_tESH_
00000000 W _ZN3ble7generic10GenericGapINS_3pal6vendor6cordio3GapENS2_15SecurityManagerINS4_21CordioSecurityManagerINS0_22GenericSecurityManagerIS7_NS_6vendor6cordio19SigningEventMonitorEEEEESC_EESC_E23setInitiatorPolicyMode_ENS_9interface9LegacyGapISF_E21InitiatorPolicyMode_tE
00000000 W _ZN3ble7generic10GenericGapINS_3pal6vendor6cordio3GapENS2_15SecurityManagerINS4_21CordioSecurityManagerINS0_22GenericSecurityManagerIS7_NS_6vendor6cordio19SigningEventMonitorEEEEESC_EESC_E23updateConnectionParams_EjPKNS_9interface9LegacyGapISF_E18ConnectionParams_tE
00000000 W _ZN3ble7generic10GenericGapINS_3pal6vendor6cordio3GapENS2_15SecurityManagerINS4_21CordioSecurityManagerINS0_22GenericSecurityManagerIS7_NS_6vendor6cordio19SigningEventMonitorEEEEESC_EESC_E24stopPeriodicAdvertising_Eh
00000000 W _ZN3ble7generic10GenericGapINS_3pal6vendor6cordio3GapENS2_15SecurityManagerINS4_21CordioSecurityManagerINS0_22GenericSecurityManagerIS7_NS_6vendor6cordio19SigningEventMonitorEEEEESC_EESC_E25on_disconnection_completeERKNS2_29GapDisconnectionCompleteEventE
00000000 W _ZN3ble7generic10GenericGapINS_3pal6vendor6cordio3GapENS2_15SecurityManagerINS4_21CordioSecurityManagerINS0_22GenericSecurityManagerIS7_NS_6vendor6cordio19SigningEventMonitorEEEEESC_EESC_E25on_scan_request_received_EhNS2_30connection_peer_address_type_tERKNS_9address_tE
00000000 W _ZN3ble7generic10GenericGapINS_3pal6vendor6cordio3GapENS2_15SecurityManagerINS4_21CordioSecurityManagerINS0_22GenericSecurityManagerIS7_NS_6vendor6cordio19SigningEventMonitorEEEEESC_EESC_E25processDisconnectionEventEjNS_9interface9LegacyGapISF_E21DisconnectionReason_tE
00000000 W _ZN3ble7generic10GenericGapINS_3pal6vendor6cordio3GapENS2_15SecurityManagerINS4_21CordioSecurityManagerINS0_22GenericSecurityManagerIS7_NS_6vendor6cordio19SigningEventMonitorEEEEESC_EESC_E25setAdvertisingParameters_EhRKNS_21AdvertisingParametersE
00000000 W _ZN3ble7generic10GenericGapINS_3pal6vendor6cordio3GapENS2_15SecurityManagerINS4_21CordioSecurityManagerINS0_22GenericSecurityManagerIS7_NS_6vendor6cordio19SigningEventMonitorEEEEESC_EESC_E25setAdvertisingPolicyMode_ENS_9interface9LegacyGapISF_E23AdvertisingPolicyMode_tE
00000000 W _ZN3ble7generic10GenericGapINS_3pal6vendor6cordio3GapENS2_15SecurityManagerINS4_21CordioSecurityManagerINS0_22GenericSecurityManagerIS7_NS_6vendor6cordio19SigningEventMonitorEEEEESC_EESC_E25startPeriodicAdvertising_Eh
00000000 W _ZN3ble7generic10GenericGapINS_3pal6vendor6cordio3GapENS2_15SecurityManagerINS4_21CordioSecurityManagerINS0_22GenericSecurityManagerIS7_NS_6vendor6cordio19SigningEventMonitorEEEEESC_EESC_E26getPermittedTxPowerValues_EPPKaPj
00000000 W _ZN3ble7generic10GenericGapINS_3pal6vendor6cordio3GapENS2_15SecurityManagerINS4_21CordioSecurityManagerINS0_22GenericSecurityManagerIS7_NS_6vendor6cordio19SigningEventMonitorEEEEESC_EESC_E27getMaxAdvertisingSetNumber_Ev
00000000 W _ZN3ble7generic10GenericGapINS_3pal6vendor6cordio3GapENS2_15SecurityManagerINS4_21CordioSecurityManagerINS0_22GenericSecurityManagerIS7_NS_6vendor6cordio19SigningEventMonitorEEEEESC_EESC_E27on_address_rotation_timeoutEv
00000000 W _ZN3ble7generic10GenericGapINS_3pal6vendor6cordio3GapENS2_15SecurityManagerINS4_21CordioSecurityManagerINS0_22GenericSecurityManagerIS7_NS_6vendor6cordio19SigningEventMonitorEEEEESC_EESC_E27process_advertising_timeoutEv
00000000 W _ZN3ble7generic10GenericGapINS_3pal6vendor6cordio3GapENS2_15SecurityManagerINS4_21CordioSecurityManagerINS0_22GenericSecurityManagerIS7_NS_6vendor6cordio19SigningEventMonitorEEEEESC_EESC_E27process_legacy_scan_timeoutEv
00000000 W _ZN3ble7generic10GenericGapINS_3pal6vendor6cordio3GapENS2_15SecurityManagerINS4_21CordioSecurityManagerINS0_22GenericSecurityManagerIS7_NS_6vendor6cordio19SigningEventMonitorEEEEESC_EESC_E27set_random_address_rotationEb
00000000 W _ZN3ble7generic10GenericGapINS_3pal6vendor6cordio3GapENS2_15SecurityManagerINS4_21CordioSecurityManagerINS0_22GenericSecurityManagerIS7_NS_6vendor6cordio19SigningEventMonitorEEEEESC_EESC_E27setAdvertisingScanResponse_EhN4mbed4SpanIKhLin1EEE
00000000 W _ZN3ble7generic10GenericGapINS_3pal6vendor6cordio3GapENS2_15SecurityManagerINS4_21CordioSecurityManagerINS0_22GenericSecurityManagerIS7_NS_6vendor6cordio19SigningEventMonitorEEEEESC_EESC_E27updateConnectionParameters_EjNS_8DurationItLm1250ENS_5RangeILm6ELm3200EEEPvEESK_NS_7BoundedItLt0ELt499EEENSG_ItLm10000ENSH_ILm10ELm3200EEESJ_EENSG_ItLm625ENSH_ILm0ELm65535EEESJ_EESQ_
00000000 W _ZN3ble7generic10GenericGapINS_3pal6vendor6cordio3GapENS2_15SecurityManagerINS4_21CordioSecurityManagerINS0_22GenericSecurityManagerIS7_NS_6vendor6cordio19SigningEventMonitorEEEEESC_EESC_E28clearPeriodicAdvertiserList_Ev
00000000 W _ZN3ble7generic10GenericGapINS_3pal6vendor6cordio3GapENS2_15SecurityManagerINS4_21CordioSecurityManagerINS0_22GenericSecurityManagerIS7_NS_6vendor6cordio19SigningEventMonitorEEEEESC_EESC_E28getMaxAdvertisingDataLength_Ev
00000000 W _ZN3ble7generic10GenericGapINS_3pal6vendor6cordio3GapENS2_15SecurityManagerINS4_21CordioSecurityManagerINS0_22GenericSecurityManagerIS7_NS_6vendor6cordio19SigningEventMonitorEEEEESC_EESC_E28getUnresolvableRandomAddressERNS_9address_tE
00000000 W _ZN3ble7generic10GenericGapINS_3pal6vendor6cordio3GapENS2_15SecurityManagerINS4_21CordioSecurityManagerINS0_22GenericSecurityManagerIS7_NS_6vendor6cordio19SigningEventMonitorEEEEESC_EESC_E28isPeriodicAdvertisingActive_Eh
00000000 W _ZN3ble7generic10GenericGapINS_3pal6vendor6cordio3GapENS2_15SecurityManagerINS4_21CordioSecurityManagerINS0_22GenericSecurityManagerIS7_NS_6vendor6cordio19SigningEventMonitorEEEEESC_EESC_E29getPreferredConnectionParams_EPNS_9interface9LegacyGapISF_E18ConnectionParams_tE
00000000 W _ZN3ble7generic10GenericGapINS_3pal6vendor6cordio3GapENS2_15SecurityManagerINS4_21CordioSecurityManagerINS0_22GenericSecurityManagerIS7_NS_6vendor6cordio19SigningEventMonitorEEEEESC_EESC_E29setPreferredConnectionParams_EPKNS_9interface9LegacyGapISF_E18ConnectionParams_tE
00000000 W _ZN3ble7generic10GenericGapINS_3pal6vendor6cordio3GapENS2_15SecurityManagerINS4_21CordioSecurityManagerINS0_22GenericSecurityManagerIS7_NS_6vendor6cordio19SigningEventMonitorEEEEESC_EESC_E30on_advertising_set_terminated_ENS2_16hci_error_code_tEhjh
00000000 W _ZN3ble7generic10GenericGapINS_3pal6vendor6cordio3GapENS2_15SecurityManagerINS4_21CordioSecurityManagerINS0_22GenericSecurityManagerIS7_NS_6vendor6cordio19SigningEventMonitorEEEEESC_EESC_E30on_connection_update_complete_ENS2_16hci_error_code_tEjttt
00000000 W _ZN3ble7generic10GenericGapINS_3pal6vendor6cordio3GapENS2_15SecurityManagerINS4_21CordioSecurityManagerINS0_22GenericSecurityManagerIS7_NS_6vendor6cordio19SigningEventMonitorEEEEESC_EESC_E30setPeriodicAdvertisingPayload_EhN4mbed4SpanIKhLin1EEE
00000000 W _ZN3ble7generic10GenericGapINS_3pal6vendor6cordio3GapENS2_15SecurityManagerINS4_21CordioSecurityManagerINS0_22GenericSecurityManagerIS7_NS_6vendor6cordio19SigningEventMonitorEEEEESC_EESC_E31getCentralPrivacyConfiguration_EPNS_30central_privay_configuration_tE
00000000 W _ZN3ble7generic10GenericGapINS_3pal6vendor6cordio3GapENS2_15SecurityManagerINS4_21CordioSecurityManagerINS0_22GenericSecurityManagerIS7_NS_6vendor6cordio19SigningEventMonitorEEEEESC_EESC_E31on_connection_parameter_requestERKNS2_40GapRemoteConnectionParameterRequestEventE
00000000 W _ZN3ble7generic10GenericGapINS_3pal6vendor6cordio3GapENS2_15SecurityManagerINS4_21CordioSecurityManagerINS0_22GenericSecurityManagerIS7_NS_6vendor6cordio19SigningEventMonitorEEEEESC_EESC_E31on_extended_advertising_report_ENS_19advertising_event_tEPKNS2_30connection_peer_address_type_tERKNS_9address_tENS_5phy_tEPKSN_haatNS2_21direct_address_type_tESM_hPKh
00000000 W _ZN3ble7generic10GenericGapINS_3pal6vendor6cordio3GapENS2_15SecurityManagerINS4_21CordioSecurityManagerINS0_22GenericSecurityManagerIS7_NS_6vendor6cordio19SigningEventMonitorEEEEESC_EESC_E31on_periodic_advertising_report_EtaaNS_25advertising_data_status_tEhPKh
00000000 W _ZN3ble7generic10GenericGapINS_3pal6vendor6cordio3GapENS2_15SecurityManagerINS4_21CordioSecurityManagerINS0_22GenericSecurityManagerIS7_NS_6vendor6cordio19SigningEventMonitorEEEEESC_EESC_E31on_remote_connection_parameter_Ejtttt
00000000 W _ZN3ble7generic10GenericGapINS_3pal6vendor6cordio3GapENS2_15SecurityManagerINS4_21CordioSecurityManagerINS0_22GenericSecurityManagerIS7_NS_6vendor6cordio19SigningEventMonitorEEEEESC_EESC_E31setCentralPrivacyConfiguration_EPKNS_30central_privay_configuration_tE
00000000 W _ZN3ble7generic10GenericGapINS_3pal6vendor6cordio3GapENS2_15SecurityManagerINS4_21CordioSecurityManagerINS0_22GenericSecurityManagerIS7_NS_6vendor6cordio19SigningEventMonitorEEEEESC_EESC_E32on_enhanced_connection_complete_ENS2_16hci_error_code_tEjNS_17connection_role_tENS2_30connection_peer_address_type_tERKNS_9address_tESL_SL_tttNS_16clock_accuracy_tE
00000000 W _ZN3ble7generic10GenericGapINS_3pal6vendor6cordio3GapENS2_15SecurityManagerINS4_21CordioSecurityManagerINS0_22GenericSecurityManagerIS7_NS_6vendor6cordio19SigningEventMonitorEEEEESC_EESC_E32setExtendedAdvertisingParametersEhRKNS_21AdvertisingParametersE
00000000 W _ZN3ble7generic10GenericGapINS_3pal6vendor6cordio3GapENS2_15SecurityManagerINS4_21CordioSecurityManagerINS0_22GenericSecurityManagerIS7_NS_6vendor6cordio19SigningEventMonitorEEEEESC_EESC_E33acceptConnectionParametersUpdate_EjNS_8DurationItLm1250ENS_5RangeILm6ELm3200EEEPvEESK_NS_7BoundedItLt0ELt499EEENSG_ItLm10000ENSH_ILm10ELm3200EEESJ_EENSG_ItLm625ENSH_ILm0ELm65535EEESJ_EESQ_
00000000 W _ZN3ble7generic10GenericGapINS_3pal6vendor6cordio3GapENS2_15SecurityManagerINS4_21CordioSecurityManagerINS0_22GenericSecurityManagerIS7_NS_6vendor6cordio19SigningEventMonitorEEEEESC_EESC_E33getMaxPeriodicAdvertiserListSize_Ev
00000000 W _ZN3ble7generic10GenericGapINS_3pal6vendor6cordio3GapENS2_15SecurityManagerINS4_21CordioSecurityManagerINS0_22GenericSecurityManagerIS7_NS_6vendor6cordio19SigningEventMonitorEEEEESC_EESC_E33is_extended_advertising_availableEv
00000000 W _ZN3ble7generic10GenericGapINS_3pal6vendor6cordio3GapENS2_15SecurityManagerINS4_21CordioSecurityManagerINS0_22GenericSecurityManagerIS7_NS_6vendor6cordio19SigningEventMonitorEEEEESC_EESC_E33rejectConnectionParametersUpdate_Ej
00000000 W _ZN3ble7generic10GenericGapINS_3pal6vendor6cordio3GapENS2_15SecurityManagerINS4_21CordioSecurityManagerINS0_22GenericSecurityManagerIS7_NS_6vendor6cordio19SigningEventMonitorEEEEESC_EESC_E33setPeriodicAdvertisingParameters_EhNS_8DurationItLm1250ENS_5RangeILm6ELm65535EEEPvEESK_b
00000000 W _ZN3ble7generic10GenericGapINS_3pal6vendor6cordio3GapENS2_15SecurityManagerINS4_21CordioSecurityManagerINS0_22GenericSecurityManagerIS7_NS_6vendor6cordio19SigningEventMonitorEEEEESC_EESC_E33update_address_resolution_settingEv
00000000 W _ZN3ble7generic10GenericGapINS_3pal6vendor6cordio3GapENS2_15SecurityManagerINS4_21CordioSecurityManagerINS0_22GenericSecurityManagerIS7_NS_6vendor6cordio19SigningEventMonitorEEEEESC_EESC_E34addDeviceToPeriodicAdvertiserList_ENS_19peer_address_type_tERKNS_9address_tEh
00000000 W _ZN3ble7generic10GenericGapINS_3pal6vendor6cordio3GapENS2_15SecurityManagerINS4_21CordioSecurityManagerINS0_22GenericSecurityManagerIS7_NS_6vendor6cordio19SigningEventMonitorEEEEESC_EESC_E34getPeripheralPrivacyConfiguration_EPNS_34peripheral_privacy_configuration_tE
00000000 W _ZN3ble7generic10GenericGapINS_3pal6vendor6cordio3GapENS2_15SecurityManagerINS4_21CordioSecurityManagerINS0_22GenericSecurityManagerIS7_NS_6vendor6cordio19SigningEventMonitorEEEEESC_EESC_E34on_periodic_advertising_sync_loss_Et
00000000 W _ZN3ble7generic10GenericGapINS_3pal6vendor6cordio3GapENS2_15SecurityManagerINS4_21CordioSecurityManagerINS0_22GenericSecurityManagerIS7_NS_6vendor6cordio19SigningEventMonitorEEEEESC_EESC_E34setPeripheralPrivacyConfiguration_EPKNS_34peripheral_privacy_configuration_tE
00000000 W _ZN3ble7generic10GenericGapINS_3pal6vendor6cordio3GapENS2_15SecurityManagerINS4_21CordioSecurityManagerINS0_22GenericSecurityManagerIS7_NS_6vendor6cordio19SigningEventMonitorEEEEESC_EESC_E37getMaxActiveSetAdvertisingDataLength_Ev
00000000 W _ZN3ble7generic10GenericGapINS_3pal6vendor6cordio3GapENS2_15SecurityManagerINS4_21CordioSecurityManagerINS0_22GenericSecurityManagerIS7_NS_6vendor6cordio19SigningEventMonitorEEEEESC_EESC_E39getMaxConnectableAdvertisingDataLength_Ev
00000000 W _ZN3ble7generic10GenericGapINS_3pal6vendor6cordio3GapENS2_15SecurityManagerINS4_21CordioSecurityManagerINS0_22GenericSecurityManagerIS7_NS_6vendor6cordio19SigningEventMonitorEEEEESC_EESC_E39removeDeviceFromPeriodicAdvertiserList_ENS_19peer_address_type_tERKNS_9address_tEh
00000000 W _ZN3ble7generic10GenericGapINS_3pal6vendor6cordio3GapENS2_15SecurityManagerINS4_21CordioSecurityManagerINS0_22GenericSecurityManagerIS7_NS_6vendor6cordio19SigningEventMonitorEEEEESC_EESC_E40manageConnectionParametersUpdateRequest_Eb
00000000 W _ZN3ble7generic10GenericGapINS_3pal6vendor6cordio3GapENS2_15SecurityManagerINS4_21CordioSecurityManagerINS0_22GenericSecurityManagerIS7_NS_6vendor6cordio19SigningEventMonitorEEEEESC_EESC_E41on_periodic_advertising_sync_established_ENS2_16hci_error_code_tEthNS2_30connection_peer_address_type_tERKNS_9address_tENS_5phy_tEtNS_16clock_accuracy_tE
00000000 W _ZN3ble7generic10GenericGapINS_3pal6vendor6cordio3GapENS2_15SecurityManagerINS4_21CordioSecurityManagerINS0_22GenericSecurityManagerIS7_NS_6vendor6cordio19SigningEventMonitorEEEEESC_EESC_E6reset_Ev
00000000 W _ZN3ble7generic10GenericGapINS_3pal6vendor6cordio3GapENS2_15SecurityManagerINS4_21CordioSecurityManagerINS0_22GenericSecurityManagerIS7_NS_6vendor6cordio19SigningEventMonitorEEEEESC_EESC_E7setPhy_EjPKNS_9phy_set_tESI_NS_22coded_symbol_per_bit_tE
00000000 W _ZN3ble7generic10GenericGapINS_3pal6vendor6cordio3GapENS2_15SecurityManagerINS4_21CordioSecurityManagerINS0_22GenericSecurityManagerIS7_NS_6vendor6cordio19SigningEventMonitorEEEEESC_EESC_E8BitArrayILj15EE3setEj
00000000 W _ZN3ble7generic10GenericGapINS_3pal6vendor6cordio3GapENS2_15SecurityManagerINS4_21CordioSecurityManagerINS0_22GenericSecurityManagerIS7_NS_6vendor6cordio19SigningEventMonitorEEEEESC_EESC_E8BitArrayILj15EE5clearEj
00000000 W _ZN3ble7generic10GenericGapINS_3pal6vendor6cordio3GapENS2_15SecurityManagerINS4_21CordioSecurityManagerINS0_22GenericSecurityManagerIS7_NS_6vendor6cordio19SigningEventMonitorEEEEESC_EESC_E8BitArrayILj15EE5clearEv
00000000 W _ZN3ble7generic10GenericGapINS_3pal6vendor6cordio3GapENS2_15SecurityManagerINS4_21CordioSecurityManagerINS0_22GenericSecurityManagerIS7_NS_6vendor6cordio19SigningEventMonitorEEEEESC_EESC_E8BitArrayILj15EEC1Ev
00000000 W _ZN3ble7generic10GenericGapINS_3pal6vendor6cordio3GapENS2_15SecurityManagerINS4_21CordioSecurityManagerINS0_22GenericSecurityManagerIS7_NS_6vendor6cordio19SigningEventMonitorEEEEESC_EESC_E8BitArrayILj15EEC2Ev
00000000 n _ZN3ble7generic10GenericGapINS_3pal6vendor6cordio3GapENS2_15SecurityManagerINS4_21CordioSecurityManagerINS0_22GenericSecurityManagerIS7_NS_6vendor6cordio19SigningEventMonitorEEEEESC_EESC_E8BitArrayILj15EEC5Ev
00000000 W _ZN3ble7generic10GenericGapINS_3pal6vendor6cordio3GapENS2_15SecurityManagerINS4_21CordioSecurityManagerINS0_22GenericSecurityManagerIS7_NS_6vendor6cordio19SigningEventMonitorEEEEESC_EESC_E8connect_ENS_19peer_address_type_tERKNS_9address_tERKNS_20ConnectionParametersE
00000000 W _ZN3ble7generic10GenericGapINS_3pal6vendor6cordio3GapENS2_15SecurityManagerINS4_21CordioSecurityManagerINS0_22GenericSecurityManagerIS7_NS_6vendor6cordio19SigningEventMonitorEEEEESC_EESC_E8connect_EPKhN11BLEProtocol11AddressType4TypeEPKNS_9interface9LegacyGapISF_E18ConnectionParams_tEPK17GapScanningParams
00000000 W _ZN3ble7generic10GenericGapINS_3pal6vendor6cordio3GapENS2_15SecurityManagerINS4_21CordioSecurityManagerINS0_22GenericSecurityManagerIS7_NS_6vendor6cordio19SigningEventMonitorEEEEESC_EESC_E8connect_EPKhNS_19peer_address_type_tEPKNS_9interface9LegacyGapISF_E18ConnectionParams_tEPK17GapScanningParams
00000000 W _ZN3ble7generic10GenericGapINS_3pal6vendor6cordio3GapENS2_15SecurityManagerINS4_21CordioSecurityManagerINS0_22GenericSecurityManagerIS7_NS_6vendor6cordio19SigningEventMonitorEEEEESC_EESC_E8readPhy_Ej
00000000 W _ZN3ble7generic10GenericGapINS_3pal6vendor6cordio3GapENS2_15SecurityManagerINS4_21CordioSecurityManagerINS0_22GenericSecurityManagerIS7_NS_6vendor6cordio19SigningEventMonitorEEEEESC_EESC_E9stopScan_Ev
00000000 W _ZN3ble7generic10GenericGapINS_3pal6vendor6cordio3GapENS2_15SecurityManagerINS4_21CordioSecurityManagerINS0_22GenericSecurityManagerIS7_NS_6vendor6cordio19SigningEventMonitorEEEEESC_EESC_EC1ERNS2_10EventQueueERNS5_ISF_EERNS2_20GenericAccessServiceERSE_
00000000 W _ZN3ble7generic10GenericGapINS_3pal6vendor6cordio3GapENS2_15SecurityManagerINS4_21CordioSecurityManagerINS0_22GenericSecurityManagerIS7_NS_6vendor6cordio19SigningEventMonitorEEEEESC_EESC_EC2ERNS2_10EventQueueERNS5_ISF_EERNS2_20GenericAccessServiceERSE_
00000000 n _ZN3ble7generic10GenericGapINS_3pal6vendor6cordio3GapENS2_15SecurityManagerINS4_21CordioSecurityManagerINS0_22GenericSecurityManagerIS7_NS_6vendor6cordio19SigningEventMonitorEEEEESC_EESC_EC5ERNS2_10EventQueueERNS5_ISF_EERNS2_20GenericAccessServiceERSE_
00000000 W _ZN3ble7generic10GenericGapINS_3pal6vendor6cordio3GapENS2_15SecurityManagerINS4_21CordioSecurityManagerINS0_22GenericSecurityManagerIS7_NS_6vendor6cordio19SigningEventMonitorEEEEESC_EESC_ED1Ev
00000000 W _ZN3ble7generic10GenericGapINS_3pal6vendor6cordio3GapENS2_15SecurityManagerINS4_21CordioSecurityManagerINS0_22GenericSecurityManagerIS7_NS_6vendor6cordio19SigningEventMonitorEEEEESC_EESC_ED2Ev
00000000 n _ZN3ble7generic10GenericGapINS_3pal6vendor6cordio3GapENS2_15SecurityManagerINS4_21CordioSecurityManagerINS0_22GenericSecurityManagerIS7_NS_6vendor6cordio19SigningEventMonitorEEEEESC_EESC_ED5Ev
00000000 W _ZN3ble7generic10SecurityDb10open_entryENS_19peer_address_type_tERKNS_9address_tE
00000000 W _ZN3ble7generic10SecurityDb11close_entryEPv
00000000 W _ZN3ble7generic10SecurityDb11set_restoreEb
00000000 W _ZN3ble7generic10SecurityDb12remove_entryENS_19peer_address_type_tERKNS_9address_tE
00000000 W _ZN3ble7generic10SecurityDb13clear_entriesEv
00000000 W _ZN3ble7generic10SecurityDb13get_whitelistEN4mbed8CallbackIFvPNS_9interface9LegacyGapINS0_10GenericGapINS_3pal6vendor6cordio3GapENS7_15SecurityManagerINS9_21CordioSecurityManagerINS0_22GenericSecurityManagerISC_NS_6vendor6cordio19SigningEventMonitorEEEEESH_EESH_EEE11Whitelist_tEEEESN_
00000000 W _ZN3ble7generic10SecurityDb13set_whitelistERKNS_9interface9LegacyGapINS0_10GenericGapINS_3pal6vendor6cordio3GapENS5_15SecurityManagerINS7_21CordioSecurityManagerINS0_22GenericSecurityManagerISA_NS_6vendor6cordio19SigningEventMonitorEEEEESF_EESF_EEE11Whitelist_tE
00000000 W _ZN3ble7generic10SecurityDb14get_local_csrkEv
00000000 W _ZN3ble7generic10SecurityDb14set_local_csrkERKNS_12byte_array_tILj16EEE
00000000 W _ZN3ble7generic10SecurityDb15clear_whitelistEv
00000000 W _ZN3ble7generic10SecurityDb17get_identity_listEN4mbed8CallbackIFvRNS2_4SpanINS0_23SecurityEntryIdentity_tELin1EEEjEEES7_
00000000 W _ZN3ble7generic10SecurityDb18get_entry_identityEN4mbed8CallbackIFvPvPKNS0_23SecurityEntryIdentity_tEEEES4_
00000000 W _ZN3ble7generic10SecurityDb19add_whitelist_entryERKNS_9address_tE
00000000 W _ZN3ble7generic10SecurityDb19get_entry_peer_csrkEN4mbed8CallbackIFvPvPKNS0_22SecurityEntrySigning_tEEEES4_
00000000 W _ZN3ble7generic10SecurityDb19get_entry_peer_keysEN4mbed8CallbackIFvPvPKNS0_19SecurityEntryKeys_tEEEES4_
00000000 W _ZN3ble7generic10SecurityDb20get_entry_local_keysEN4mbed8CallbackIFvPvPKNS0_19SecurityEntryKeys_tEEEES4_
00000000 W _ZN3ble7generic10SecurityDb20get_entry_local_keysEN4mbed8CallbackIFvPvPKNS0_19SecurityEntryKeys_tEEEES4_RKNS_12byte_array_tILj2EEERKNSA_ILj8EEE
00000000 W _ZN3ble7generic10SecurityDb20get_free_entry_flagsEv
00000000 W _ZN3ble7generic10SecurityDb22get_local_sign_counterEv
00000000 W _ZN3ble7generic10SecurityDb22remove_whitelist_entryERKNS_9address_tE
00000000 W _ZN3ble7generic10SecurityDb22set_distribution_flagsEPvRKNS0_27SecurityDistributionFlags_tE
00000000 W _ZN3ble7generic10SecurityDb22set_local_sign_counterEm
00000000 W _ZN3ble7generic10SecurityDb26find_entry_by_peer_addressENS_19peer_address_type_tERKNS_9address_tE
00000000 W _ZN3ble7generic10SecurityDb34generate_whitelist_from_bond_tableEN4mbed8CallbackIFvPNS_9interface9LegacyGapINS0_10GenericGapINS_3pal6vendor6cordio3GapENS7_15SecurityManagerINS9_21CordioSecurityManagerINS0_22GenericSecurityManagerISC_NS_6vendor6cordio19SigningEventMonitorEEEEESH_EESH_EEE11Whitelist_tEEEESN_
00000000 W _ZN3ble7generic10SecurityDb4syncEPv
00000000 W _ZN3ble7generic10SecurityDb7restoreEv
00000000 t _ZN3ble7generic12_GLOBAL__N_121minSupervisionTimeoutERKNS_8DurationItLm1250ENS_5RangeILm6ELm3200EEEPvEERKNS_7BoundedItLt0ELt499EEE.isra.101
00000000 t _ZN3ble7generic12_GLOBAL__N_1L14is_prand_validEPKhj
00000000 t _ZN3ble7generic12_GLOBAL__N_1L15is_in_whitelistERKN11BLEProtocol9Address_tERKNS_9interface9LegacyGapINS0_10GenericGapINS_3pal6vendor6cordio3GapENS9_15SecurityManagerINSB_21CordioSecurityManagerINS0_22GenericSecurityManagerISE_NS_6vendor6cordio19SigningEventMonitorEEEEESJ_EESJ_EEE11Whitelist_tE
00000000 b _ZN3ble7generic12_GLOBAL__N_1L19default_scan_paramsE
00000000 t _ZN3ble7generic12_GLOBAL__N_1L20is_scan_params_validEPK17GapScanningParams
00000000 r _ZN3ble7generic12_GLOBAL__N_1L25default_connection_paramsE
00000000 t _ZN3ble7generic12_GLOBAL__N_1L26is_connection_params_validEPKNS_9interface9LegacyGapINS0_10GenericGapINS_3pal6vendor6cordio3GapENS5_15SecurityManagerINS7_21CordioSecurityManagerINS0_22GenericSecurityManagerISA_NS_6vendor6cordio19SigningEventMonitorEEEEESF_EESF_EEE18ConnectionParams_tE
00000000 t _ZN3ble7generic12_GLOBAL__N_1L36is_random_private_resolvable_addressEPKh
         U _ZN3ble7generic14FileSecurityDb12open_db_fileEPKc
         U _ZN3ble7generic14FileSecurityDbC1EP7__sFILE
00000000 W _ZN3ble7generic16MemorySecurityDb11reset_entryEPv
00000000 W _ZN3ble7generic16MemorySecurityDb15get_entry_countEv
00000000 W _ZN3ble7generic16MemorySecurityDb18set_entry_peer_irkEPvRKNS_12byte_array_tILj16EEE
00000000 W _ZN3ble7generic16MemorySecurityDb18set_entry_peer_ltkEPvRKNS_12byte_array_tILj16EEE
00000000 W _ZN3ble7generic16MemorySecurityDb19set_entry_local_ltkEPvRKNS_12byte_array_tILj16EEE
00000000 W _ZN3ble7generic16MemorySecurityDb19set_entry_peer_csrkEPvRKNS_12byte_array_tILj16EEE
00000000 W _ZN3ble7generic16MemorySecurityDb21set_entry_peer_bdaddrEPvbRKNS_9address_tE
00000000 W _ZN3ble7generic16MemorySecurityDb22get_distribution_flagsEPv
00000000 W _ZN3ble7generic16MemorySecurityDb23read_in_entry_peer_keysEPv
00000000 W _ZN3ble7generic16MemorySecurityDb24read_in_entry_local_keysEPv
00000000 W _ZN3ble7generic16MemorySecurityDb24set_entry_peer_ediv_randEPvRKNS_12byte_array_tILj2EEERKNS3_ILj8EEE
00000000 W _ZN3ble7generic16MemorySecurityDb25get_entry_handle_by_indexEh
00000000 W _ZN3ble7generic16MemorySecurityDb25set_entry_local_ediv_randEPvRKNS_12byte_array_tILj2EEERKNS3_ILj8EEE
00000000 W _ZN3ble7generic16MemorySecurityDb26read_in_entry_peer_signingEPv
00000000 W _ZN3ble7generic16MemorySecurityDb27read_in_entry_peer_identityEPv
00000000 W _ZN3ble7generic16MemorySecurityDb27set_entry_peer_sign_counterEPvm
00000000 W _ZN3ble7generic16MemorySecurityDb7entry_tC1Ev
00000000 W _ZN3ble7generic16MemorySecurityDb7entry_tC2Ev
00000000 n _ZN3ble7generic16MemorySecurityDb7entry_tC5Ev
00000000 W _ZN3ble7generic16MemorySecurityDbD0Ev
00000000 W _ZN3ble7generic16MemorySecurityDbD1Ev
00000000 W _ZN3ble7generic16MemorySecurityDbD2Ev
00000000 n _ZN3ble7generic16MemorySecurityDbD5Ev
00000000 W _ZN3ble7generic17GenericGattClientINS_3pal6vendor6cordio16CordioGattClientENS0_22GenericSecurityManagerINS4_21CordioSecurityManagerENS_6vendor6cordio19SigningEventMonitorEEEE14on_terminationEj
00000000 W _ZN3ble7generic17GenericGattClientINS_3pal6vendor6cordio16CordioGattClientENS0_22GenericSecurityManagerINS4_21CordioSecurityManagerENS_6vendor6cordio19SigningEventMonitorEEEE15on_server_eventEjRKNS2_16AttServerMessageE
00000000 W _ZN3ble7generic17GenericGattClientINS_3pal6vendor6cordio16CordioGattClientENS0_22GenericSecurityManagerINS4_21CordioSecurityManagerENS_6vendor6cordio19SigningEventMonitorEEEE16negotiateAttMtu_Ej
00000000 W _ZN3ble7generic17GenericGattClientINS_3pal6vendor6cordio16CordioGattClientENS0_22GenericSecurityManagerINS4_21CordioSecurityManagerENS_6vendor6cordio19SigningEventMonitorEEEE16ReadControlBlock12handle_errorEPSC_RKNS2_16AttErrorResponseE
00000000 t _ZN3ble7generic17GenericGattClientINS_3pal6vendor6cordio16CordioGattClientENS0_22GenericSecurityManagerINS4_21CordioSecurityManagerENS_6vendor6cordio19SigningEventMonitorEEEE16ReadControlBlock20handle_read_responseINS2_15AttReadResponseEEEvPSC_RKT_.part.250
00000000 t _ZN3ble7generic17GenericGattClientINS_3pal6vendor6cordio16CordioGattClientENS0_22GenericSecurityManagerINS4_21CordioSecurityManagerENS_6vendor6cordio19SigningEventMonitorEEEE16ReadControlBlock20handle_read_responseINS2_19AttReadBlobResponseEEEvPSC_RKT_.part.251
00000000 W _ZN3ble7generic17GenericGattClientINS_3pal6vendor6cordio16CordioGattClientENS0_22GenericSecurityManagerINS4_21CordioSecurityManagerENS_6vendor6cordio19SigningEventMonitorEEEE16ReadControlBlock20handle_timeout_errorEPSC_
00000000 W _ZN3ble7generic17GenericGattClientINS_3pal6vendor6cordio16CordioGattClientENS0_22GenericSecurityManagerINS4_21CordioSecurityManagerENS_6vendor6cordio19SigningEventMonitorEEEE16ReadControlBlock5abortEPSC_
00000000 W _ZN3ble7generic17GenericGattClientINS_3pal6vendor6cordio16CordioGattClientENS0_22GenericSecurityManagerINS4_21CordioSecurityManagerENS_6vendor6cordio19SigningEventMonitorEEEE16ReadControlBlock6handleEPSC_RKNS2_16AttServerMessageE
00000000 W _ZN3ble7generic17GenericGattClientINS_3pal6vendor6cordio16CordioGattClientENS0_22GenericSecurityManagerINS4_21CordioSecurityManagerENS_6vendor6cordio19SigningEventMonitorEEEE16ReadControlBlock9terminateEPSC_RK22GattReadCallbackParams
00000000 W _ZN3ble7generic17GenericGattClientINS_3pal6vendor6cordio16CordioGattClientENS0_22GenericSecurityManagerINS4_21CordioSecurityManagerENS_6vendor6cordio19SigningEventMonitorEEEE16ReadControlBlockC1Ejtt
00000000 W _ZN3ble7generic17GenericGattClientINS_3pal6vendor6cordio16CordioGattClientENS0_22GenericSecurityManagerINS4_21CordioSecurityManagerENS_6vendor6cordio19SigningEventMonitorEEEE16ReadControlBlockC2Ejtt
00000000 n _ZN3ble7generic17GenericGattClientINS_3pal6vendor6cordio16CordioGattClientENS0_22GenericSecurityManagerINS4_21CordioSecurityManagerENS_6vendor6cordio19SigningEventMonitorEEEE16ReadControlBlockC5Ejtt
00000000 W _ZN3ble7generic17GenericGattClientINS_3pal6vendor6cordio16CordioGattClientENS0_22GenericSecurityManagerINS4_21CordioSecurityManagerENS_6vendor6cordio19SigningEventMonitorEEEE16ReadControlBlockD0Ev
00000000 W _ZN3ble7generic17GenericGattClientINS_3pal6vendor6cordio16CordioGattClientENS0_22GenericSecurityManagerINS4_21CordioSecurityManagerENS_6vendor6cordio19SigningEventMonitorEEEE16ReadControlBlockD1Ev
00000000 W _ZN3ble7generic17GenericGattClientINS_3pal6vendor6cordio16CordioGattClientENS0_22GenericSecurityManagerINS4_21CordioSecurityManagerENS_6vendor6cordio19SigningEventMonitorEEEE16ReadControlBlockD2Ev
00000000 n _ZN3ble7generic17GenericGattClientINS_3pal6vendor6cordio16CordioGattClientENS0_22GenericSecurityManagerINS4_21CordioSecurityManagerENS_6vendor6cordio19SigningEventMonitorEEEE16ReadControlBlockD5Ev
00000000 W _ZN3ble7generic17GenericGattClientINS_3pal6vendor6cordio16CordioGattClientENS0_22GenericSecurityManagerINS4_21CordioSecurityManagerENS_6vendor6cordio19SigningEventMonitorEEEE17get_control_blockEj
00000000 W _ZN3ble7generic17GenericGattClientINS_3pal6vendor6cordio16CordioGattClientENS0_22GenericSecurityManagerINS4_21CordioSecurityManagerENS_6vendor6cordio19SigningEventMonitorEEEE17WriteControlBlock12handle_errorEPSC_RKNS2_16AttErrorResponseE
00000000 W _ZN3ble7generic17GenericGattClientINS_3pal6vendor6cordio16CordioGattClientENS0_22GenericSecurityManagerINS4_21CordioSecurityManagerENS_6vendor6cordio19SigningEventMonitorEEEE17WriteControlBlock19clear_prepare_queueEPSC_11ble_error_th
00000000 W _ZN3ble7generic17GenericGattClientINS_3pal6vendor6cordio16CordioGattClientENS0_22GenericSecurityManagerINS4_21CordioSecurityManagerENS_6vendor6cordio19SigningEventMonitorEEEE17WriteControlBlock20handle_timeout_errorEPSC_
00000000 W _ZN3ble7generic17GenericGattClientINS_3pal6vendor6cordio16CordioGattClientENS0_22GenericSecurityManagerINS4_21CordioSecurityManagerENS_6vendor6cordio19SigningEventMonitorEEEE17WriteControlBlock21handle_write_responseEPSC_RKNS2_16AttWriteResponseE
00000000 W _ZN3ble7generic17GenericGattClientINS_3pal6vendor6cordio16CordioGattClientENS0_22GenericSecurityManagerINS4_21CordioSecurityManagerENS_6vendor6cordio19SigningEventMonitorEEEE17WriteControlBlock29handle_execute_write_responseEPSC_RKNS2_23AttExecuteWriteResponseE
00000000 W _ZN3ble7generic17GenericGattClientINS_3pal6vendor6cordio16CordioGattClientENS0_22GenericSecurityManagerINS4_21CordioSecurityManagerENS_6vendor6cordio19SigningEventMonitorEEEE17WriteControlBlock29handle_prepare_write_responseEPSC_RKNS2_23AttPrepareWriteResponseE
00000000 W _ZN3ble7generic17GenericGattClientINS_3pal6vendor6cordio16CordioGattClientENS0_22GenericSecurityManagerINS4_21CordioSecurityManagerENS_6vendor6cordio19SigningEventMonitorEEEE17WriteControlBlock5abortEPSC_
00000000 W _ZN3ble7generic17GenericGattClientINS_3pal6vendor6cordio16CordioGattClientENS0_22GenericSecurityManagerINS4_21CordioSecurityManagerENS_6vendor6cordio19SigningEventMonitorEEEE17WriteControlBlock6handleEPSC_RKNS2_16AttServerMessageE
00000000 W _ZN3ble7generic17GenericGattClientINS_3pal6vendor6cordio16CordioGattClientENS0_22GenericSecurityManagerINS4_21CordioSecurityManagerENS_6vendor6cordio19SigningEventMonitorEEEE17WriteControlBlock9terminateEPSC_RK23GattWriteCallbackParams
00000000 W _ZN3ble7generic17GenericGattClientINS_3pal6vendor6cordio16CordioGattClientENS0_22GenericSecurityManagerINS4_21CordioSecurityManagerENS_6vendor6cordio19SigningEventMonitorEEEE17WriteControlBlockC1EjtPht
00000000 W _ZN3ble7generic17GenericGattClientINS_3pal6vendor6cordio16CordioGattClientENS0_22GenericSecurityManagerINS4_21CordioSecurityManagerENS_6vendor6cordio19SigningEventMonitorEEEE17WriteControlBlockC2EjtPht
00000000 n _ZN3ble7generic17GenericGattClientINS_3pal6vendor6cordio16CordioGattClientENS0_22GenericSecurityManagerINS4_21CordioSecurityManagerENS_6vendor6cordio19SigningEventMonitorEEEE17WriteControlBlockC5EjtPht
00000000 W _ZN3ble7generic17GenericGattClientINS_3pal6vendor6cordio16CordioGattClientENS0_22GenericSecurityManagerINS4_21CordioSecurityManagerENS_6vendor6cordio19SigningEventMonitorEEEE17WriteControlBlockD0Ev
00000000 W _ZN3ble7generic17GenericGattClientINS_3pal6vendor6cordio16CordioGattClientENS0_22GenericSecurityManagerINS4_21CordioSecurityManagerENS_6vendor6cordio19SigningEventMonitorEEEE17WriteControlBlockD1Ev
00000000 W _ZN3ble7generic17GenericGattClientINS_3pal6vendor6cordio16CordioGattClientENS0_22GenericSecurityManagerINS4_21CordioSecurityManagerENS_6vendor6cordio19SigningEventMonitorEEEE17WriteControlBlockD2Ev
00000000 n _ZN3ble7generic17GenericGattClientINS_3pal6vendor6cordio16CordioGattClientENS0_22GenericSecurityManagerINS4_21CordioSecurityManagerENS_6vendor6cordio19SigningEventMonitorEEEE17WriteControlBlockD5Ev
00000000 W _ZN3ble7generic17GenericGattClientINS_3pal6vendor6cordio16CordioGattClientENS0_22GenericSecurityManagerINS4_21CordioSecurityManagerENS_6vendor6cordio19SigningEventMonitorEEEE18on_att_mtu_change_Ejt
00000000 W _ZN3ble7generic17GenericGattClientINS_3pal6vendor6cordio16CordioGattClientENS0_22GenericSecurityManagerINS4_21CordioSecurityManagerENS_6vendor6cordio19SigningEventMonitorEEEE18on_server_responseEjRKNS2_16AttServerMessageE
00000000 W _ZN3ble7generic17GenericGattClientINS_3pal6vendor6cordio16CordioGattClientENS0_22GenericSecurityManagerINS4_21CordioSecurityManagerENS_6vendor6cordio19SigningEventMonitorEEEE21DiscoveryControlBlock14get_end_handleERKNS_24attribute_handle_range_tE
00000000 W _ZN3ble7generic17GenericGattClientINS_3pal6vendor6cordio16CordioGattClientENS0_22GenericSecurityManagerINS4_21CordioSecurityManagerENS_6vendor6cordio19SigningEventMonitorEEEE21DiscoveryControlBlock14get_end_handleERKNS2_26AttReadByGroupTypeResponse16attribute_data_tE
00000000 W _ZN3ble7generic17GenericGattClientINS_3pal6vendor6cordio16CordioGattClientENS0_22GenericSecurityManagerINS4_21CordioSecurityManagerENS_6vendor6cordio19SigningEventMonitorEEEE21DiscoveryControlBlock14insert_serviceEPNSD_9service_tE
00000000 W _ZN3ble7generic17GenericGattClientINS_3pal6vendor6cordio16CordioGattClientENS0_22GenericSecurityManagerINS4_21CordioSecurityManagerENS_6vendor6cordio19SigningEventMonitorEEEE21DiscoveryControlBlock16characteristic_t14get_propertiesERKN4mbed4SpanIKhLin1EEE
00000000 W _ZN3ble7generic17GenericGattClientINS_3pal6vendor6cordio16CordioGattClientENS0_22GenericSecurityManagerINS4_21CordioSecurityManagerENS_6vendor6cordio19SigningEventMonitorEEEE21DiscoveryControlBlock16characteristic_t15set_last_handleEt
00000000 W _ZN3ble7generic17GenericGattClientINS_3pal6vendor6cordio16CordioGattClientENS0_22GenericSecurityManagerINS4_21CordioSecurityManagerENS_6vendor6cordio19SigningEventMonitorEEEE21DiscoveryControlBlock16characteristic_t16get_value_handleERKN4mbed4SpanIKhLin1EEE
00000000 W _ZN3ble7generic17GenericGattClientINS_3pal6vendor6cordio16CordioGattClientENS0_22GenericSecurityManagerINS4_21CordioSecurityManagerENS_6vendor6cordio19SigningEventMonitorEEEE21DiscoveryControlBlock16characteristic_t8get_uuidERKN4mbed4SpanIKhLin1EEE
00000000 W _ZN3ble7generic17GenericGattClientINS_3pal6vendor6cordio16CordioGattClientENS0_22GenericSecurityManagerINS4_21CordioSecurityManagerENS_6vendor6cordio19SigningEventMonitorEEEE21DiscoveryControlBlock16characteristic_tC1EPNS_9interface10GattClientISC_EEjtN4mbed4SpanIKhLin1EEE
00000000 W _ZN3ble7generic17GenericGattClientINS_3pal6vendor6cordio16CordioGattClientENS0_22GenericSecurityManagerINS4_21CordioSecurityManagerENS_6vendor6cordio19SigningEventMonitorEEEE21DiscoveryControlBlock16characteristic_tC1Ev
00000000 W _ZN3ble7generic17GenericGattClientINS_3pal6vendor6cordio16CordioGattClientENS0_22GenericSecurityManagerINS4_21CordioSecurityManagerENS_6vendor6cordio19SigningEventMonitorEEEE21DiscoveryControlBlock16characteristic_tC2EPNS_9interface10GattClientISC_EEjtN4mbed4SpanIKhLin1EEE
00000000 W _ZN3ble7generic17GenericGattClientINS_3pal6vendor6cordio16CordioGattClientENS0_22GenericSecurityManagerINS4_21CordioSecurityManagerENS_6vendor6cordio19SigningEventMonitorEEEE21DiscoveryControlBlock16characteristic_tC2Ev
00000000 n _ZN3ble7generic17GenericGattClientINS_3pal6vendor6cordio16CordioGattClientENS0_22GenericSecurityManagerINS4_21CordioSecurityManagerENS_6vendor6cordio19SigningEventMonitorEEEE21DiscoveryControlBlock16characteristic_tC5EPNS_9interface10GattClientISC_EEjtN4mbed4SpanIKhLin1EEE
00000000 n _ZN3ble7generic17GenericGattClientINS_3pal6vendor6cordio16CordioGattClientENS0_22GenericSecurityManagerINS4_21CordioSecurityManagerENS_6vendor6cordio19SigningEventMonitorEEEE21DiscoveryControlBlock16characteristic_tC5Ev
00000000 W _ZN3ble7generic17GenericGattClientINS_3pal6vendor6cordio16CordioGattClientENS0_22GenericSecurityManagerINS4_21CordioSecurityManagerENS_6vendor6cordio19SigningEventMonitorEEEE21DiscoveryControlBlock16get_start_handleERKNS_24attribute_handle_range_tE
00000000 W _ZN3ble7generic17GenericGattClientINS_3pal6vendor6cordio16CordioGattClientENS0_22GenericSecurityManagerINS4_21CordioSecurityManagerENS_6vendor6cordio19SigningEventMonitorEEEE21DiscoveryControlBlock16get_start_handleERKNS2_26AttReadByGroupTypeResponse16attribute_data_tE
00000000 W _ZN3ble7generic17GenericGattClientINS_3pal6vendor6cordio16CordioGattClientENS0_22GenericSecurityManagerINS4_21CordioSecurityManagerENS_6vendor6cordio19SigningEventMonitorEEEE21DiscoveryControlBlock20handle_timeout_errorEPSC_
00000000 W _ZN3ble7generic17GenericGattClientINS_3pal6vendor6cordio16CordioGattClientENS0_22GenericSecurityManagerINS4_21CordioSecurityManagerENS_6vendor6cordio19SigningEventMonitorEEEE21DiscoveryControlBlock25handle_service_discoveredINS2_26AttFindByTypeValueResponseEEEvPSC_RKT_
00000000 W _ZN3ble7generic17GenericGattClientINS_3pal6vendor6cordio16CordioGattClientENS0_22GenericSecurityManagerINS4_21CordioSecurityManagerENS_6vendor6cordio19SigningEventMonitorEEEE21DiscoveryControlBlock25handle_service_discoveredINS2_26AttReadByGroupTypeResponseEEEvPSC_RKT_
00000000 W _ZN3ble7generic17GenericGattClientINS_3pal6vendor6cordio16CordioGattClientENS0_22GenericSecurityManagerINS4_21CordioSecurityManagerENS_6vendor6cordio19SigningEventMonitorEEEE21DiscoveryControlBlock30start_characteristic_discoveryEPSC_
00000000 W _ZN3ble7generic17GenericGattClientINS_3pal6vendor6cordio16CordioGattClientENS0_22GenericSecurityManagerINS4_21CordioSecurityManagerENS_6vendor6cordio19SigningEventMonitorEEEE21DiscoveryControlBlock32handle_characteristic_discoveredEPSC_RKNS2_21AttReadByTypeResponseE
00000000 W _ZN3ble7generic17GenericGattClientINS_3pal6vendor6cordio16CordioGattClientENS0_22GenericSecurityManagerINS4_21CordioSecurityManagerENS_6vendor6cordio19SigningEventMonitorEEEE21DiscoveryControlBlock37handle_all_characteristics_discoveredEPSC_
00000000 W _ZN3ble7generic17GenericGattClientINS_3pal6vendor6cordio16CordioGattClientENS0_22GenericSecurityManagerINS4_21CordioSecurityManagerENS_6vendor6cordio19SigningEventMonitorEEEE21DiscoveryControlBlock5abortEPSC_
00000000 W _ZN3ble7generic17GenericGattClientINS_3pal6vendor6cordio16CordioGattClientENS0_22GenericSecurityManagerINS4_21CordioSecurityManagerENS_6vendor6cordio19SigningEventMonitorEEEE21DiscoveryControlBlock6handleEPSC_RKNS2_16AttServerMessageE
00000000 W _ZN3ble7generic17GenericGattClientINS_3pal6vendor6cordio16CordioGattClientENS0_22GenericSecurityManagerINS4_21CordioSecurityManagerENS_6vendor6cordio19SigningEventMonitorEEEE21DiscoveryControlBlock8get_uuidERKNS_24attribute_handle_range_tE
00000000 W _ZN3ble7generic17GenericGattClientINS_3pal6vendor6cordio16CordioGattClientENS0_22GenericSecurityManagerINS4_21CordioSecurityManagerENS_6vendor6cordio19SigningEventMonitorEEEE21DiscoveryControlBlock8get_uuidERKNS2_26AttReadByGroupTypeResponse16attribute_data_tE
00000000 W _ZN3ble7generic17GenericGattClientINS_3pal6vendor6cordio16CordioGattClientENS0_22GenericSecurityManagerINS4_21CordioSecurityManagerENS_6vendor6cordio19SigningEventMonitorEEEE21DiscoveryControlBlock9service_tC1EttRK4UUID
00000000 W _ZN3ble7generic17GenericGattClientINS_3pal6vendor6cordio16CordioGattClientENS0_22GenericSecurityManagerINS4_21CordioSecurityManagerENS_6vendor6cordio19SigningEventMonitorEEEE21DiscoveryControlBlock9service_tC2EttRK4UUID
00000000 n _ZN3ble7generic17GenericGattClientINS_3pal6vendor6cordio16CordioGattClientENS0_22GenericSecurityManagerINS4_21CordioSecurityManagerENS_6vendor6cordio19SigningEventMonitorEEEE21DiscoveryControlBlock9service_tC5EttRK4UUID
00000000 W _ZN3ble7generic17GenericGattClientINS_3pal6vendor6cordio16CordioGattClientENS0_22GenericSecurityManagerINS4_21CordioSecurityManagerENS_6vendor6cordio19SigningEventMonitorEEEE21DiscoveryControlBlock9terminateEPSC_
00000000 W _ZN3ble7generic17GenericGattClientINS_3pal6vendor6cordio16CordioGattClientENS0_22GenericSecurityManagerINS4_21CordioSecurityManagerENS_6vendor6cordio19SigningEventMonitorEEEE21DiscoveryControlBlockC1Ej26FunctionPointerWithContextIPK17DiscoveredServiceESE_IPK24DiscoveredCharacteristicE4UUIDSN_
00000000 W _ZN3ble7generic17GenericGattClientINS_3pal6vendor6cordio16CordioGattClientENS0_22GenericSecurityManagerINS4_21CordioSecurityManagerENS_6vendor6cordio19SigningEventMonitorEEEE21DiscoveryControlBlockC2Ej26FunctionPointerWithContextIPK17DiscoveredServiceESE_IPK24DiscoveredCharacteristicE4UUIDSN_
00000000 n _ZN3ble7generic17GenericGattClientINS_3pal6vendor6cordio16CordioGattClientENS0_22GenericSecurityManagerINS4_21CordioSecurityManagerENS_6vendor6cordio19SigningEventMonitorEEEE21DiscoveryControlBlockC5Ej26FunctionPointerWithContextIPK17DiscoveredServiceESE_IPK24DiscoveredCharacteristicE4UUIDSN_
00000000 W _ZN3ble7generic17GenericGattClientINS_3pal6vendor6cordio16CordioGattClientENS0_22GenericSecurityManagerINS4_21CordioSecurityManagerENS_6vendor6cordio19SigningEventMonitorEEEE21DiscoveryControlBlockD0Ev
00000000 W _ZN3ble7generic17GenericGattClientINS_3pal6vendor6cordio16CordioGattClientENS0_22GenericSecurityManagerINS4_21CordioSecurityManagerENS_6vendor6cordio19SigningEventMonitorEEEE21DiscoveryControlBlockD1Ev
00000000 W _ZN3ble7generic17GenericGattClientINS_3pal6vendor6cordio16CordioGattClientENS0_22GenericSecurityManagerINS4_21CordioSecurityManagerENS_6vendor6cordio19SigningEventMonitorEEEE21DiscoveryControlBlockD2Ev
00000000 n _ZN3ble7generic17GenericGattClientINS_3pal6vendor6cordio16CordioGattClientENS0_22GenericSecurityManagerINS4_21CordioSecurityManagerENS_6vendor6cordio19SigningEventMonitorEEEE21DiscoveryControlBlockD5Ev
00000000 W _ZN3ble7generic17GenericGattClientINS_3pal6vendor6cordio16CordioGattClientENS0_22GenericSecurityManagerINS4_21CordioSecurityManagerENS_6vendor6cordio19SigningEventMonitorEEEE21ProcedureControlBlockC1ENS0_16procedure_type_tEj
00000000 W _ZN3ble7generic17GenericGattClientINS_3pal6vendor6cordio16CordioGattClientENS0_22GenericSecurityManagerINS4_21CordioSecurityManagerENS_6vendor6cordio19SigningEventMonitorEEEE21ProcedureControlBlockC2ENS0_16procedure_type_tEj
00000000 n _ZN3ble7generic17GenericGattClientINS_3pal6vendor6cordio16CordioGattClientENS0_22GenericSecurityManagerINS4_21CordioSecurityManagerENS_6vendor6cordio19SigningEventMonitorEEEE21ProcedureControlBlockC5ENS0_16procedure_type_tEj
00000000 W _ZN3ble7generic17GenericGattClientINS_3pal6vendor6cordio16CordioGattClientENS0_22GenericSecurityManagerINS4_21CordioSecurityManagerENS_6vendor6cordio19SigningEventMonitorEEEE21ProcedureControlBlockD0Ev
00000000 W _ZN3ble7generic17GenericGattClientINS_3pal6vendor6cordio16CordioGattClientENS0_22GenericSecurityManagerINS4_21CordioSecurityManagerENS_6vendor6cordio19SigningEventMonitorEEEE21ProcedureControlBlockD1Ev
00000000 W _ZN3ble7generic17GenericGattClientINS_3pal6vendor6cordio16CordioGattClientENS0_22GenericSecurityManagerINS4_21CordioSecurityManagerENS_6vendor6cordio19SigningEventMonitorEEEE21ProcedureControlBlockD2Ev
00000000 n _ZN3ble7generic17GenericGattClientINS_3pal6vendor6cordio16CordioGattClientENS0_22GenericSecurityManagerINS4_21CordioSecurityManagerENS_6vendor6cordio19SigningEventMonitorEEEE21ProcedureControlBlockD5Ev
00000000 W _ZN3ble7generic17GenericGattClientINS_3pal6vendor6cordio16CordioGattClientENS0_22GenericSecurityManagerINS4_21CordioSecurityManagerENS_6vendor6cordio19SigningEventMonitorEEEE22on_transaction_timeoutEj
00000000 W _ZN3ble7generic17GenericGattClientINS_3pal6vendor6cordio16CordioGattClientENS0_22GenericSecurityManagerINS4_21CordioSecurityManagerENS_6vendor6cordio19SigningEventMonitorEEEE22on_write_command_sent_Ejth
00000000 W _ZN3ble7generic17GenericGattClientINS_3pal6vendor6cordio16CordioGattClientENS0_22GenericSecurityManagerINS4_21CordioSecurityManagerENS_6vendor6cordio19SigningEventMonitorEEEE23launchServiceDiscovery_Ej26FunctionPointerWithContextIPK17DiscoveredServiceESD_IPK24DiscoveredCharacteristicERK4UUIDSO_
00000000 W _ZN3ble7generic17GenericGattClientINS_3pal6vendor6cordio16CordioGattClientENS0_22GenericSecurityManagerINS4_21CordioSecurityManagerENS_6vendor6cordio19SigningEventMonitorEEEE26on_server_message_receivedEjRKNS2_16AttServerMessageE
00000000 W _ZN3ble7generic17GenericGattClientINS_3pal6vendor6cordio16CordioGattClientENS0_22GenericSecurityManagerINS4_21CordioSecurityManagerENS_6vendor6cordio19SigningEventMonitorEEEE26set_signing_event_handler_EPSB_
00000000 W _ZN3ble7generic17GenericGattClientINS_3pal6vendor6cordio16CordioGattClientENS0_22GenericSecurityManagerINS4_21CordioSecurityManagerENS_6vendor6cordio19SigningEventMonitorEEEE26terminateServiceDiscovery_Ev
00000000 W _ZN3ble7generic17GenericGattClientINS_3pal6vendor6cordio16CordioGattClientENS0_22GenericSecurityManagerINS4_21CordioSecurityManagerENS_6vendor6cordio19SigningEventMonitorEEEE30onServiceDiscoveryTermination_E26FunctionPointerWithContextIjE
00000000 W _ZN3ble7generic17GenericGattClientINS_3pal6vendor6cordio16CordioGattClientENS0_22GenericSecurityManagerINS4_21CordioSecurityManagerENS_6vendor6cordio19SigningEventMonitorEEEE31DescriptorDiscoveryControlBlock12handle_errorEPSC_RKNS2_16AttErrorResponseE
00000000 W _ZN3ble7generic17GenericGattClientINS_3pal6vendor6cordio16CordioGattClientENS0_22GenericSecurityManagerINS4_21CordioSecurityManagerENS_6vendor6cordio19SigningEventMonitorEEEE31DescriptorDiscoveryControlBlock15handle_responseEPSC_RKNS2_26AttFindInformationResponseE
00000000 W _ZN3ble7generic17GenericGattClientINS_3pal6vendor6cordio16CordioGattClientENS0_22GenericSecurityManagerINS4_21CordioSecurityManagerENS_6vendor6cordio19SigningEventMonitorEEEE31DescriptorDiscoveryControlBlock20handle_timeout_errorEPSC_
00000000 W _ZN3ble7generic17GenericGattClientINS_3pal6vendor6cordio16CordioGattClientENS0_22GenericSecurityManagerINS4_21CordioSecurityManagerENS_6vendor6cordio19SigningEventMonitorEEEE31DescriptorDiscoveryControlBlock5abortEPSC_
00000000 W _ZN3ble7generic17GenericGattClientINS_3pal6vendor6cordio16CordioGattClientENS0_22GenericSecurityManagerINS4_21CordioSecurityManagerENS_6vendor6cordio19SigningEventMonitorEEEE31DescriptorDiscoveryControlBlock5startEPSC_
00000000 W _ZN3ble7generic17GenericGattClientINS_3pal6vendor6cordio16CordioGattClientENS0_22GenericSecurityManagerINS4_21CordioSecurityManagerENS_6vendor6cordio19SigningEventMonitorEEEE31DescriptorDiscoveryControlBlock6handleEPSC_RKNS2_16AttServerMessageE
00000000 W _ZN3ble7generic17GenericGattClientINS_3pal6vendor6cordio16CordioGattClientENS0_22GenericSecurityManagerINS4_21CordioSecurityManagerENS_6vendor6cordio19SigningEventMonitorEEEE31DescriptorDiscoveryControlBlock9terminateEPSC_11ble_error_th
00000000 W _ZN3ble7generic17GenericGattClientINS_3pal6vendor6cordio16CordioGattClientENS0_22GenericSecurityManagerINS4_21CordioSecurityManagerENS_6vendor6cordio19SigningEventMonitorEEEE31DescriptorDiscoveryControlBlockC1ERK24DiscoveredCharacteristicRK26FunctionPointerWithContextIPKN33CharacteristicDescriptorDiscovery25DiscoveryCallbackParams_tEERKSH_IPKNSI_27TerminationCallbackParams_tEE
00000000 W _ZN3ble7generic17GenericGattClientINS_3pal6vendor6cordio16CordioGattClientENS0_22GenericSecurityManagerINS4_21CordioSecurityManagerENS_6vendor6cordio19SigningEventMonitorEEEE31DescriptorDiscoveryControlBlockC2ERK24DiscoveredCharacteristicRK26FunctionPointerWithContextIPKN33CharacteristicDescriptorDiscovery25DiscoveryCallbackParams_tEERKSH_IPKNSI_27TerminationCallbackParams_tEE
00000000 n _ZN3ble7generic17GenericGattClientINS_3pal6vendor6cordio16CordioGattClientENS0_22GenericSecurityManagerINS4_21CordioSecurityManagerENS_6vendor6cordio19SigningEventMonitorEEEE31DescriptorDiscoveryControlBlockC5ERK24DiscoveredCharacteristicRK26FunctionPointerWithContextIPKN33CharacteristicDescriptorDiscovery25DiscoveryCallbackParams_tEERKSH_IPKNSI_27TerminationCallbackParams_tEE
00000000 W _ZN3ble7generic17GenericGattClientINS_3pal6vendor6cordio16CordioGattClientENS0_22GenericSecurityManagerINS4_21CordioSecurityManagerENS_6vendor6cordio19SigningEventMonitorEEEE31DescriptorDiscoveryControlBlockD0Ev
00000000 W _ZN3ble7generic17GenericGattClientINS_3pal6vendor6cordio16CordioGattClientENS0_22GenericSecurityManagerINS4_21CordioSecurityManagerENS_6vendor6cordio19SigningEventMonitorEEEE31DescriptorDiscoveryControlBlockD1Ev
00000000 W _ZN3ble7generic17GenericGattClientINS_3pal6vendor6cordio16CordioGattClientENS0_22GenericSecurityManagerINS4_21CordioSecurityManagerENS_6vendor6cordio19SigningEventMonitorEEEE31DescriptorDiscoveryControlBlockD2Ev
00000000 n _ZN3ble7generic17GenericGattClientINS_3pal6vendor6cordio16CordioGattClientENS0_22GenericSecurityManagerINS4_21CordioSecurityManagerENS_6vendor6cordio19SigningEventMonitorEEEE31DescriptorDiscoveryControlBlockD5Ev
00000000 W _ZN3ble7generic17GenericGattClientINS_3pal6vendor6cordio16CordioGattClientENS0_22GenericSecurityManagerINS4_21CordioSecurityManagerENS_6vendor6cordio19SigningEventMonitorEEEE34discoverCharacteristicDescriptors_ERK24DiscoveredCharacteristicRK26FunctionPointerWithContextIPKN33CharacteristicDescriptorDiscovery25DiscoveryCallbackParams_tEERKSG_IPKNSH_27TerminationCallbackParams_tEE
00000000 W _ZN3ble7generic17GenericGattClientINS_3pal6vendor6cordio16CordioGattClientENS0_22GenericSecurityManagerINS4_21CordioSecurityManagerENS_6vendor6cordio19SigningEventMonitorEEEE43terminateCharacteristicDescriptorDiscovery_ERK24DiscoveredCharacteristic
00000000 W _ZN3ble7generic17GenericGattClientINS_3pal6vendor6cordio16CordioGattClientENS0_22GenericSecurityManagerINS4_21CordioSecurityManagerENS_6vendor6cordio19SigningEventMonitorEEEE6reset_Ev
00000000 W _ZN3ble7generic17GenericGattClientINS_3pal6vendor6cordio16CordioGattClientENS0_22GenericSecurityManagerINS4_21CordioSecurityManagerENS_6vendor6cordio19SigningEventMonitorEEEEC1EPNS5_ISC_EE
00000000 W _ZN3ble7generic17GenericGattClientINS_3pal6vendor6cordio16CordioGattClientENS0_22GenericSecurityManagerINS4_21CordioSecurityManagerENS_6vendor6cordio19SigningEventMonitorEEEEC2EPNS5_ISC_EE
00000000 n _ZN3ble7generic17GenericGattClientINS_3pal6vendor6cordio16CordioGattClientENS0_22GenericSecurityManagerINS4_21CordioSecurityManagerENS_6vendor6cordio19SigningEventMonitorEEEEC5EPNS5_ISC_EE
00000000 W _ZN3ble7generic19SecurityEntryKeys_tC1Ev
00000000 W _ZN3ble7generic19SecurityEntryKeys_tC2Ev
00000000 n _ZN3ble7generic19SecurityEntryKeys_tC5Ev
00000000 W _ZN3ble7generic22GenericSecurityManagerINS_3pal6vendor6cordio21CordioSecurityManagerENS_6vendor6cordio19SigningEventMonitorEE10set_ltk_cbEPvPKNS0_19SecurityEntryKeys_tE
00000000 W _ZN3ble7generic22GenericSecurityManagerINS_3pal6vendor6cordio21CordioSecurityManagerENS_6vendor6cordio19SigningEventMonitorEE12generateOOB_EPKNS_9address_tE
00000000 W _ZN3ble7generic22GenericSecurityManagerINS_3pal6vendor6cordio21CordioSecurityManagerENS_6vendor6cordio19SigningEventMonitorEE12init_signingEv
00000000 W _ZN3ble7generic22GenericSecurityManagerINS_3pal6vendor6cordio21CordioSecurityManagerENS_6vendor6cordio19SigningEventMonitorEE12oobReceived_EPKNS_9address_tEPKNS_12byte_array_tILj16EEESG_
00000000 W _ZN3ble7generic22GenericSecurityManagerINS_3pal6vendor6cordio21CordioSecurityManagerENS_6vendor6cordio19SigningEventMonitorEE13init_databaseEPKc
00000000 W _ZN3ble7generic22GenericSecurityManagerINS_3pal6vendor6cordio21CordioSecurityManagerENS_6vendor6cordio19SigningEventMonitorEE13on_connected_EjNS_9interface9LegacyGapINS0_10GenericGapINS4_3GapENS2_15SecurityManagerINS5_IS9_EES9_EES9_EEE6Role_tENS_19peer_address_type_tEPKhN11BLEProtocol11AddressType4TypeESM_PKNSI_18ConnectionParams_tE
00000000 W _ZN3ble7generic22GenericSecurityManagerINS_3pal6vendor6cordio21CordioSecurityManagerENS_6vendor6cordio19SigningEventMonitorEE14ControlBlock_t30get_initiator_key_distributionEv
00000000 W _ZN3ble7generic22GenericSecurityManagerINS_3pal6vendor6cordio21CordioSecurityManagerENS_6vendor6cordio19SigningEventMonitorEE14ControlBlock_t30get_responder_key_distributionEv
00000000 W _ZN3ble7generic22GenericSecurityManagerINS_3pal6vendor6cordio21CordioSecurityManagerENS_6vendor6cordio19SigningEventMonitorEE14ControlBlock_t30set_initiator_key_distributionENS2_15KeyDistributionE
00000000 W _ZN3ble7generic22GenericSecurityManagerINS_3pal6vendor6cordio21CordioSecurityManagerENS_6vendor6cordio19SigningEventMonitorEE14ControlBlock_t30set_responder_key_distributionENS2_15KeyDistributionE
00000000 W _ZN3ble7generic22GenericSecurityManagerINS_3pal6vendor6cordio21CordioSecurityManagerENS_6vendor6cordio19SigningEventMonitorEE14ControlBlock_tC1Ev
00000000 W _ZN3ble7generic22GenericSecurityManagerINS_3pal6vendor6cordio21CordioSecurityManagerENS_6vendor6cordio19SigningEventMonitorEE14ControlBlock_tC2Ev
00000000 n _ZN3ble7generic22GenericSecurityManagerINS_3pal6vendor6cordio21CordioSecurityManagerENS_6vendor6cordio19SigningEventMonitorEE14ControlBlock_tC5Ev
00000000 W _ZN3ble7generic22GenericSecurityManagerINS_3pal6vendor6cordio21CordioSecurityManagerENS_6vendor6cordio19SigningEventMonitorEE14enableSigning_Ejb
00000000 W _ZN3ble7generic22GenericSecurityManagerINS_3pal6vendor6cordio21CordioSecurityManagerENS_6vendor6cordio19SigningEventMonitorEE14getSigningKey_Ejb
00000000 W _ZN3ble7generic22GenericSecurityManagerINS_3pal6vendor6cordio21CordioSecurityManagerENS_6vendor6cordio19SigningEventMonitorEE14return_csrk_cbEPvPKNS0_22SecurityEntrySigning_tE
00000000 W _ZN3ble7generic22GenericSecurityManagerINS_3pal6vendor6cordio21CordioSecurityManagerENS_6vendor6cordio19SigningEventMonitorEE15get_random_dataEPhj
00000000 W _ZN3ble7generic22GenericSecurityManagerINS_3pal6vendor6cordio21CordioSecurityManagerENS_6vendor6cordio19SigningEventMonitorEE15on_ltk_request_Ej
00000000 W _ZN3ble7generic22GenericSecurityManagerINS_3pal6vendor6cordio21CordioSecurityManagerENS_6vendor6cordio19SigningEventMonitorEE15on_ltk_request_EjRKNS_12byte_array_tILj2EEERKNSA_ILj8EEE
00000000 W _ZN3ble7generic22GenericSecurityManagerINS_3pal6vendor6cordio21CordioSecurityManagerENS_6vendor6cordio19SigningEventMonitorEE15passkeyEntered_EjPh
00000000 W _ZN3ble7generic22GenericSecurityManagerINS_3pal6vendor6cordio21CordioSecurityManagerENS_6vendor6cordio19SigningEventMonitorEE15requestPairing_Ej
00000000 W _ZN3ble7generic22GenericSecurityManagerINS_3pal6vendor6cordio21CordioSecurityManagerENS_6vendor6cordio19SigningEventMonitorEE16on_disconnected_EjNS_9interface9LegacyGapINS0_10GenericGapINS4_3GapENS2_15SecurityManagerINS5_IS9_EES9_EES9_EEE21DisconnectionReason_tE
00000000 W _ZN3ble7generic22GenericSecurityManagerINS_3pal6vendor6cordio21CordioSecurityManagerENS_6vendor6cordio19SigningEventMonitorEE16on_signed_write_Ev
00000000 W _ZN3ble7generic22GenericSecurityManagerINS_3pal6vendor6cordio21CordioSecurityManagerENS_6vendor6cordio19SigningEventMonitorEE16set_peer_csrk_cbEPvPKNS0_22SecurityEntrySigning_tE
00000000 W _ZN3ble7generic22GenericSecurityManagerINS_3pal6vendor6cordio21CordioSecurityManagerENS_6vendor6cordio19SigningEventMonitorEE16setIoCapability_ENS_9interface15SecurityManagerIS9_E24SecurityIOCapabilities_tE
00000000 W _ZN3ble7generic22GenericSecurityManagerINS_3pal6vendor6cordio21CordioSecurityManagerENS_6vendor6cordio19SigningEventMonitorEE16setLinkSecurity_EjNS_9interface15SecurityManagerIS9_E14SecurityMode_tE
00000000 W _ZN3ble7generic22GenericSecurityManagerINS_3pal6vendor6cordio21CordioSecurityManagerENS_6vendor6cordio19SigningEventMonitorEE16setOOBDataUsage_Ejbb
00000000 W _ZN3ble7generic22GenericSecurityManagerINS_3pal6vendor6cordio21CordioSecurityManagerENS_6vendor6cordio19SigningEventMonitorEE17enable_encryptionEj
00000000 W _ZN3ble7generic22GenericSecurityManagerINS_3pal6vendor6cordio21CordioSecurityManagerENS_6vendor6cordio19SigningEventMonitorEE17get_control_blockEj
00000000 W _ZN3ble7generic22GenericSecurityManagerINS_3pal6vendor6cordio21CordioSecurityManagerENS_6vendor6cordio19SigningEventMonitorEE17get_control_blockEPv
00000000 W _ZN3ble7generic22GenericSecurityManagerINS_3pal6vendor6cordio21CordioSecurityManagerENS_6vendor6cordio19SigningEventMonitorEE17get_control_blockERKNS_9address_tE
00000000 W _ZN3ble7generic22GenericSecurityManagerINS_3pal6vendor6cordio21CordioSecurityManagerENS_6vendor6cordio19SigningEventMonitorEE17on_pairing_error_EjNS_17pairing_failure_tE
00000000 W _ZN3ble7generic22GenericSecurityManagerINS_3pal6vendor6cordio21CordioSecurityManagerENS_6vendor6cordio19SigningEventMonitorEE18getLinkEncryption_EjPNS_17link_encryption_tE
00000000 W _ZN3ble7generic22GenericSecurityManagerINS_3pal6vendor6cordio21CordioSecurityManagerENS_6vendor6cordio19SigningEventMonitorEE18set_mitm_performedEjb
00000000 W _ZN3ble7generic22GenericSecurityManagerINS_3pal6vendor6cordio21CordioSecurityManagerENS_6vendor6cordio19SigningEventMonitorEE18setDisplayPasskey_EPKh
00000000 W _ZN3ble7generic22GenericSecurityManagerINS_3pal6vendor6cordio21CordioSecurityManagerENS_6vendor6cordio19SigningEventMonitorEE18setLinkEncryption_EjNS_17link_encryption_tE
00000000 W _ZN3ble7generic22GenericSecurityManagerINS_3pal6vendor6cordio21CordioSecurityManagerENS_6vendor6cordio19SigningEventMonitorEE19allowLegacyPairing_Eb
00000000 W _ZN3ble7generic22GenericSecurityManagerINS_3pal6vendor6cordio21CordioSecurityManagerENS_6vendor6cordio19SigningEventMonitorEE19init_resolving_listEv
00000000 W _ZN3ble7generic22GenericSecurityManagerINS_3pal6vendor6cordio21CordioSecurityManagerENS_6vendor6cordio19SigningEventMonitorEE19on_pairing_request_EjbNS2_18AuthenticationMaskENS2_15KeyDistributionESB_
00000000 W _ZN3ble7generic22GenericSecurityManagerINS_3pal6vendor6cordio21CordioSecurityManagerENS_6vendor6cordio19SigningEventMonitorEE19on_passkey_display_Ejm
00000000 W _ZN3ble7generic22GenericSecurityManagerINS_3pal6vendor6cordio21CordioSecurityManagerENS_6vendor6cordio19SigningEventMonitorEE19on_passkey_request_Ej
00000000 W _ZN3ble7generic22GenericSecurityManagerINS_3pal6vendor6cordio21CordioSecurityManagerENS_6vendor6cordio19SigningEventMonitorEE19update_oob_presenceEj
00000000 W _ZN3ble7generic22GenericSecurityManagerINS_3pal6vendor6cordio21CordioSecurityManagerENS_6vendor6cordio19SigningEventMonitorEE20confirmationEntered_Ejb
00000000 W _ZN3ble7generic22GenericSecurityManagerINS_3pal6vendor6cordio21CordioSecurityManagerENS_6vendor6cordio19SigningEventMonitorEE20enable_encryption_cbEPvPKNS0_19SecurityEntryKeys_tE
00000000 W _ZN3ble7generic22GenericSecurityManagerINS_3pal6vendor6cordio21CordioSecurityManagerENS_6vendor6cordio19SigningEventMonitorEE20setDatabaseFilepath_EPKc
00000000 W _ZN3ble7generic22GenericSecurityManagerINS_3pal6vendor6cordio21CordioSecurityManagerENS_6vendor6cordio19SigningEventMonitorEE21acceptPairingRequest_Ej
00000000 W _ZN3ble7generic22GenericSecurityManagerINS_3pal6vendor6cordio21CordioSecurityManagerENS_6vendor6cordio19SigningEventMonitorEE21acquire_control_blockEj
00000000 W _ZN3ble7generic22GenericSecurityManagerINS_3pal6vendor6cordio21CordioSecurityManagerENS_6vendor6cordio19SigningEventMonitorEE21cancelPairingRequest_Ej
00000000 W _ZN3ble7generic22GenericSecurityManagerINS_3pal6vendor6cordio21CordioSecurityManagerENS_6vendor6cordio19SigningEventMonitorEE21getEncryptionKeySize_EjPh
00000000 W _ZN3ble7generic22GenericSecurityManagerINS_3pal6vendor6cordio21CordioSecurityManagerENS_6vendor6cordio19SigningEventMonitorEE21on_pairing_completed_Ej
00000000 W _ZN3ble7generic22GenericSecurityManagerINS_3pal6vendor6cordio21CordioSecurityManagerENS_6vendor6cordio19SigningEventMonitorEE21on_pairing_timed_out_Ej
00000000 W _ZN3ble7generic22GenericSecurityManagerINS_3pal6vendor6cordio21CordioSecurityManagerENS_6vendor6cordio19SigningEventMonitorEE21on_valid_mic_timeout_Ej
00000000 W _ZN3ble7generic22GenericSecurityManagerINS_3pal6vendor6cordio21CordioSecurityManagerENS_6vendor6cordio19SigningEventMonitorEE21purgeAllBondingState_Ev
00000000 W _ZN3ble7generic22GenericSecurityManagerINS_3pal6vendor6cordio21CordioSecurityManagerENS_6vendor6cordio19SigningEventMonitorEE21release_control_blockEPNS9_14ControlBlock_tE
00000000 W _ZN3ble7generic22GenericSecurityManagerINS_3pal6vendor6cordio21CordioSecurityManagerENS_6vendor6cordio19SigningEventMonitorEE22requestAuthentication_Ej
00000000 W _ZN3ble7generic22GenericSecurityManagerINS_3pal6vendor6cordio21CordioSecurityManagerENS_6vendor6cordio19SigningEventMonitorEE22slave_security_requestEj
00000000 W _ZN3ble7generic22GenericSecurityManagerINS_3pal6vendor6cordio21CordioSecurityManagerENS_6vendor6cordio19SigningEventMonitorEE24on_confirmation_request_Ej
00000000 W _ZN3ble7generic22GenericSecurityManagerINS_3pal6vendor6cordio21CordioSecurityManagerENS_6vendor6cordio19SigningEventMonitorEE24on_keys_distributed_irk_EjRKNS_12byte_array_tILj16EEE
00000000 W _ZN3ble7generic22GenericSecurityManagerINS_3pal6vendor6cordio21CordioSecurityManagerENS_6vendor6cordio19SigningEventMonitorEE24on_keys_distributed_ltk_EjRKNS_12byte_array_tILj16EEE
00000000 W _ZN3ble7generic22GenericSecurityManagerINS_3pal6vendor6cordio21CordioSecurityManagerENS_6vendor6cordio19SigningEventMonitorEE24setKeypressNotification_Eb
00000000 W _ZN3ble7generic22GenericSecurityManagerINS_3pal6vendor6cordio21CordioSecurityManagerENS_6vendor6cordio19SigningEventMonitorEE25getAuthenticationTimeout_EjPm
00000000 W _ZN3ble7generic22GenericSecurityManagerINS_3pal6vendor6cordio21CordioSecurityManagerENS_6vendor6cordio19SigningEventMonitorEE25legacyPairingOobReceived_EPKNS_9address_tEPKNS_12byte_array_tILj16EEE
00000000 W _ZN3ble7generic22GenericSecurityManagerINS_3pal6vendor6cordio21CordioSecurityManagerENS_6vendor6cordio19SigningEventMonitorEE25on_keypress_notification_EjNS_9interface15SecurityManagerIS9_E10Keypress_tE
00000000 W _ZN3ble7generic22GenericSecurityManagerINS_3pal6vendor6cordio21CordioSecurityManagerENS_6vendor6cordio19SigningEventMonitorEE25on_keys_distributed_csrk_EjRKNS_12byte_array_tILj16EEE
00000000 W _ZN3ble7generic22GenericSecurityManagerINS_3pal6vendor6cordio21CordioSecurityManagerENS_6vendor6cordio19SigningEventMonitorEE25on_signed_write_received_Ejm
00000000 W _ZN3ble7generic22GenericSecurityManagerINS_3pal6vendor6cordio21CordioSecurityManagerENS_6vendor6cordio19SigningEventMonitorEE25sendKeypressNotification_EjNS_9interface15SecurityManagerIS9_E10Keypress_tE
00000000 W _ZN3ble7generic22GenericSecurityManagerINS_3pal6vendor6cordio21CordioSecurityManagerENS_6vendor6cordio19SigningEventMonitorEE25setAuthenticationTimeout_Ejm
00000000 W _ZN3ble7generic22GenericSecurityManagerINS_3pal6vendor6cordio21CordioSecurityManagerENS_6vendor6cordio19SigningEventMonitorEE25setPrivateAddressTimeout_Et
00000000 W _ZN3ble7generic22GenericSecurityManagerINS_3pal6vendor6cordio21CordioSecurityManagerENS_6vendor6cordio19SigningEventMonitorEE26on_identity_list_retrievedERN4mbed4SpanINS0_23SecurityEntryIdentity_tELin1EEEj
00000000 W _ZN3ble7generic22GenericSecurityManagerINS_3pal6vendor6cordio21CordioSecurityManagerENS_6vendor6cordio19SigningEventMonitorEE26on_link_encryption_result_EjNS_17link_encryption_tE
00000000 W _ZN3ble7generic22GenericSecurityManagerINS_3pal6vendor6cordio21CordioSecurityManagerENS_6vendor6cordio19SigningEventMonitorEE26on_slave_security_request_EjNS2_18AuthenticationMaskE
00000000 W _ZN3ble7generic22GenericSecurityManagerINS_3pal6vendor6cordio21CordioSecurityManagerENS_6vendor6cordio19SigningEventMonitorEE26setHintFutureRoleReversal_Eb
00000000 W _ZN3ble7generic22GenericSecurityManagerINS_3pal6vendor6cordio21CordioSecurityManagerENS_6vendor6cordio19SigningEventMonitorEE27on_keys_distributed_bdaddr_EjNS_26target_peer_address_type_tERKNS_9address_tE
00000000 W _ZN3ble7generic22GenericSecurityManagerINS_3pal6vendor6cordio21CordioSecurityManagerENS_6vendor6cordio19SigningEventMonitorEE27on_security_entry_retrievedEPvPKNS0_23SecurityEntryIdentity_tE
00000000 W _ZN3ble7generic22GenericSecurityManagerINS_3pal6vendor6cordio21CordioSecurityManagerENS_6vendor6cordio19SigningEventMonitorEE28getSecureConnectionsSupport_EPb
00000000 W _ZN3ble7generic22GenericSecurityManagerINS_3pal6vendor6cordio21CordioSecurityManagerENS_6vendor6cordio19SigningEventMonitorEE28preserveBondingStateOnReset_Eb
00000000 W _ZN3ble7generic22GenericSecurityManagerINS_3pal6vendor6cordio21CordioSecurityManagerENS_6vendor6cordio19SigningEventMonitorEE29setEncryptionKeyRequirements_Ehh
00000000 W _ZN3ble7generic22GenericSecurityManagerINS_3pal6vendor6cordio21CordioSecurityManagerENS_6vendor6cordio19SigningEventMonitorEE30on_keys_distributed_ediv_rand_EjRKNS_12byte_array_tILj2EEERKNSA_ILj8EEE
00000000 W _ZN3ble7generic22GenericSecurityManagerINS_3pal6vendor6cordio21CordioSecurityManagerENS_6vendor6cordio19SigningEventMonitorEE30on_keys_distributed_local_ltk_EjRKNS_12byte_array_tILj16EEE
00000000 W _ZN3ble7generic22GenericSecurityManagerINS_3pal6vendor6cordio21CordioSecurityManagerENS_6vendor6cordio19SigningEventMonitorEE30on_legacy_pairing_oob_request_Ej
00000000 W _ZN3ble7generic22GenericSecurityManagerINS_3pal6vendor6cordio21CordioSecurityManagerENS_6vendor6cordio19SigningEventMonitorEE31setPairingRequestAuthorisation_Eb
00000000 W _ZN3ble7generic22GenericSecurityManagerINS_3pal6vendor6cordio21CordioSecurityManagerENS_6vendor6cordio19SigningEventMonitorEE34on_secure_connections_oob_request_Ej
00000000 W _ZN3ble7generic22GenericSecurityManagerINS_3pal6vendor6cordio21CordioSecurityManagerENS_6vendor6cordio19SigningEventMonitorEE36on_keys_distributed_local_ediv_rand_EjRKNS_12byte_array_tILj2EEERKNSA_ILj8EEE
00000000 W _ZN3ble7generic22GenericSecurityManagerINS_3pal6vendor6cordio21CordioSecurityManagerENS_6vendor6cordio19SigningEventMonitorEE36on_secure_connections_ltk_generated_EjRKNS_12byte_array_tILj16EEE
00000000 W _ZN3ble7generic22GenericSecurityManagerINS_3pal6vendor6cordio21CordioSecurityManagerENS_6vendor6cordio19SigningEventMonitorEE36on_secure_connections_oob_generated_ERKNS_12byte_array_tILj16EEESD_
00000000 W _ZN3ble7generic22GenericSecurityManagerINS_3pal6vendor6cordio21CordioSecurityManagerENS_6vendor6cordio19SigningEventMonitorEE37on_link_encryption_request_timed_out_Ej
00000000 W _ZN3ble7generic22GenericSecurityManagerINS_3pal6vendor6cordio21CordioSecurityManagerENS_6vendor6cordio19SigningEventMonitorEE37on_signed_write_verification_failure_Ej
00000000 W _ZN3ble7generic22GenericSecurityManagerINS_3pal6vendor6cordio21CordioSecurityManagerENS_6vendor6cordio19SigningEventMonitorEE5init_EbbNS_9interface15SecurityManagerIS9_E24SecurityIOCapabilities_tEPKhbPKc
00000000 W _ZN3ble7generic22GenericSecurityManagerINS_3pal6vendor6cordio21CordioSecurityManagerENS_6vendor6cordio19SigningEventMonitorEE6reset_Ev
00000000 W _ZN3ble7generic22GenericSecurityManagerINS_3pal6vendor6cordio21CordioSecurityManagerENS_6vendor6cordio19SigningEventMonitorEEC1ERNS2_15SecurityManagerINS5_IS9_EES9_EERNS2_22ConnectionEventMonitorIS9_EERNS8_IS9_EE
00000000 W _ZN3ble7generic22GenericSecurityManagerINS_3pal6vendor6cordio21CordioSecurityManagerENS_6vendor6cordio19SigningEventMonitorEEC2ERNS2_15SecurityManagerINS5_IS9_EES9_EERNS2_22ConnectionEventMonitorIS9_EERNS8_IS9_EE
00000000 n _ZN3ble7generic22GenericSecurityManagerINS_3pal6vendor6cordio21CordioSecurityManagerENS_6vendor6cordio19SigningEventMonitorEEC5ERNS2_15SecurityManagerINS5_IS9_EES9_EERNS2_22ConnectionEventMonitorIS9_EERNS8_IS9_EE
00000000 W _ZN3ble7generic22GenericSecurityManagerINS_3pal6vendor6cordio21CordioSecurityManagerENS_6vendor6cordio19SigningEventMonitorEED1Ev
00000000 W _ZN3ble7generic22GenericSecurityManagerINS_3pal6vendor6cordio21CordioSecurityManagerENS_6vendor6cordio19SigningEventMonitorEED2Ev
00000000 n _ZN3ble7generic22GenericSecurityManagerINS_3pal6vendor6cordio21CordioSecurityManagerENS_6vendor6cordio19SigningEventMonitorEED5Ev
00000000 W _ZN3ble7generic23SecurityEntryIdentity_tC1Ev
00000000 W _ZN3ble7generic23SecurityEntryIdentity_tC2Ev
00000000 n _ZN3ble7generic23SecurityEntryIdentity_tC5Ev
00000000 W _ZN3ble8DurationItLm10000ENS_5RangeILm10ELm3200EEEPvEC1Et
00000000 W _ZN3ble8DurationItLm10000ENS_5RangeILm10ELm3200EEEPvEC2Et
00000000 n _ZN3ble8DurationItLm10000ENS_5RangeILm10ELm3200EEEPvEC5Et
00000000 W _ZN3ble8DurationItLm1250ENS_5RangeILm6ELm3200EEEPvEC1Et
00000000 W _ZN3ble8DurationItLm1250ENS_5RangeILm6ELm3200EEEPvEC2Et
00000000 n _ZN3ble8DurationItLm1250ENS_5RangeILm6ELm3200EEEPvEC5Et
00000000 W _ZN3ble9address_tC1EPKh
00000000 W _ZN3ble9address_tC1Ev
00000000 W _ZN3ble9address_tC2EPKh
00000000 W _ZN3ble9address_tC2Ev
00000000 n _ZN3ble9address_tC5EPKh
00000000 n _ZN3ble9address_tC5Ev
00000000 W _ZN3ble9interface10GattClientINS_7generic17GenericGattClientINS_3pal6vendor6cordio16CordioGattClientENS2_22GenericSecurityManagerINS6_21CordioSecurityManagerENS_6vendor6cordio19SigningEventMonitorEEEEEE10onDataReadE26FunctionPointerWithContextIPK22GattReadCallbackParamsE
00000000 W _ZN3ble9interface10GattClientINS_7generic17GenericGattClientINS_3pal6vendor6cordio16CordioGattClientENS2_22GenericSecurityManagerINS6_21CordioSecurityManagerENS_6vendor6cordio19SigningEventMonitorEEEEEE10onDataReadEv
00000000 W _ZN3ble9interface10GattClientINS_7generic17GenericGattClientINS_3pal6vendor6cordio16CordioGattClientENS2_22GenericSecurityManagerINS6_21CordioSecurityManagerENS_6vendor6cordio19SigningEventMonitorEEEEEE10onShutdownERK26FunctionPointerWithContextIPKSF_E
00000000 W _ZN3ble9interface10GattClientINS_7generic17GenericGattClientINS_3pal6vendor6cordio16CordioGattClientENS2_22GenericSecurityManagerINS6_21CordioSecurityManagerENS_6vendor6cordio19SigningEventMonitorEEEEEE10onShutdownEv
00000000 W _ZN3ble9interface10GattClientINS_7generic17GenericGattClientINS_3pal6vendor6cordio16CordioGattClientENS2_22GenericSecurityManagerINS6_21CordioSecurityManagerENS_6vendor6cordio19SigningEventMonitorEEEEEE11onDataWriteE26FunctionPointerWithContextIPK23GattWriteCallbackParamsE
00000000 W _ZN3ble9interface10GattClientINS_7generic17GenericGattClientINS_3pal6vendor6cordio16CordioGattClientENS2_22GenericSecurityManagerINS6_21CordioSecurityManagerENS_6vendor6cordio19SigningEventMonitorEEEEEE12EventHandler14onAttMtuChangeEjt
00000000 W _ZN3ble9interface10GattClientINS_7generic17GenericGattClientINS_3pal6vendor6cordio16CordioGattClientENS2_22GenericSecurityManagerINS6_21CordioSecurityManagerENS_6vendor6cordio19SigningEventMonitorEEEEEE13onDataWrittenE26FunctionPointerWithContextIPK23GattWriteCallbackParamsE
00000000 W _ZN3ble9interface10GattClientINS_7generic17GenericGattClientINS_3pal6vendor6cordio16CordioGattClientENS2_22GenericSecurityManagerINS6_21CordioSecurityManagerENS_6vendor6cordio19SigningEventMonitorEEEEEE13onDataWrittenEv
00000000 W _ZN3ble9interface10GattClientINS_7generic17GenericGattClientINS_3pal6vendor6cordio16CordioGattClientENS2_22GenericSecurityManagerINS6_21CordioSecurityManagerENS_6vendor6cordio19SigningEventMonitorEEEEEE15negotiateAttMtuEj
00000000 W _ZN3ble9interface10GattClientINS_7generic17GenericGattClientINS_3pal6vendor6cordio16CordioGattClientENS2_22GenericSecurityManagerINS6_21CordioSecurityManagerENS_6vendor6cordio19SigningEventMonitorEEEEEE15processHVXEventEPK21GattHVXCallbackParams
00000000 W _ZN3ble9interface10GattClientINS_7generic17GenericGattClientINS_3pal6vendor6cordio16CordioGattClientENS2_22GenericSecurityManagerINS6_21CordioSecurityManagerENS_6vendor6cordio19SigningEventMonitorEEEEEE15setEventHandlerEPNSF_12EventHandlerE
00000000 W _ZN3ble9interface10GattClientINS_7generic17GenericGattClientINS_3pal6vendor6cordio16CordioGattClientENS2_22GenericSecurityManagerINS6_21CordioSecurityManagerENS_6vendor6cordio19SigningEventMonitorEEEEEE16discoverServicesEj26FunctionPointerWithContextIPK17DiscoveredServiceERK4UUID
00000000 W _ZN3ble9interface10GattClientINS_7generic17GenericGattClientINS_3pal6vendor6cordio16CordioGattClientENS2_22GenericSecurityManagerINS6_21CordioSecurityManagerENS_6vendor6cordio19SigningEventMonitorEEEEEE16discoverServicesEj26FunctionPointerWithContextIPK17DiscoveredServiceEtt
00000000 W _ZN3ble9interface10GattClientINS_7generic17GenericGattClientINS_3pal6vendor6cordio16CordioGattClientENS2_22GenericSecurityManagerINS6_21CordioSecurityManagerENS_6vendor6cordio19SigningEventMonitorEEEEEE16negotiateAttMtu_Ej
00000000 W _ZN3ble9interface10GattClientINS_7generic17GenericGattClientINS_3pal6vendor6cordio16CordioGattClientENS2_22GenericSecurityManagerINS6_21CordioSecurityManagerENS_6vendor6cordio19SigningEventMonitorEEEEEE17discoverServices_Ej26FunctionPointerWithContextIPK17DiscoveredServiceEtt
00000000 W _ZN3ble9interface10GattClientINS_7generic17GenericGattClientINS_3pal6vendor6cordio16CordioGattClientENS2_22GenericSecurityManagerINS6_21CordioSecurityManagerENS_6vendor6cordio19SigningEventMonitorEEEEEE19processReadResponseEPK22GattReadCallbackParams
00000000 W _ZN3ble9interface10GattClientINS_7generic17GenericGattClientINS_3pal6vendor6cordio16CordioGattClientENS2_22GenericSecurityManagerINS6_21CordioSecurityManagerENS_6vendor6cordio19SigningEventMonitorEEEEEE20processWriteResponseEPK23GattWriteCallbackParams
00000000 W _ZN3ble9interface10GattClientINS_7generic17GenericGattClientINS_3pal6vendor6cordio16CordioGattClientENS2_22GenericSecurityManagerINS6_21CordioSecurityManagerENS_6vendor6cordio19SigningEventMonitorEEEEEE22launchServiceDiscoveryEj26FunctionPointerWithContextIPK17DiscoveredServiceESG_IPK24DiscoveredCharacteristicERK4UUIDSR_
00000000 W _ZN3ble9interface10GattClientINS_7generic17GenericGattClientINS_3pal6vendor6cordio16CordioGattClientENS2_22GenericSecurityManagerINS6_21CordioSecurityManagerENS_6vendor6cordio19SigningEventMonitorEEEEEE23launchServiceDiscovery_Ej26FunctionPointerWithContextIPK17DiscoveredServiceESG_IPK24DiscoveredCharacteristicERK4UUIDSR_
00000000 W _ZN3ble9interface10GattClientINS_7generic17GenericGattClientINS_3pal6vendor6cordio16CordioGattClientENS2_22GenericSecurityManagerINS6_21CordioSecurityManagerENS_6vendor6cordio19SigningEventMonitorEEEEEE25terminateServiceDiscoveryEv
00000000 W _ZN3ble9interface10GattClientINS_7generic17GenericGattClientINS_3pal6vendor6cordio16CordioGattClientENS2_22GenericSecurityManagerINS6_21CordioSecurityManagerENS_6vendor6cordio19SigningEventMonitorEEEEEE26terminateServiceDiscovery_Ev
00000000 W _ZN3ble9interface10GattClientINS_7generic17GenericGattClientINS_3pal6vendor6cordio16CordioGattClientENS2_22GenericSecurityManagerINS6_21CordioSecurityManagerENS_6vendor6cordio19SigningEventMonitorEEEEEE29onServiceDiscoveryTerminationE26FunctionPointerWithContextIjE
00000000 W _ZN3ble9interface10GattClientINS_7generic17GenericGattClientINS_3pal6vendor6cordio16CordioGattClientENS2_22GenericSecurityManagerINS6_21CordioSecurityManagerENS_6vendor6cordio19SigningEventMonitorEEEEEE30onServiceDiscoveryTermination_E26FunctionPointerWithContextIjE
00000000 W _ZN3ble9interface10GattClientINS_7generic17GenericGattClientINS_3pal6vendor6cordio16CordioGattClientENS2_22GenericSecurityManagerINS6_21CordioSecurityManagerENS_6vendor6cordio19SigningEventMonitorEEEEEE33discoverCharacteristicDescriptorsERK24DiscoveredCharacteristicRK26FunctionPointerWithContextIPKN33CharacteristicDescriptorDiscovery25DiscoveryCallbackParams_tEERKSJ_IPKNSK_27TerminationCallbackParams_tEE
00000000 W _ZN3ble9interface10GattClientINS_7generic17GenericGattClientINS_3pal6vendor6cordio16CordioGattClientENS2_22GenericSecurityManagerINS6_21CordioSecurityManagerENS_6vendor6cordio19SigningEventMonitorEEEEEE34discoverCharacteristicDescriptors_ERK24DiscoveredCharacteristicRK26FunctionPointerWithContextIPKN33CharacteristicDescriptorDiscovery25DiscoveryCallbackParams_tEERKSJ_IPKNSK_27TerminationCallbackParams_tEE
00000000 W _ZN3ble9interface10GattClientINS_7generic17GenericGattClientINS_3pal6vendor6cordio16CordioGattClientENS2_22GenericSecurityManagerINS6_21CordioSecurityManagerENS_6vendor6cordio19SigningEventMonitorEEEEEE42terminateCharacteristicDescriptorDiscoveryERK24DiscoveredCharacteristic
00000000 W _ZN3ble9interface10GattClientINS_7generic17GenericGattClientINS_3pal6vendor6cordio16CordioGattClientENS2_22GenericSecurityManagerINS6_21CordioSecurityManagerENS_6vendor6cordio19SigningEventMonitorEEEEEE43terminateCharacteristicDescriptorDiscovery_ERK24DiscoveredCharacteristic
00000000 W _ZN3ble9interface10GattClientINS_7generic17GenericGattClientINS_3pal6vendor6cordio16CordioGattClientENS2_22GenericSecurityManagerINS6_21CordioSecurityManagerENS_6vendor6cordio19SigningEventMonitorEEEEEE5onHVXE26FunctionPointerWithContextIPK21GattHVXCallbackParamsE
00000000 W _ZN3ble9interface10GattClientINS_7generic17GenericGattClientINS_3pal6vendor6cordio16CordioGattClientENS2_22GenericSecurityManagerINS6_21CordioSecurityManagerENS_6vendor6cordio19SigningEventMonitorEEEEEE5onHVXEv
00000000 W _ZN3ble9interface10GattClientINS_7generic17GenericGattClientINS_3pal6vendor6cordio16CordioGattClientENS2_22GenericSecurityManagerINS6_21CordioSecurityManagerENS_6vendor6cordio19SigningEventMonitorEEEEEE5resetEv
00000000 W _ZN3ble9interface10GattClientINS_7generic17GenericGattClientINS_3pal6vendor6cordio16CordioGattClientENS2_22GenericSecurityManagerINS6_21CordioSecurityManagerENS_6vendor6cordio19SigningEventMonitorEEEEEE6reset_Ev
00000000 W _ZN3ble9interface10GattClientINS_7generic17GenericGattClientINS_3pal6vendor6cordio16CordioGattClientENS2_22GenericSecurityManagerINS6_21CordioSecurityManagerENS_6vendor6cordio19SigningEventMonitorEEEEEEC1Ev
00000000 W _ZN3ble9interface10GattClientINS_7generic17GenericGattClientINS_3pal6vendor6cordio16CordioGattClientENS2_22GenericSecurityManagerINS6_21CordioSecurityManagerENS_6vendor6cordio19SigningEventMonitorEEEEEEC2Ev
00000000 n _ZN3ble9interface10GattClientINS_7generic17GenericGattClientINS_3pal6vendor6cordio16CordioGattClientENS2_22GenericSecurityManagerINS6_21CordioSecurityManagerENS_6vendor6cordio19SigningEventMonitorEEEEEEC5Ev
00000000 W _ZN3ble9interface10GattClientINS_7generic17GenericGattClientINS_3pal6vendor6cordio16CordioGattClientENS2_22GenericSecurityManagerINS6_21CordioSecurityManagerENS_6vendor6cordio19SigningEventMonitorEEEEEED1Ev
00000000 W _ZN3ble9interface10GattClientINS_7generic17GenericGattClientINS_3pal6vendor6cordio16CordioGattClientENS2_22GenericSecurityManagerINS6_21CordioSecurityManagerENS_6vendor6cordio19SigningEventMonitorEEEEEED2Ev
00000000 n _ZN3ble9interface10GattClientINS_7generic17GenericGattClientINS_3pal6vendor6cordio16CordioGattClientENS2_22GenericSecurityManagerINS6_21CordioSecurityManagerENS_6vendor6cordio19SigningEventMonitorEEEEEED5Ev
00000000 W _ZN3ble9interface15SecurityManagerINS_7generic22GenericSecurityManagerINS_3pal6vendor6cordio21CordioSecurityManagerENS_6vendor6cordio19SigningEventMonitorEEEE10onShutdownERK26FunctionPointerWithContextIPKSC_E
00000000 W _ZN3ble9interface15SecurityManagerINS_7generic22GenericSecurityManagerINS_3pal6vendor6cordio21CordioSecurityManagerENS_6vendor6cordio19SigningEventMonitorEEEE10onShutdownEv
00000000 W _ZN3ble9interface15SecurityManagerINS_7generic22GenericSecurityManagerINS_3pal6vendor6cordio21CordioSecurityManagerENS_6vendor6cordio19SigningEventMonitorEEEE11generateOOBEPKNS_9address_tE
00000000 W _ZN3ble9interface15SecurityManagerINS_7generic22GenericSecurityManagerINS_3pal6vendor6cordio21CordioSecurityManagerENS_6vendor6cordio19SigningEventMonitorEEEE11oobReceivedEPKNS_9address_tEPKNS_12byte_array_tILj16EEESJ_
00000000 W _ZN3ble9interface15SecurityManagerINS_7generic22GenericSecurityManagerINS_3pal6vendor6cordio21CordioSecurityManagerENS_6vendor6cordio19SigningEventMonitorEEEE12EventHandler10signingKeyEjPKNS_12byte_array_tILj16EEEb
00000000 W _ZN3ble9interface15SecurityManagerINS_7generic22GenericSecurityManagerINS_3pal6vendor6cordio21CordioSecurityManagerENS_6vendor6cordio19SigningEventMonitorEEEE12EventHandler12oobGeneratedEPKNS_9address_tEPKNS_12byte_array_tILj16EEESK_
00000000 W _ZN3ble9interface15SecurityManagerINS_7generic22GenericSecurityManagerINS_3pal6vendor6cordio21CordioSecurityManagerENS_6vendor6cordio19SigningEventMonitorEEEE12EventHandler13pairingResultEjNSC_26SecurityCompletionStatus_tE
00000000 W _ZN3ble9interface15SecurityManagerINS_7generic22GenericSecurityManagerINS_3pal6vendor6cordio21CordioSecurityManagerENS_6vendor6cordio19SigningEventMonitorEEEE12EventHandler14pairingRequestEj
00000000 W _ZN3ble9interface15SecurityManagerINS_7generic22GenericSecurityManagerINS_3pal6vendor6cordio21CordioSecurityManagerENS_6vendor6cordio19SigningEventMonitorEEEE12EventHandler14passkeyDisplayEjPKh
00000000 W _ZN3ble9interface15SecurityManagerINS_7generic22GenericSecurityManagerINS_3pal6vendor6cordio21CordioSecurityManagerENS_6vendor6cordio19SigningEventMonitorEEEE12EventHandler14passkeyRequestEj
00000000 W _ZN3ble9interface15SecurityManagerINS_7generic22GenericSecurityManagerINS_3pal6vendor6cordio21CordioSecurityManagerENS_6vendor6cordio19SigningEventMonitorEEEE12EventHandler19confirmationRequestEj
00000000 W _ZN3ble9interface15SecurityManagerINS_7generic22GenericSecurityManagerINS_3pal6vendor6cordio21CordioSecurityManagerENS_6vendor6cordio19SigningEventMonitorEEEE12EventHandler20keypressNotificationEjNSC_10Keypress_tE
00000000 W _ZN3ble9interface15SecurityManagerINS_7generic22GenericSecurityManagerINS_3pal6vendor6cordio21CordioSecurityManagerENS_6vendor6cordio19SigningEventMonitorEEEE12EventHandler20linkEncryptionResultEjNS_17link_encryption_tE
00000000 W _ZN3ble9interface15SecurityManagerINS_7generic22GenericSecurityManagerINS_3pal6vendor6cordio21CordioSecurityManagerENS_6vendor6cordio19SigningEventMonitorEEEE12EventHandler22whitelistFromBondTableEPNS0_9LegacyGapINS2_10GenericGapINS6_3GapENS4_15SecurityManagerINS7_ISB_EESB_EESB_EEE11Whitelist_tE
00000000 W _ZN3ble9interface15SecurityManagerINS_7generic22GenericSecurityManagerINS_3pal6vendor6cordio21CordioSecurityManagerENS_6vendor6cordio19SigningEventMonitorEEEE12EventHandler23legacyPairingOobRequestEj
00000000 W _ZN3ble9interface15SecurityManagerINS_7generic22GenericSecurityManagerINS_3pal6vendor6cordio21CordioSecurityManagerENS_6vendor6cordio19SigningEventMonitorEEEE12EventHandler25legacyPairingOobGeneratedEPKNS_9address_tEPKNS_12byte_array_tILj16EEE
00000000 W _ZN3ble9interface15SecurityManagerINS_7generic22GenericSecurityManagerINS_3pal6vendor6cordio21CordioSecurityManagerENS_6vendor6cordio19SigningEventMonitorEEEE12EventHandlerC1Ev
00000000 W _ZN3ble9interface15SecurityManagerINS_7generic22GenericSecurityManagerINS_3pal6vendor6cordio21CordioSecurityManagerENS_6vendor6cordio19SigningEventMonitorEEEE12EventHandlerC2Ev
00000000 n _ZN3ble9interface15SecurityManagerINS_7generic22GenericSecurityManagerINS_3pal6vendor6cordio21CordioSecurityManagerENS_6vendor6cordio19SigningEventMonitorEEEE12EventHandlerC5Ev
00000000 W _ZN3ble9interface15SecurityManagerINS_7generic22GenericSecurityManagerINS_3pal6vendor6cordio21CordioSecurityManagerENS_6vendor6cordio19SigningEventMonitorEEEE12EventHandlerD0Ev
00000000 W _ZN3ble9interface15SecurityManagerINS_7generic22GenericSecurityManagerINS_3pal6vendor6cordio21CordioSecurityManagerENS_6vendor6cordio19SigningEventMonitorEEEE12EventHandlerD1Ev
00000000 W _ZN3ble9interface15SecurityManagerINS_7generic22GenericSecurityManagerINS_3pal6vendor6cordio21CordioSecurityManagerENS_6vendor6cordio19SigningEventMonitorEEEE12EventHandlerD2Ev
00000000 n _ZN3ble9interface15SecurityManagerINS_7generic22GenericSecurityManagerINS_3pal6vendor6cordio21CordioSecurityManagerENS_6vendor6cordio19SigningEventMonitorEEEE12EventHandlerD5Ev
00000000 W _ZN3ble9interface15SecurityManagerINS_7generic22GenericSecurityManagerINS_3pal6vendor6cordio21CordioSecurityManagerENS_6vendor6cordio19SigningEventMonitorEEEE12generateOOB_EPKNS_9address_tE
00000000 W _ZN3ble9interface15SecurityManagerINS_7generic22GenericSecurityManagerINS_3pal6vendor6cordio21CordioSecurityManagerENS_6vendor6cordio19SigningEventMonitorEEEE12oobReceived_EPKNS_9address_tEPKNS_12byte_array_tILj16EEESJ_
00000000 W _ZN3ble9interface15SecurityManagerINS_7generic22GenericSecurityManagerINS_3pal6vendor6cordio21CordioSecurityManagerENS_6vendor6cordio19SigningEventMonitorEEEE13enableSigningEjb
00000000 W _ZN3ble9interface15SecurityManagerINS_7generic22GenericSecurityManagerINS_3pal6vendor6cordio21CordioSecurityManagerENS_6vendor6cordio19SigningEventMonitorEEEE13getSigningKeyEjb
00000000 W _ZN3ble9interface15SecurityManagerINS_7generic22GenericSecurityManagerINS_3pal6vendor6cordio21CordioSecurityManagerENS_6vendor6cordio19SigningEventMonitorEEEE13onLinkSecuredEPFvjNSC_14SecurityMode_tEE
00000000 W _ZN3ble9interface15SecurityManagerINS_7generic22GenericSecurityManagerINS_3pal6vendor6cordio21CordioSecurityManagerENS_6vendor6cordio19SigningEventMonitorEEEE14enableSigning_Ejb
00000000 W _ZN3ble9interface15SecurityManagerINS_7generic22GenericSecurityManagerINS_3pal6vendor6cordio21CordioSecurityManagerENS_6vendor6cordio19SigningEventMonitorEEEE14getSigningKey_Ejb
00000000 W _ZN3ble9interface15SecurityManagerINS_7generic22GenericSecurityManagerINS_3pal6vendor6cordio21CordioSecurityManagerENS_6vendor6cordio19SigningEventMonitorEEEE14passkeyEnteredEjPh
00000000 W _ZN3ble9interface15SecurityManagerINS_7generic22GenericSecurityManagerINS_3pal6vendor6cordio21CordioSecurityManagerENS_6vendor6cordio19SigningEventMonitorEEEE14requestPairingEj
00000000 W _ZN3ble9interface15SecurityManagerINS_7generic22GenericSecurityManagerINS_3pal6vendor6cordio21CordioSecurityManagerENS_6vendor6cordio19SigningEventMonitorEEEE15getLinkSecurityEjPNSC_20LinkSecurityStatus_tE
00000000 W _ZN3ble9interface15SecurityManagerINS_7generic22GenericSecurityManagerINS_3pal6vendor6cordio21CordioSecurityManagerENS_6vendor6cordio19SigningEventMonitorEEEE15passkeyEntered_EjPh
00000000 W _ZN3ble9interface15SecurityManagerINS_7generic22GenericSecurityManagerINS_3pal6vendor6cordio21CordioSecurityManagerENS_6vendor6cordio19SigningEventMonitorEEEE15requestPairing_Ej
00000000 W _ZN3ble9interface15SecurityManagerINS_7generic22GenericSecurityManagerINS_3pal6vendor6cordio21CordioSecurityManagerENS_6vendor6cordio19SigningEventMonitorEEEE15setIoCapabilityENSC_24SecurityIOCapabilities_tE
00000000 W _ZN3ble9interface15SecurityManagerINS_7generic22GenericSecurityManagerINS_3pal6vendor6cordio21CordioSecurityManagerENS_6vendor6cordio19SigningEventMonitorEEEE15setLinkSecurityEjNSC_14SecurityMode_tE
00000000 W _ZN3ble9interface15SecurityManagerINS_7generic22GenericSecurityManagerINS_3pal6vendor6cordio21CordioSecurityManagerENS_6vendor6cordio19SigningEventMonitorEEEE15setOOBDataUsageEjbb
00000000 W _ZN3ble9interface15SecurityManagerINS_7generic22GenericSecurityManagerINS_3pal6vendor6cordio21CordioSecurityManagerENS_6vendor6cordio19SigningEventMonitorEEEE16onPasskeyDisplayEPFvjPKhE
00000000 W _ZN3ble9interface15SecurityManagerINS_7generic22GenericSecurityManagerINS_3pal6vendor6cordio21CordioSecurityManagerENS_6vendor6cordio19SigningEventMonitorEEEE16setIoCapability_ENSC_24SecurityIOCapabilities_tE
00000000 W _ZN3ble9interface15SecurityManagerINS_7generic22GenericSecurityManagerINS_3pal6vendor6cordio21CordioSecurityManagerENS_6vendor6cordio19SigningEventMonitorEEEE16setLinkSecurity_EjNSC_14SecurityMode_tE
00000000 W _ZN3ble9interface15SecurityManagerINS_7generic22GenericSecurityManagerINS_3pal6vendor6cordio21CordioSecurityManagerENS_6vendor6cordio19SigningEventMonitorEEEE16setOOBDataUsage_Ejbb
00000000 W _ZN3ble9interface15SecurityManagerINS_7generic22GenericSecurityManagerINS_3pal6vendor6cordio21CordioSecurityManagerENS_6vendor6cordio19SigningEventMonitorEEEE17getLinkEncryptionEjPNS_17link_encryption_tE
00000000 W _ZN3ble9interface15SecurityManagerINS_7generic22GenericSecurityManagerINS_3pal6vendor6cordio21CordioSecurityManagerENS_6vendor6cordio19SigningEventMonitorEEEE17setDisplayPasskeyEPKh
00000000 W _ZN3ble9interface15SecurityManagerINS_7generic22GenericSecurityManagerINS_3pal6vendor6cordio21CordioSecurityManagerENS_6vendor6cordio19SigningEventMonitorEEEE17setLinkEncryptionEjNS_17link_encryption_tE
00000000 W _ZN3ble9interface15SecurityManagerINS_7generic22GenericSecurityManagerINS_3pal6vendor6cordio21CordioSecurityManagerENS_6vendor6cordio19SigningEventMonitorEEEE18allowLegacyPairingEb
00000000 W _ZN3ble9interface15SecurityManagerINS_7generic22GenericSecurityManagerINS_3pal6vendor6cordio21CordioSecurityManagerENS_6vendor6cordio19SigningEventMonitorEEEE18getLinkEncryption_EjPNS_17link_encryption_tE
00000000 W _ZN3ble9interface15SecurityManagerINS_7generic22GenericSecurityManagerINS_3pal6vendor6cordio21CordioSecurityManagerENS_6vendor6cordio19SigningEventMonitorEEEE18LegacyEventHandler13pairingResultEjNSC_26SecurityCompletionStatus_tE
00000000 W _ZN3ble9interface15SecurityManagerINS_7generic22GenericSecurityManagerINS_3pal6vendor6cordio21CordioSecurityManagerENS_6vendor6cordio19SigningEventMonitorEEEE18LegacyEventHandler14passkeyDisplayEjPKh
00000000 W _ZN3ble9interface15SecurityManagerINS_7generic22GenericSecurityManagerINS_3pal6vendor6cordio21CordioSecurityManagerENS_6vendor6cordio19SigningEventMonitorEEEE18LegacyEventHandler20linkEncryptionResultEjNS_17link_encryption_tE
00000000 W _ZN3ble9interface15SecurityManagerINS_7generic22GenericSecurityManagerINS_3pal6vendor6cordio21CordioSecurityManagerENS_6vendor6cordio19SigningEventMonitorEEEE18LegacyEventHandlerC1Ev
00000000 W _ZN3ble9interface15SecurityManagerINS_7generic22GenericSecurityManagerINS_3pal6vendor6cordio21CordioSecurityManagerENS_6vendor6cordio19SigningEventMonitorEEEE18LegacyEventHandlerC2Ev
00000000 n _ZN3ble9interface15SecurityManagerINS_7generic22GenericSecurityManagerINS_3pal6vendor6cordio21CordioSecurityManagerENS_6vendor6cordio19SigningEventMonitorEEEE18LegacyEventHandlerC5Ev
00000000 W _ZN3ble9interface15SecurityManagerINS_7generic22GenericSecurityManagerINS_3pal6vendor6cordio21CordioSecurityManagerENS_6vendor6cordio19SigningEventMonitorEEEE18LegacyEventHandlerD0Ev
00000000 W _ZN3ble9interface15SecurityManagerINS_7generic22GenericSecurityManagerINS_3pal6vendor6cordio21CordioSecurityManagerENS_6vendor6cordio19SigningEventMonitorEEEE18LegacyEventHandlerD1Ev
00000000 W _ZN3ble9interface15SecurityManagerINS_7generic22GenericSecurityManagerINS_3pal6vendor6cordio21CordioSecurityManagerENS_6vendor6cordio19SigningEventMonitorEEEE18LegacyEventHandlerD2Ev
00000000 n _ZN3ble9interface15SecurityManagerINS_7generic22GenericSecurityManagerINS_3pal6vendor6cordio21CordioSecurityManagerENS_6vendor6cordio19SigningEventMonitorEEEE18LegacyEventHandlerD5Ev
00000000 W _ZN3ble9interface15SecurityManagerINS_7generic22GenericSecurityManagerINS_3pal6vendor6cordio21CordioSecurityManagerENS_6vendor6cordio19SigningEventMonitorEEEE18setDisplayPasskey_EPKh
00000000 W _ZN3ble9interface15SecurityManagerINS_7generic22GenericSecurityManagerINS_3pal6vendor6cordio21CordioSecurityManagerENS_6vendor6cordio19SigningEventMonitorEEEE18setLinkEncryption_EjNS_17link_encryption_tE
00000000 W _ZN3ble9interface15SecurityManagerINS_7generic22GenericSecurityManagerINS_3pal6vendor6cordio21CordioSecurityManagerENS_6vendor6cordio19SigningEventMonitorEEEE19allowLegacyPairing_Eb
00000000 W _ZN3ble9interface15SecurityManagerINS_7generic22GenericSecurityManagerINS_3pal6vendor6cordio21CordioSecurityManagerENS_6vendor6cordio19SigningEventMonitorEEEE19confirmationEnteredEjb
00000000 W _ZN3ble9interface15SecurityManagerINS_7generic22GenericSecurityManagerINS_3pal6vendor6cordio21CordioSecurityManagerENS_6vendor6cordio19SigningEventMonitorEEEE19setDatabaseFilepathEPKc
00000000 W _ZN3ble9interface15SecurityManagerINS_7generic22GenericSecurityManagerINS_3pal6vendor6cordio21CordioSecurityManagerENS_6vendor6cordio19SigningEventMonitorEEEE20acceptPairingRequestEj
00000000 W _ZN3ble9interface15SecurityManagerINS_7generic22GenericSecurityManagerINS_3pal6vendor6cordio21CordioSecurityManagerENS_6vendor6cordio19SigningEventMonitorEEEE20cancelPairingRequestEj
00000000 W _ZN3ble9interface15SecurityManagerINS_7generic22GenericSecurityManagerINS_3pal6vendor6cordio21CordioSecurityManagerENS_6vendor6cordio19SigningEventMonitorEEEE20confirmationEntered_Ejb
00000000 W _ZN3ble9interface15SecurityManagerINS_7generic22GenericSecurityManagerINS_3pal6vendor6cordio21CordioSecurityManagerENS_6vendor6cordio19SigningEventMonitorEEEE20purgeAllBondingStateEv
00000000 W _ZN3ble9interface15SecurityManagerINS_7generic22GenericSecurityManagerINS_3pal6vendor6cordio21CordioSecurityManagerENS_6vendor6cordio19SigningEventMonitorEEEE20setDatabaseFilepath_EPKc
00000000 W _ZN3ble9interface15SecurityManagerINS_7generic22GenericSecurityManagerINS_3pal6vendor6cordio21CordioSecurityManagerENS_6vendor6cordio19SigningEventMonitorEEEE21acceptPairingRequest_Ej
00000000 W _ZN3ble9interface15SecurityManagerINS_7generic22GenericSecurityManagerINS_3pal6vendor6cordio21CordioSecurityManagerENS_6vendor6cordio19SigningEventMonitorEEEE21cancelPairingRequest_Ej
00000000 W _ZN3ble9interface15SecurityManagerINS_7generic22GenericSecurityManagerINS_3pal6vendor6cordio21CordioSecurityManagerENS_6vendor6cordio19SigningEventMonitorEEEE21purgeAllBondingState_Ev
00000000 W _ZN3ble9interface15SecurityManagerINS_7generic22GenericSecurityManagerINS_3pal6vendor6cordio21CordioSecurityManagerENS_6vendor6cordio19SigningEventMonitorEEEE21requestAuthenticationEj
00000000 W _ZN3ble9interface15SecurityManagerINS_7generic22GenericSecurityManagerINS_3pal6vendor6cordio21CordioSecurityManagerENS_6vendor6cordio19SigningEventMonitorEEEE22requestAuthentication_Ej
00000000 W _ZN3ble9interface15SecurityManagerINS_7generic22GenericSecurityManagerINS_3pal6vendor6cordio21CordioSecurityManagerENS_6vendor6cordio19SigningEventMonitorEEEE23onSecurityContextStoredEPFvjE
00000000 W _ZN3ble9interface15SecurityManagerINS_7generic22GenericSecurityManagerINS_3pal6vendor6cordio21CordioSecurityManagerENS_6vendor6cordio19SigningEventMonitorEEEE23processLinkSecuredEventEjNSC_14SecurityMode_tE
00000000 W _ZN3ble9interface15SecurityManagerINS_7generic22GenericSecurityManagerINS_3pal6vendor6cordio21CordioSecurityManagerENS_6vendor6cordio19SigningEventMonitorEEEE23setKeypressNotificationEb
00000000 W _ZN3ble9interface15SecurityManagerINS_7generic22GenericSecurityManagerINS_3pal6vendor6cordio21CordioSecurityManagerENS_6vendor6cordio19SigningEventMonitorEEEE24legacyPairingOobReceivedEPKNS_9address_tEPKNS_12byte_array_tILj16EEE
00000000 W _ZN3ble9interface15SecurityManagerINS_7generic22GenericSecurityManagerINS_3pal6vendor6cordio21CordioSecurityManagerENS_6vendor6cordio19SigningEventMonitorEEEE24onSecuritySetupCompletedEPFvjNSC_26SecurityCompletionStatus_tEE
00000000 W _ZN3ble9interface15SecurityManagerINS_7generic22GenericSecurityManagerINS_3pal6vendor6cordio21CordioSecurityManagerENS_6vendor6cordio19SigningEventMonitorEEEE24onSecuritySetupInitiatedEPFvjbbNSC_24SecurityIOCapabilities_tEE
00000000 W _ZN3ble9interface15SecurityManagerINS_7generic22GenericSecurityManagerINS_3pal6vendor6cordio21CordioSecurityManagerENS_6vendor6cordio19SigningEventMonitorEEEE24sendKeypressNotificationEjNSC_10Keypress_tE
00000000 W _ZN3ble9interface15SecurityManagerINS_7generic22GenericSecurityManagerINS_3pal6vendor6cordio21CordioSecurityManagerENS_6vendor6cordio19SigningEventMonitorEEEE24setKeypressNotification_Eb
00000000 W _ZN3ble9interface15SecurityManagerINS_7generic22GenericSecurityManagerINS_3pal6vendor6cordio21CordioSecurityManagerENS_6vendor6cordio19SigningEventMonitorEEEE25legacyPairingOobReceived_EPKNS_9address_tEPKNS_12byte_array_tILj16EEE
00000000 W _ZN3ble9interface15SecurityManagerINS_7generic22GenericSecurityManagerINS_3pal6vendor6cordio21CordioSecurityManagerENS_6vendor6cordio19SigningEventMonitorEEEE25sendKeypressNotification_EjNSC_10Keypress_tE
00000000 W _ZN3ble9interface15SecurityManagerINS_7generic22GenericSecurityManagerINS_3pal6vendor6cordio21CordioSecurityManagerENS_6vendor6cordio19SigningEventMonitorEEEE25setHintFutureRoleReversalEb
00000000 W _ZN3ble9interface15SecurityManagerINS_7generic22GenericSecurityManagerINS_3pal6vendor6cordio21CordioSecurityManagerENS_6vendor6cordio19SigningEventMonitorEEEE26processPasskeyDisplayEventEjPKh
00000000 W _ZN3ble9interface15SecurityManagerINS_7generic22GenericSecurityManagerINS_3pal6vendor6cordio21CordioSecurityManagerENS_6vendor6cordio19SigningEventMonitorEEEE26setHintFutureRoleReversal_Eb
00000000 W _ZN3ble9interface15SecurityManagerINS_7generic22GenericSecurityManagerINS_3pal6vendor6cordio21CordioSecurityManagerENS_6vendor6cordio19SigningEventMonitorEEEE27getSecureConnectionsSupportEPb
00000000 W _ZN3ble9interface15SecurityManagerINS_7generic22GenericSecurityManagerINS_3pal6vendor6cordio21CordioSecurityManagerENS_6vendor6cordio19SigningEventMonitorEEEE27preserveBondingStateOnResetEb
00000000 W _ZN3ble9interface15SecurityManagerINS_7generic22GenericSecurityManagerINS_3pal6vendor6cordio21CordioSecurityManagerENS_6vendor6cordio19SigningEventMonitorEEEE28getSecureConnectionsSupport_EPb
00000000 W _ZN3ble9interface15SecurityManagerINS_7generic22GenericSecurityManagerINS_3pal6vendor6cordio21CordioSecurityManagerENS_6vendor6cordio19SigningEventMonitorEEEE28preserveBondingStateOnReset_Eb
00000000 W _ZN3ble9interface15SecurityManagerINS_7generic22GenericSecurityManagerINS_3pal6vendor6cordio21CordioSecurityManagerENS_6vendor6cordio19SigningEventMonitorEEEE28setEncryptionKeyRequirementsEhh
00000000 W _ZN3ble9interface15SecurityManagerINS_7generic22GenericSecurityManagerINS_3pal6vendor6cordio21CordioSecurityManagerENS_6vendor6cordio19SigningEventMonitorEEEE29setEncryptionKeyRequirements_Ehh
00000000 W _ZN3ble9interface15SecurityManagerINS_7generic22GenericSecurityManagerINS_3pal6vendor6cordio21CordioSecurityManagerENS_6vendor6cordio19SigningEventMonitorEEEE30setPairingRequestAuthorisationEb
00000000 W _ZN3ble9interface15SecurityManagerINS_7generic22GenericSecurityManagerINS_3pal6vendor6cordio21CordioSecurityManagerENS_6vendor6cordio19SigningEventMonitorEEEE30setSecurityManagerEventHandlerEPNSC_12EventHandlerE
00000000 W _ZN3ble9interface15SecurityManagerINS_7generic22GenericSecurityManagerINS_3pal6vendor6cordio21CordioSecurityManagerENS_6vendor6cordio19SigningEventMonitorEEEE31setPairingRequestAuthorisation_Eb
00000000 W _ZN3ble9interface15SecurityManagerINS_7generic22GenericSecurityManagerINS_3pal6vendor6cordio21CordioSecurityManagerENS_6vendor6cordio19SigningEventMonitorEEEE33processSecurityContextStoredEventEj
00000000 W _ZN3ble9interface15SecurityManagerINS_7generic22GenericSecurityManagerINS_3pal6vendor6cordio21CordioSecurityManagerENS_6vendor6cordio19SigningEventMonitorEEEE34processSecuritySetupCompletedEventEjNSC_26SecurityCompletionStatus_tE
00000000 W _ZN3ble9interface15SecurityManagerINS_7generic22GenericSecurityManagerINS_3pal6vendor6cordio21CordioSecurityManagerENS_6vendor6cordio19SigningEventMonitorEEEE34processSecuritySetupInitiatedEventEjbbNSC_24SecurityIOCapabilities_tE
00000000 W _ZN3ble9interface15SecurityManagerINS_7generic22GenericSecurityManagerINS_3pal6vendor6cordio21CordioSecurityManagerENS_6vendor6cordio19SigningEventMonitorEEEE4initEbbNSC_24SecurityIOCapabilities_tEPKhbPKc
00000000 W _ZN3ble9interface15SecurityManagerINS_7generic22GenericSecurityManagerINS_3pal6vendor6cordio21CordioSecurityManagerENS_6vendor6cordio19SigningEventMonitorEEEE5init_EbbNSC_24SecurityIOCapabilities_tEPKhbPKc
00000000 W _ZN3ble9interface15SecurityManagerINS_7generic22GenericSecurityManagerINS_3pal6vendor6cordio21CordioSecurityManagerENS_6vendor6cordio19SigningEventMonitorEEEE5resetEv
00000000 W _ZN3ble9interface15SecurityManagerINS_7generic22GenericSecurityManagerINS_3pal6vendor6cordio21CordioSecurityManagerENS_6vendor6cordio19SigningEventMonitorEEEE6reset_Ev
00000000 W _ZN3ble9interface15SecurityManagerINS_7generic22GenericSecurityManagerINS_3pal6vendor6cordio21CordioSecurityManagerENS_6vendor6cordio19SigningEventMonitorEEEEC1Ev
00000000 W _ZN3ble9interface15SecurityManagerINS_7generic22GenericSecurityManagerINS_3pal6vendor6cordio21CordioSecurityManagerENS_6vendor6cordio19SigningEventMonitorEEEEC2Ev
00000000 n _ZN3ble9interface15SecurityManagerINS_7generic22GenericSecurityManagerINS_3pal6vendor6cordio21CordioSecurityManagerENS_6vendor6cordio19SigningEventMonitorEEEEC5Ev
00000000 W _ZN3ble9interface15SecurityManagerINS_7generic22GenericSecurityManagerINS_3pal6vendor6cordio21CordioSecurityManagerENS_6vendor6cordio19SigningEventMonitorEEEED1Ev
00000000 W _ZN3ble9interface15SecurityManagerINS_7generic22GenericSecurityManagerINS_3pal6vendor6cordio21CordioSecurityManagerENS_6vendor6cordio19SigningEventMonitorEEEED2Ev
00000000 n _ZN3ble9interface15SecurityManagerINS_7generic22GenericSecurityManagerINS_3pal6vendor6cordio21CordioSecurityManagerENS_6vendor6cordio19SigningEventMonitorEEEED5Ev
00000000 W _ZN3ble9interface3GapINS_7generic10GenericGapINS_3pal6vendor6cordio3GapENS4_15SecurityManagerINS6_21CordioSecurityManagerINS2_22GenericSecurityManagerIS9_NS_6vendor6cordio19SigningEventMonitorEEEEESE_EESE_EEE10createSyncENS_19peer_address_type_tERKNS_9address_tEhNS_7BoundedItLt0ELt499EEENS_8DurationItLm10000ENS_5RangeILm10ELm16384EEEPvEE
00000000 W _ZN3ble9interface3GapINS_7generic10GenericGapINS_3pal6vendor6cordio3GapENS4_15SecurityManagerINS6_21CordioSecurityManagerINS2_22GenericSecurityManagerIS9_NS_6vendor6cordio19SigningEventMonitorEEEEESE_EESE_EEE10createSyncENS_7BoundedItLt0ELt499EEENS_8DurationItLm10000ENS_5RangeILm10ELm16384EEEPvEE
00000000 W _ZN3ble9interface3GapINS_7generic10GenericGapINS_3pal6vendor6cordio3GapENS4_15SecurityManagerINS6_21CordioSecurityManagerINS2_22GenericSecurityManagerIS9_NS_6vendor6cordio19SigningEventMonitorEEEEESE_EESE_EEE10disconnectEjNS_28local_disconnection_reason_tE
00000000 W _ZN3ble9interface3GapINS_7generic10GenericGapINS_3pal6vendor6cordio3GapENS4_15SecurityManagerINS6_21CordioSecurityManagerINS2_22GenericSecurityManagerIS9_NS_6vendor6cordio19SigningEventMonitorEEEEESE_EESE_EEE10startScan_ENS_8DurationItLm10000ENS_5RangeILm0ELm65535EEENS_5ValueItLt0EEEEENS_19duplicates_filter_tENSJ_ItLm1280000ESL_PvEE
00000000 W _ZN3ble9interface3GapINS_7generic10GenericGapINS_3pal6vendor6cordio3GapENS4_15SecurityManagerINS6_21CordioSecurityManagerINS2_22GenericSecurityManagerIS9_NS_6vendor6cordio19SigningEventMonitorEEEEESE_EESE_EEE11createSync_ENS_19peer_address_type_tERKNS_9address_tEhNS_7BoundedItLt0ELt499EEENS_8DurationItLm10000ENS_5RangeILm10ELm16384EEEPvEE
00000000 W _ZN3ble9interface3GapINS_7generic10GenericGapINS_3pal6vendor6cordio3GapENS4_15SecurityManagerINS6_21CordioSecurityManagerINS2_22GenericSecurityManagerIS9_NS_6vendor6cordio19SigningEventMonitorEEEEESE_EESE_EEE11createSync_ENS_7BoundedItLt0ELt499EEENS_8DurationItLm10000ENS_5RangeILm10ELm16384EEEPvEE
00000000 W _ZN3ble9interface3GapINS_7generic10GenericGapINS_3pal6vendor6cordio3GapENS4_15SecurityManagerINS6_21CordioSecurityManagerINS2_22GenericSecurityManagerIS9_NS_6vendor6cordio19SigningEventMonitorEEEEESE_EESE_EEE11disconnect_EjNS_28local_disconnection_reason_tE
00000000 W _ZN3ble9interface3GapINS_7generic10GenericGapINS_3pal6vendor6cordio3GapENS4_15SecurityManagerINS6_21CordioSecurityManagerINS2_22GenericSecurityManagerIS9_NS_6vendor6cordio19SigningEventMonitorEEEEESE_EESE_EEE12EventHandler13onScanTimeoutERKNS_16ScanTimeoutEventE
00000000 W _ZN3ble9interface3GapINS_7generic10GenericGapINS_3pal6vendor6cordio3GapENS4_15SecurityManagerINS6_21CordioSecurityManagerINS2_22GenericSecurityManagerIS9_NS_6vendor6cordio19SigningEventMonitorEEEEESE_EESE_EEE12EventHandler16onAdvertisingEndERKNS_19AdvertisingEndEventE
00000000 W _ZN3ble9interface3GapINS_7generic10GenericGapINS_3pal6vendor6cordio3GapENS4_15SecurityManagerINS6_21CordioSecurityManagerINS2_22GenericSecurityManagerIS9_NS_6vendor6cordio19SigningEventMonitorEEEEESE_EESE_EEE12EventHandler18onDataLengthChangeEjtt
00000000 W _ZN3ble9interface3GapINS_7generic10GenericGapINS_3pal6vendor6cordio3GapENS4_15SecurityManagerINS6_21CordioSecurityManagerINS2_22GenericSecurityManagerIS9_NS_6vendor6cordio19SigningEventMonitorEEEEESE_EESE_EEE12EventHandler19onAdvertisingReportERKNS_22AdvertisingReportEventE
00000000 W _ZN3ble9interface3GapINS_7generic10GenericGapINS_3pal6vendor6cordio3GapENS4_15SecurityManagerINS6_21CordioSecurityManagerINS2_22GenericSecurityManagerIS9_NS_6vendor6cordio19SigningEventMonitorEEEEESE_EESE_EEE12EventHandler19onPhyUpdateCompleteE11ble_error_tjNS_5phy_tESL_
00000000 W _ZN3ble9interface3GapINS_7generic10GenericGapINS_3pal6vendor6cordio3GapENS4_15SecurityManagerINS6_21CordioSecurityManagerINS2_22GenericSecurityManagerIS9_NS_6vendor6cordio19SigningEventMonitorEEEEESE_EESE_EEE12EventHandler20onConnectionCompleteERKNS_23ConnectionCompleteEventE
00000000 W _ZN3ble9interface3GapINS_7generic10GenericGapINS_3pal6vendor6cordio3GapENS4_15SecurityManagerINS6_21CordioSecurityManagerINS2_22GenericSecurityManagerIS9_NS_6vendor6cordio19SigningEventMonitorEEEEESE_EESE_EEE12EventHandler21onScanRequestReceivedERKNS_16ScanRequestEventE
00000000 W _ZN3ble9interface3GapINS_7generic10GenericGapINS_3pal6vendor6cordio3GapENS4_15SecurityManagerINS6_21CordioSecurityManagerINS2_22GenericSecurityManagerIS9_NS_6vendor6cordio19SigningEventMonitorEEEEESE_EESE_EEE12EventHandler23onDisconnectionCompleteERKNS_26DisconnectionCompleteEventE
00000000 W _ZN3ble9interface3GapINS_7generic10GenericGapINS_3pal6vendor6cordio3GapENS4_15SecurityManagerINS6_21CordioSecurityManagerINS2_22GenericSecurityManagerIS9_NS_6vendor6cordio19SigningEventMonitorEEEEESE_EESE_EEE12EventHandler27onPeriodicAdvertisingReportERKNS_30PeriodicAdvertisingReportEventE
00000000 W _ZN3ble9interface3GapINS_7generic10GenericGapINS_3pal6vendor6cordio3GapENS4_15SecurityManagerINS6_21CordioSecurityManagerINS2_22GenericSecurityManagerIS9_NS_6vendor6cordio19SigningEventMonitorEEEEESE_EESE_EEE12EventHandler29onPeriodicAdvertisingSyncLossERKNS_27PeriodicAdvertisingSyncLossE
00000000 W _ZN3ble9interface3GapINS_7generic10GenericGapINS_3pal6vendor6cordio3GapENS4_15SecurityManagerINS6_21CordioSecurityManagerINS2_22GenericSecurityManagerIS9_NS_6vendor6cordio19SigningEventMonitorEEEEESE_EESE_EEE12EventHandler35onUpdateConnectionParametersRequestERKNS_38UpdateConnectionParametersRequestEventE
00000000 W _ZN3ble9interface3GapINS_7generic10GenericGapINS_3pal6vendor6cordio3GapENS4_15SecurityManagerINS6_21CordioSecurityManagerINS2_22GenericSecurityManagerIS9_NS_6vendor6cordio19SigningEventMonitorEEEEESE_EESE_EEE12EventHandler36onConnectionParametersUpdateCompleteERKNS_39ConnectionParametersUpdateCompleteEventE
00000000 W _ZN3ble9interface3GapINS_7generic10GenericGapINS_3pal6vendor6cordio3GapENS4_15SecurityManagerINS6_21CordioSecurityManagerINS2_22GenericSecurityManagerIS9_NS_6vendor6cordio19SigningEventMonitorEEEEESE_EESE_EEE12EventHandler36onPeriodicAdvertisingSyncEstablishedERKNS_39PeriodicAdvertisingSyncEstablishedEventE
00000000 W _ZN3ble9interface3GapINS_7generic10GenericGapINS_3pal6vendor6cordio3GapENS4_15SecurityManagerINS6_21CordioSecurityManagerINS2_22GenericSecurityManagerIS9_NS_6vendor6cordio19SigningEventMonitorEEEEESE_EESE_EEE12EventHandler9onReadPhyE11ble_error_tjNS_5phy_tESL_
00000000 W _ZN3ble9interface3GapINS_7generic10GenericGapINS_3pal6vendor6cordio3GapENS4_15SecurityManagerINS6_21CordioSecurityManagerINS2_22GenericSecurityManagerIS9_NS_6vendor6cordio19SigningEventMonitorEEEEESE_EESE_EEE12EventHandlerD1Ev
00000000 W _ZN3ble9interface3GapINS_7generic10GenericGapINS_3pal6vendor6cordio3GapENS4_15SecurityManagerINS6_21CordioSecurityManagerINS2_22GenericSecurityManagerIS9_NS_6vendor6cordio19SigningEventMonitorEEEEESE_EESE_EEE12EventHandlerD2Ev
00000000 n _ZN3ble9interface3GapINS_7generic10GenericGapINS_3pal6vendor6cordio3GapENS4_15SecurityManagerINS6_21CordioSecurityManagerINS2_22GenericSecurityManagerIS9_NS_6vendor6cordio19SigningEventMonitorEEEEESE_EESE_EEE12EventHandlerD5Ev
00000000 W _ZN3ble9interface3GapINS_7generic10GenericGapINS_3pal6vendor6cordio3GapENS4_15SecurityManagerINS6_21CordioSecurityManagerINS2_22GenericSecurityManagerIS9_NS_6vendor6cordio19SigningEventMonitorEEEEESE_EESE_EEE13cancelConnectEv
00000000 W _ZN3ble9interface3GapINS_7generic10GenericGapINS_3pal6vendor6cordio3GapENS4_15SecurityManagerINS6_21CordioSecurityManagerINS2_22GenericSecurityManagerIS9_NS_6vendor6cordio19SigningEventMonitorEEEEESE_EESE_EEE13enablePrivacyEb
00000000 W _ZN3ble9interface3GapINS_7generic10GenericGapINS_3pal6vendor6cordio3GapENS4_15SecurityManagerINS6_21CordioSecurityManagerINS2_22GenericSecurityManagerIS9_NS_6vendor6cordio19SigningEventMonitorEEEEESE_EESE_EEE13terminateSyncEt
00000000 W _ZN3ble9interface3GapINS_7generic10GenericGapINS_3pal6vendor6cordio3GapENS4_15SecurityManagerINS6_21CordioSecurityManagerINS2_22GenericSecurityManagerIS9_NS_6vendor6cordio19SigningEventMonitorEEEEESE_EESE_EEE14cancelConnect_Ev
00000000 W _ZN3ble9interface3GapINS_7generic10GenericGapINS_3pal6vendor6cordio3GapENS4_15SecurityManagerINS6_21CordioSecurityManagerINS2_22GenericSecurityManagerIS9_NS_6vendor6cordio19SigningEventMonitorEEEEESE_EESE_EEE14enablePrivacy_Eb
00000000 W _ZN3ble9interface3GapINS_7generic10GenericGapINS_3pal6vendor6cordio3GapENS4_15SecurityManagerINS6_21CordioSecurityManagerINS2_22GenericSecurityManagerIS9_NS_6vendor6cordio19SigningEventMonitorEEEEESE_EESE_EEE14terminateSync_Et
00000000 W _ZN3ble9interface3GapINS_7generic10GenericGapINS_3pal6vendor6cordio3GapENS4_15SecurityManagerINS6_21CordioSecurityManagerINS2_22GenericSecurityManagerIS9_NS_6vendor6cordio19SigningEventMonitorEEEEESE_EESE_EEE15setEventHandlerEPNSI_12EventHandlerE
00000000 W _ZN3ble9interface3GapINS_7generic10GenericGapINS_3pal6vendor6cordio3GapENS4_15SecurityManagerINS6_21CordioSecurityManagerINS2_22GenericSecurityManagerIS9_NS_6vendor6cordio19SigningEventMonitorEEEEESE_EESE_EEE15stopAdvertisingEh
00000000 W _ZN3ble9interface3GapINS_7generic10GenericGapINS_3pal6vendor6cordio3GapENS4_15SecurityManagerINS6_21CordioSecurityManagerINS2_22GenericSecurityManagerIS9_NS_6vendor6cordio19SigningEventMonitorEEEEESE_EESE_EEE16cancelCreateSyncEv
00000000 W _ZN3ble9interface3GapINS_7generic10GenericGapINS_3pal6vendor6cordio3GapENS4_15SecurityManagerINS6_21CordioSecurityManagerINS2_22GenericSecurityManagerIS9_NS_6vendor6cordio19SigningEventMonitorEEEEESE_EESE_EEE16setPreferredPhysEPKNS_9phy_set_tESL_
00000000 W _ZN3ble9interface3GapINS_7generic10GenericGapINS_3pal6vendor6cordio3GapENS4_15SecurityManagerINS6_21CordioSecurityManagerINS2_22GenericSecurityManagerIS9_NS_6vendor6cordio19SigningEventMonitorEEEEESE_EESE_EEE16startAdvertisingEhNS_8DurationItLm10000ENS_5RangeILm0ELm65535EEENS_5ValueItLt0EEEEEh
00000000 W _ZN3ble9interface3GapINS_7generic10GenericGapINS_3pal6vendor6cordio3GapENS4_15SecurityManagerINS6_21CordioSecurityManagerINS2_22GenericSecurityManagerIS9_NS_6vendor6cordio19SigningEventMonitorEEEEESE_EESE_EEE16stopAdvertising_Eh
00000000 W _ZN3ble9interface3GapINS_7generic10GenericGapINS_3pal6vendor6cordio3GapENS4_15SecurityManagerINS6_21CordioSecurityManagerINS2_22GenericSecurityManagerIS9_NS_6vendor6cordio19SigningEventMonitorEEEEESE_EESE_EEE17cancelCreateSync_Ev
00000000 W _ZN3ble9interface3GapINS_7generic10GenericGapINS_3pal6vendor6cordio3GapENS4_15SecurityManagerINS6_21CordioSecurityManagerINS2_22GenericSecurityManagerIS9_NS_6vendor6cordio19SigningEventMonitorEEEEESE_EESE_EEE17setPreferredPhys_EPKNS_9phy_set_tESL_
00000000 W _ZN3ble9interface3GapINS_7generic10GenericGapINS_3pal6vendor6cordio3GapENS4_15SecurityManagerINS6_21CordioSecurityManagerINS2_22GenericSecurityManagerIS9_NS_6vendor6cordio19SigningEventMonitorEEEEESE_EESE_EEE17setScanParametersERKNS_14ScanParametersE
00000000 W _ZN3ble9interface3GapINS_7generic10GenericGapINS_3pal6vendor6cordio3GapENS4_15SecurityManagerINS6_21CordioSecurityManagerINS2_22GenericSecurityManagerIS9_NS_6vendor6cordio19SigningEventMonitorEEEEESE_EESE_EEE17startAdvertising_EhNS_8DurationItLm10000ENS_5RangeILm0ELm65535EEENS_5ValueItLt0EEEEEh
00000000 W _ZN3ble9interface3GapINS_7generic10GenericGapINS_3pal6vendor6cordio3GapENS4_15SecurityManagerINS6_21CordioSecurityManagerINS2_22GenericSecurityManagerIS9_NS_6vendor6cordio19SigningEventMonitorEEEEESE_EESE_EEE18isFeatureSupportedENS_31controller_supported_features_tE
00000000 W _ZN3ble9interface3GapINS_7generic10GenericGapINS_3pal6vendor6cordio3GapENS4_15SecurityManagerINS6_21CordioSecurityManagerINS2_22GenericSecurityManagerIS9_NS_6vendor6cordio19SigningEventMonitorEEEEESE_EESE_EEE18setScanParameters_ERKNS_14ScanParametersE
00000000 W _ZN3ble9interface3GapINS_7generic10GenericGapINS_3pal6vendor6cordio3GapENS4_15SecurityManagerINS6_21CordioSecurityManagerINS2_22GenericSecurityManagerIS9_NS_6vendor6cordio19SigningEventMonitorEEEEESE_EESE_EEE19isAdvertisingActiveEh
00000000 W _ZN3ble9interface3GapINS_7generic10GenericGapINS_3pal6vendor6cordio3GapENS4_15SecurityManagerINS6_21CordioSecurityManagerINS2_22GenericSecurityManagerIS9_NS_6vendor6cordio19SigningEventMonitorEEEEESE_EESE_EEE19isFeatureSupported_ENS_31controller_supported_features_tE
00000000 W _ZN3ble9interface3GapINS_7generic10GenericGapINS_3pal6vendor6cordio3GapENS4_15SecurityManagerINS6_21CordioSecurityManagerINS2_22GenericSecurityManagerIS9_NS_6vendor6cordio19SigningEventMonitorEEEEESE_EESE_EEE20createAdvertisingSetEPhRKNS_21AdvertisingParametersE
00000000 W _ZN3ble9interface3GapINS_7generic10GenericGapINS_3pal6vendor6cordio3GapENS4_15SecurityManagerINS6_21CordioSecurityManagerINS2_22GenericSecurityManagerIS9_NS_6vendor6cordio19SigningEventMonitorEEEEESE_EESE_EEE20isAdvertisingActive_Eh
00000000 W _ZN3ble9interface3GapINS_7generic10GenericGapINS_3pal6vendor6cordio3GapENS4_15SecurityManagerINS6_21CordioSecurityManagerINS2_22GenericSecurityManagerIS9_NS_6vendor6cordio19SigningEventMonitorEEEEESE_EESE_EEE21createAdvertisingSet_EPhRKNS_21AdvertisingParametersE
00000000 W _ZN3ble9interface3GapINS_7generic10GenericGapINS_3pal6vendor6cordio3GapENS4_15SecurityManagerINS6_21CordioSecurityManagerINS2_22GenericSecurityManagerIS9_NS_6vendor6cordio19SigningEventMonitorEEEEESE_EESE_EEE21destroyAdvertisingSetEh
00000000 W _ZN3ble9interface3GapINS_7generic10GenericGapINS_3pal6vendor6cordio3GapENS4_15SecurityManagerINS6_21CordioSecurityManagerINS2_22GenericSecurityManagerIS9_NS_6vendor6cordio19SigningEventMonitorEEEEESE_EESE_EEE21setAdvertisingPayloadEhN4mbed4SpanIKhLin1EEE
00000000 W _ZN3ble9interface3GapINS_7generic10GenericGapINS_3pal6vendor6cordio3GapENS4_15SecurityManagerINS6_21CordioSecurityManagerINS2_22GenericSecurityManagerIS9_NS_6vendor6cordio19SigningEventMonitorEEEEESE_EESE_EEE22destroyAdvertisingSet_Eh
00000000 W _ZN3ble9interface3GapINS_7generic10GenericGapINS_3pal6vendor6cordio3GapENS4_15SecurityManagerINS6_21CordioSecurityManagerINS2_22GenericSecurityManagerIS9_NS_6vendor6cordio19SigningEventMonitorEEEEESE_EESE_EEE22setAdvertisingPayload_EhN4mbed4SpanIKhLin1EEE
00000000 W _ZN3ble9interface3GapINS_7generic10GenericGapINS_3pal6vendor6cordio3GapENS4_15SecurityManagerINS6_21CordioSecurityManagerINS2_22GenericSecurityManagerIS9_NS_6vendor6cordio19SigningEventMonitorEEEEESE_EESE_EEE23stopPeriodicAdvertisingEh
00000000 W _ZN3ble9interface3GapINS_7generic10GenericGapINS_3pal6vendor6cordio3GapENS4_15SecurityManagerINS6_21CordioSecurityManagerINS2_22GenericSecurityManagerIS9_NS_6vendor6cordio19SigningEventMonitorEEEEESE_EESE_EEE24setAdvertisingParametersEhRKNS_21AdvertisingParametersE
00000000 W _ZN3ble9interface3GapINS_7generic10GenericGapINS_3pal6vendor6cordio3GapENS4_15SecurityManagerINS6_21CordioSecurityManagerINS2_22GenericSecurityManagerIS9_NS_6vendor6cordio19SigningEventMonitorEEEEESE_EESE_EEE24startPeriodicAdvertisingEh
00000000 W _ZN3ble9interface3GapINS_7generic10GenericGapINS_3pal6vendor6cordio3GapENS4_15SecurityManagerINS6_21CordioSecurityManagerINS2_22GenericSecurityManagerIS9_NS_6vendor6cordio19SigningEventMonitorEEEEESE_EESE_EEE24stopPeriodicAdvertising_Eh
00000000 W _ZN3ble9interface3GapINS_7generic10GenericGapINS_3pal6vendor6cordio3GapENS4_15SecurityManagerINS6_21CordioSecurityManagerINS2_22GenericSecurityManagerIS9_NS_6vendor6cordio19SigningEventMonitorEEEEESE_EESE_EEE25setAdvertisingParameters_EhRKNS_21AdvertisingParametersE
00000000 W _ZN3ble9interface3GapINS_7generic10GenericGapINS_3pal6vendor6cordio3GapENS4_15SecurityManagerINS6_21CordioSecurityManagerINS2_22GenericSecurityManagerIS9_NS_6vendor6cordio19SigningEventMonitorEEEEESE_EESE_EEE25startPeriodicAdvertising_Eh
00000000 W _ZN3ble9interface3GapINS_7generic10GenericGapINS_3pal6vendor6cordio3GapENS4_15SecurityManagerINS6_21CordioSecurityManagerINS2_22GenericSecurityManagerIS9_NS_6vendor6cordio19SigningEventMonitorEEEEESE_EESE_EEE26getMaxAdvertisingSetNumberEv
00000000 W _ZN3ble9interface3GapINS_7generic10GenericGapINS_3pal6vendor6cordio3GapENS4_15SecurityManagerINS6_21CordioSecurityManagerINS2_22GenericSecurityManagerIS9_NS_6vendor6cordio19SigningEventMonitorEEEEESE_EESE_EEE26setAdvertisingScanResponseEhN4mbed4SpanIKhLin1EEE
00000000 W _ZN3ble9interface3GapINS_7generic10GenericGapINS_3pal6vendor6cordio3GapENS4_15SecurityManagerINS6_21CordioSecurityManagerINS2_22GenericSecurityManagerIS9_NS_6vendor6cordio19SigningEventMonitorEEEEESE_EESE_EEE26updateConnectionParametersEjNS_8DurationItLm1250ENS_5RangeILm6ELm3200EEEPvEESN_NS_7BoundedItLt0ELt499EEENSJ_ItLm10000ENSK_ILm10ELm3200EEESM_EENSJ_ItLm625ENSK_ILm0ELm65535EEESM_EEST_
00000000 W _ZN3ble9interface3GapINS_7generic10GenericGapINS_3pal6vendor6cordio3GapENS4_15SecurityManagerINS6_21CordioSecurityManagerINS2_22GenericSecurityManagerIS9_NS_6vendor6cordio19SigningEventMonitorEEEEESE_EESE_EEE27clearPeriodicAdvertiserListEv
00000000 W _ZN3ble9interface3GapINS_7generic10GenericGapINS_3pal6vendor6cordio3GapENS4_15SecurityManagerINS6_21CordioSecurityManagerINS2_22GenericSecurityManagerIS9_NS_6vendor6cordio19SigningEventMonitorEEEEESE_EESE_EEE27getMaxAdvertisingDataLengthEv
00000000 W _ZN3ble9interface3GapINS_7generic10GenericGapINS_3pal6vendor6cordio3GapENS4_15SecurityManagerINS6_21CordioSecurityManagerINS2_22GenericSecurityManagerIS9_NS_6vendor6cordio19SigningEventMonitorEEEEESE_EESE_EEE27getMaxAdvertisingSetNumber_Ev
00000000 W _ZN3ble9interface3GapINS_7generic10GenericGapINS_3pal6vendor6cordio3GapENS4_15SecurityManagerINS6_21CordioSecurityManagerINS2_22GenericSecurityManagerIS9_NS_6vendor6cordio19SigningEventMonitorEEEEESE_EESE_EEE27isPeriodicAdvertisingActiveEh
00000000 W _ZN3ble9interface3GapINS_7generic10GenericGapINS_3pal6vendor6cordio3GapENS4_15SecurityManagerINS6_21CordioSecurityManagerINS2_22GenericSecurityManagerIS9_NS_6vendor6cordio19SigningEventMonitorEEEEESE_EESE_EEE27setAdvertisingScanResponse_EhN4mbed4SpanIKhLin1EEE
00000000 W _ZN3ble9interface3GapINS_7generic10GenericGapINS_3pal6vendor6cordio3GapENS4_15SecurityManagerINS6_21CordioSecurityManagerINS2_22GenericSecurityManagerIS9_NS_6vendor6cordio19SigningEventMonitorEEEEESE_EESE_EEE27updateConnectionParameters_EjNS_8DurationItLm1250ENS_5RangeILm6ELm3200EEEPvEESN_NS_7BoundedItLt0ELt499EEENSJ_ItLm10000ENSK_ILm10ELm3200EEESM_EENSJ_ItLm625ENSK_ILm0ELm65535EEESM_EEST_
00000000 W _ZN3ble9interface3GapINS_7generic10GenericGapINS_3pal6vendor6cordio3GapENS4_15SecurityManagerINS6_21CordioSecurityManagerINS2_22GenericSecurityManagerIS9_NS_6vendor6cordio19SigningEventMonitorEEEEESE_EESE_EEE28clearPeriodicAdvertiserList_Ev
00000000 W _ZN3ble9interface3GapINS_7generic10GenericGapINS_3pal6vendor6cordio3GapENS4_15SecurityManagerINS6_21CordioSecurityManagerINS2_22GenericSecurityManagerIS9_NS_6vendor6cordio19SigningEventMonitorEEEEESE_EESE_EEE28getMaxAdvertisingDataLength_Ev
00000000 W _ZN3ble9interface3GapINS_7generic10GenericGapINS_3pal6vendor6cordio3GapENS4_15SecurityManagerINS6_21CordioSecurityManagerINS2_22GenericSecurityManagerIS9_NS_6vendor6cordio19SigningEventMonitorEEEEESE_EESE_EEE28isPeriodicAdvertisingActive_Eh
00000000 W _ZN3ble9interface3GapINS_7generic10GenericGapINS_3pal6vendor6cordio3GapENS4_15SecurityManagerINS6_21CordioSecurityManagerINS2_22GenericSecurityManagerIS9_NS_6vendor6cordio19SigningEventMonitorEEEEESE_EESE_EEE29setPeriodicAdvertisingPayloadEhN4mbed4SpanIKhLin1EEE
00000000 W _ZN3ble9interface3GapINS_7generic10GenericGapINS_3pal6vendor6cordio3GapENS4_15SecurityManagerINS6_21CordioSecurityManagerINS2_22GenericSecurityManagerIS9_NS_6vendor6cordio19SigningEventMonitorEEEEESE_EESE_EEE30getCentralPrivacyConfigurationEPNS_30central_privay_configuration_tE
00000000 W _ZN3ble9interface3GapINS_7generic10GenericGapINS_3pal6vendor6cordio3GapENS4_15SecurityManagerINS6_21CordioSecurityManagerINS2_22GenericSecurityManagerIS9_NS_6vendor6cordio19SigningEventMonitorEEEEESE_EESE_EEE30setCentralPrivacyConfigurationEPKNS_30central_privay_configuration_tE
00000000 W _ZN3ble9interface3GapINS_7generic10GenericGapINS_3pal6vendor6cordio3GapENS4_15SecurityManagerINS6_21CordioSecurityManagerINS2_22GenericSecurityManagerIS9_NS_6vendor6cordio19SigningEventMonitorEEEEESE_EESE_EEE30setPeriodicAdvertisingPayload_EhN4mbed4SpanIKhLin1EEE
00000000 W _ZN3ble9interface3GapINS_7generic10GenericGapINS_3pal6vendor6cordio3GapENS4_15SecurityManagerINS6_21CordioSecurityManagerINS2_22GenericSecurityManagerIS9_NS_6vendor6cordio19SigningEventMonitorEEEEESE_EESE_EEE31getCentralPrivacyConfiguration_EPNS_30central_privay_configuration_tE
00000000 W _ZN3ble9interface3GapINS_7generic10GenericGapINS_3pal6vendor6cordio3GapENS4_15SecurityManagerINS6_21CordioSecurityManagerINS2_22GenericSecurityManagerIS9_NS_6vendor6cordio19SigningEventMonitorEEEEESE_EESE_EEE31setCentralPrivacyConfiguration_EPKNS_30central_privay_configuration_tE
00000000 W _ZN3ble9interface3GapINS_7generic10GenericGapINS_3pal6vendor6cordio3GapENS4_15SecurityManagerINS6_21CordioSecurityManagerINS2_22GenericSecurityManagerIS9_NS_6vendor6cordio19SigningEventMonitorEEEEESE_EESE_EEE32acceptConnectionParametersUpdateEjNS_8DurationItLm1250ENS_5RangeILm6ELm3200EEEPvEESN_NS_7BoundedItLt0ELt499EEENSJ_ItLm10000ENSK_ILm10ELm3200EEESM_EENSJ_ItLm625ENSK_ILm0ELm65535EEESM_EEST_
00000000 W _ZN3ble9interface3GapINS_7generic10GenericGapINS_3pal6vendor6cordio3GapENS4_15SecurityManagerINS6_21CordioSecurityManagerINS2_22GenericSecurityManagerIS9_NS_6vendor6cordio19SigningEventMonitorEEEEESE_EESE_EEE32getMaxPeriodicAdvertiserListSizeEv
00000000 W _ZN3ble9interface3GapINS_7generic10GenericGapINS_3pal6vendor6cordio3GapENS4_15SecurityManagerINS6_21CordioSecurityManagerINS2_22GenericSecurityManagerIS9_NS_6vendor6cordio19SigningEventMonitorEEEEESE_EESE_EEE32rejectConnectionParametersUpdateEj
00000000 W _ZN3ble9interface3GapINS_7generic10GenericGapINS_3pal6vendor6cordio3GapENS4_15SecurityManagerINS6_21CordioSecurityManagerINS2_22GenericSecurityManagerIS9_NS_6vendor6cordio19SigningEventMonitorEEEEESE_EESE_EEE32setPeriodicAdvertisingParametersEhNS_8DurationItLm1250ENS_5RangeILm6ELm65535EEEPvEESN_b
00000000 W _ZN3ble9interface3GapINS_7generic10GenericGapINS_3pal6vendor6cordio3GapENS4_15SecurityManagerINS6_21CordioSecurityManagerINS2_22GenericSecurityManagerIS9_NS_6vendor6cordio19SigningEventMonitorEEEEESE_EESE_EEE33acceptConnectionParametersUpdate_EjNS_8DurationItLm1250ENS_5RangeILm6ELm3200EEEPvEESN_NS_7BoundedItLt0ELt499EEENSJ_ItLm10000ENSK_ILm10ELm3200EEESM_EENSJ_ItLm625ENSK_ILm0ELm65535EEESM_EEST_
00000000 W _ZN3ble9interface3GapINS_7generic10GenericGapINS_3pal6vendor6cordio3GapENS4_15SecurityManagerINS6_21CordioSecurityManagerINS2_22GenericSecurityManagerIS9_NS_6vendor6cordio19SigningEventMonitorEEEEESE_EESE_EEE33addDeviceToPeriodicAdvertiserListENS_19peer_address_type_tERKNS_9address_tEh
00000000 W _ZN3ble9interface3GapINS_7generic10GenericGapINS_3pal6vendor6cordio3GapENS4_15SecurityManagerINS6_21CordioSecurityManagerINS2_22GenericSecurityManagerIS9_NS_6vendor6cordio19SigningEventMonitorEEEEESE_EESE_EEE33getMaxPeriodicAdvertiserListSize_Ev
00000000 W _ZN3ble9interface3GapINS_7generic10GenericGapINS_3pal6vendor6cordio3GapENS4_15SecurityManagerINS6_21CordioSecurityManagerINS2_22GenericSecurityManagerIS9_NS_6vendor6cordio19SigningEventMonitorEEEEESE_EESE_EEE33getPeripheralPrivacyConfigurationEPNS_34peripheral_privacy_configuration_tE
00000000 W _ZN3ble9interface3GapINS_7generic10GenericGapINS_3pal6vendor6cordio3GapENS4_15SecurityManagerINS6_21CordioSecurityManagerINS2_22GenericSecurityManagerIS9_NS_6vendor6cordio19SigningEventMonitorEEEEESE_EESE_EEE33rejectConnectionParametersUpdate_Ej
00000000 W _ZN3ble9interface3GapINS_7generic10GenericGapINS_3pal6vendor6cordio3GapENS4_15SecurityManagerINS6_21CordioSecurityManagerINS2_22GenericSecurityManagerIS9_NS_6vendor6cordio19SigningEventMonitorEEEEESE_EESE_EEE33setPeriodicAdvertisingParameters_EhNS_8DurationItLm1250ENS_5RangeILm6ELm65535EEEPvEESN_b
00000000 W _ZN3ble9interface3GapINS_7generic10GenericGapINS_3pal6vendor6cordio3GapENS4_15SecurityManagerINS6_21CordioSecurityManagerINS2_22GenericSecurityManagerIS9_NS_6vendor6cordio19SigningEventMonitorEEEEESE_EESE_EEE33setPeripheralPrivacyConfigurationEPKNS_34peripheral_privacy_configuration_tE
00000000 W _ZN3ble9interface3GapINS_7generic10GenericGapINS_3pal6vendor6cordio3GapENS4_15SecurityManagerINS6_21CordioSecurityManagerINS2_22GenericSecurityManagerIS9_NS_6vendor6cordio19SigningEventMonitorEEEEESE_EESE_EEE34addDeviceToPeriodicAdvertiserList_ENS_19peer_address_type_tERKNS_9address_tEh
00000000 W _ZN3ble9interface3GapINS_7generic10GenericGapINS_3pal6vendor6cordio3GapENS4_15SecurityManagerINS6_21CordioSecurityManagerINS2_22GenericSecurityManagerIS9_NS_6vendor6cordio19SigningEventMonitorEEEEESE_EESE_EEE34getPeripheralPrivacyConfiguration_EPNS_34peripheral_privacy_configuration_tE
00000000 W _ZN3ble9interface3GapINS_7generic10GenericGapINS_3pal6vendor6cordio3GapENS4_15SecurityManagerINS6_21CordioSecurityManagerINS2_22GenericSecurityManagerIS9_NS_6vendor6cordio19SigningEventMonitorEEEEESE_EESE_EEE34setPeripheralPrivacyConfiguration_EPKNS_34peripheral_privacy_configuration_tE
00000000 W _ZN3ble9interface3GapINS_7generic10GenericGapINS_3pal6vendor6cordio3GapENS4_15SecurityManagerINS6_21CordioSecurityManagerINS2_22GenericSecurityManagerIS9_NS_6vendor6cordio19SigningEventMonitorEEEEESE_EESE_EEE36getMaxActiveSetAdvertisingDataLengthEv
00000000 V _ZN3ble9interface3GapINS_7generic10GenericGapINS_3pal6vendor6cordio3GapENS4_15SecurityManagerINS6_21CordioSecurityManagerINS2_22GenericSecurityManagerIS9_NS_6vendor6cordio19SigningEventMonitorEEEEESE_EESE_EEE37default_central_privacy_configurationE
00000000 W _ZN3ble9interface3GapINS_7generic10GenericGapINS_3pal6vendor6cordio3GapENS4_15SecurityManagerINS6_21CordioSecurityManagerINS2_22GenericSecurityManagerIS9_NS_6vendor6cordio19SigningEventMonitorEEEEESE_EESE_EEE37getMaxActiveSetAdvertisingDataLength_Ev
00000000 W _ZN3ble9interface3GapINS_7generic10GenericGapINS_3pal6vendor6cordio3GapENS4_15SecurityManagerINS6_21CordioSecurityManagerINS2_22GenericSecurityManagerIS9_NS_6vendor6cordio19SigningEventMonitorEEEEESE_EESE_EEE38getMaxConnectableAdvertisingDataLengthEv
00000000 W _ZN3ble9interface3GapINS_7generic10GenericGapINS_3pal6vendor6cordio3GapENS4_15SecurityManagerINS6_21CordioSecurityManagerINS2_22GenericSecurityManagerIS9_NS_6vendor6cordio19SigningEventMonitorEEEEESE_EESE_EEE38removeDeviceFromPeriodicAdvertiserListENS_19peer_address_type_tERKNS_9address_tEh
00000000 W _ZN3ble9interface3GapINS_7generic10GenericGapINS_3pal6vendor6cordio3GapENS4_15SecurityManagerINS6_21CordioSecurityManagerINS2_22GenericSecurityManagerIS9_NS_6vendor6cordio19SigningEventMonitorEEEEESE_EESE_EEE39getMaxConnectableAdvertisingDataLength_Ev
00000000 W _ZN3ble9interface3GapINS_7generic10GenericGapINS_3pal6vendor6cordio3GapENS4_15SecurityManagerINS6_21CordioSecurityManagerINS2_22GenericSecurityManagerIS9_NS_6vendor6cordio19SigningEventMonitorEEEEESE_EESE_EEE39manageConnectionParametersUpdateRequestEb
00000000 W _ZN3ble9interface3GapINS_7generic10GenericGapINS_3pal6vendor6cordio3GapENS4_15SecurityManagerINS6_21CordioSecurityManagerINS2_22GenericSecurityManagerIS9_NS_6vendor6cordio19SigningEventMonitorEEEEESE_EESE_EEE39removeDeviceFromPeriodicAdvertiserList_ENS_19peer_address_type_tERKNS_9address_tEh
00000000 V _ZN3ble9interface3GapINS_7generic10GenericGapINS_3pal6vendor6cordio3GapENS4_15SecurityManagerINS6_21CordioSecurityManagerINS2_22GenericSecurityManagerIS9_NS_6vendor6cordio19SigningEventMonitorEEEEESE_EESE_EEE40default_peripheral_privacy_configurationE
00000000 W _ZN3ble9interface3GapINS_7generic10GenericGapINS_3pal6vendor6cordio3GapENS4_15SecurityManagerINS6_21CordioSecurityManagerINS2_22GenericSecurityManagerIS9_NS_6vendor6cordio19SigningEventMonitorEEEEESE_EESE_EEE40manageConnectionParametersUpdateRequest_Eb
00000000 W _ZN3ble9interface3GapINS_7generic10GenericGapINS_3pal6vendor6cordio3GapENS4_15SecurityManagerINS6_21CordioSecurityManagerINS2_22GenericSecurityManagerIS9_NS_6vendor6cordio19SigningEventMonitorEEEEESE_EESE_EEE6setPhyEjPKNS_9phy_set_tESL_NS_22coded_symbol_per_bit_tE
00000000 W _ZN3ble9interface3GapINS_7generic10GenericGapINS_3pal6vendor6cordio3GapENS4_15SecurityManagerINS6_21CordioSecurityManagerINS2_22GenericSecurityManagerIS9_NS_6vendor6cordio19SigningEventMonitorEEEEESE_EESE_EEE7connectENS_19peer_address_type_tERKNS_9address_tERKNS_20ConnectionParametersE
00000000 W _ZN3ble9interface3GapINS_7generic10GenericGapINS_3pal6vendor6cordio3GapENS4_15SecurityManagerINS6_21CordioSecurityManagerINS2_22GenericSecurityManagerIS9_NS_6vendor6cordio19SigningEventMonitorEEEEESE_EESE_EEE7readPhyEj
00000000 W _ZN3ble9interface3GapINS_7generic10GenericGapINS_3pal6vendor6cordio3GapENS4_15SecurityManagerINS6_21CordioSecurityManagerINS2_22GenericSecurityManagerIS9_NS_6vendor6cordio19SigningEventMonitorEEEEESE_EESE_EEE7setPhy_EjPKNS_9phy_set_tESL_NS_22coded_symbol_per_bit_tE
00000000 W _ZN3ble9interface3GapINS_7generic10GenericGapINS_3pal6vendor6cordio3GapENS4_15SecurityManagerINS6_21CordioSecurityManagerINS2_22GenericSecurityManagerIS9_NS_6vendor6cordio19SigningEventMonitorEEEEESE_EESE_EEE8connect_ENS_19peer_address_type_tERKNS_9address_tERKNS_20ConnectionParametersE
00000000 W _ZN3ble9interface3GapINS_7generic10GenericGapINS_3pal6vendor6cordio3GapENS4_15SecurityManagerINS6_21CordioSecurityManagerINS2_22GenericSecurityManagerIS9_NS_6vendor6cordio19SigningEventMonitorEEEEESE_EESE_EEE8readPhy_Ej
00000000 W _ZN3ble9interface3GapINS_7generic10GenericGapINS_3pal6vendor6cordio3GapENS4_15SecurityManagerINS6_21CordioSecurityManagerINS2_22GenericSecurityManagerIS9_NS_6vendor6cordio19SigningEventMonitorEEEEESE_EESE_EEE8stopScanEv
00000000 W _ZN3ble9interface3GapINS_7generic10GenericGapINS_3pal6vendor6cordio3GapENS4_15SecurityManagerINS6_21CordioSecurityManagerINS2_22GenericSecurityManagerIS9_NS_6vendor6cordio19SigningEventMonitorEEEEESE_EESE_EEE9startScanENS_8DurationItLm10000ENS_5RangeILm0ELm65535EEENS_5ValueItLt0EEEEENS_19duplicates_filter_tENSJ_ItLm1280000ESL_PvEE
00000000 W _ZN3ble9interface3GapINS_7generic10GenericGapINS_3pal6vendor6cordio3GapENS4_15SecurityManagerINS6_21CordioSecurityManagerINS2_22GenericSecurityManagerIS9_NS_6vendor6cordio19SigningEventMonitorEEEEESE_EESE_EEE9stopScan_Ev
00000000 W _ZN3ble9interface3GapINS_7generic10GenericGapINS_3pal6vendor6cordio3GapENS4_15SecurityManagerINS6_21CordioSecurityManagerINS2_22GenericSecurityManagerIS9_NS_6vendor6cordio19SigningEventMonitorEEEEESE_EESE_EEEC1Ev
00000000 W _ZN3ble9interface3GapINS_7generic10GenericGapINS_3pal6vendor6cordio3GapENS4_15SecurityManagerINS6_21CordioSecurityManagerINS2_22GenericSecurityManagerIS9_NS_6vendor6cordio19SigningEventMonitorEEEEESE_EESE_EEEC2Ev
00000000 n _ZN3ble9interface3GapINS_7generic10GenericGapINS_3pal6vendor6cordio3GapENS4_15SecurityManagerINS6_21CordioSecurityManagerINS2_22GenericSecurityManagerIS9_NS_6vendor6cordio19SigningEventMonitorEEEEESE_EESE_EEEC5Ev
00000000 W _ZN3ble9interface9LegacyGapINS_7generic10GenericGapINS_3pal6vendor6cordio3GapENS4_15SecurityManagerINS6_21CordioSecurityManagerINS2_22GenericSecurityManagerIS9_NS_6vendor6cordio19SigningEventMonitorEEEEESE_EESE_EEE10disconnectEjNSI_21DisconnectionReason_tE
00000000 W _ZN3ble9interface9LegacyGapINS_7generic10GenericGapINS_3pal6vendor6cordio3GapENS4_15SecurityManagerINS6_21CordioSecurityManagerINS2_22GenericSecurityManagerIS9_NS_6vendor6cordio19SigningEventMonitorEEEEESE_EESE_EEE10disconnectENSI_21DisconnectionReason_tE
00000000 W _ZN3ble9interface9LegacyGapINS_7generic10GenericGapINS_3pal6vendor6cordio3GapENS4_15SecurityManagerINS6_21CordioSecurityManagerINS2_22GenericSecurityManagerIS9_NS_6vendor6cordio19SigningEventMonitorEEEEESE_EESE_EEE10getAddressEPN11BLEProtocol11AddressType4TypeEPh
00000000 W _ZN3ble9interface9LegacyGapINS_7generic10GenericGapINS_3pal6vendor6cordio3GapENS4_15SecurityManagerINS6_21CordioSecurityManagerINS2_22GenericSecurityManagerIS9_NS_6vendor6cordio19SigningEventMonitorEEEEESE_EESE_EEE10onShutdownERK26FunctionPointerWithContextIPKSI_E
00000000 W _ZN3ble9interface9LegacyGapINS_7generic10GenericGapINS_3pal6vendor6cordio3GapENS4_15SecurityManagerINS6_21CordioSecurityManagerINS2_22GenericSecurityManagerIS9_NS_6vendor6cordio19SigningEventMonitorEEEEESE_EESE_EEE10onShutdownEv
00000000 W _ZN3ble9interface9LegacyGapINS_7generic10GenericGapINS_3pal6vendor6cordio3GapENS4_15SecurityManagerINS6_21CordioSecurityManagerINS2_22GenericSecurityManagerIS9_NS_6vendor6cordio19SigningEventMonitorEEEEESE_EESE_EEE10setAddressEN11BLEProtocol11AddressType4TypeEPKh
00000000 W _ZN3ble9interface9LegacyGapINS_7generic10GenericGapINS_3pal6vendor6cordio3GapENS4_15SecurityManagerINS6_21CordioSecurityManagerINS2_22GenericSecurityManagerIS9_NS_6vendor6cordio19SigningEventMonitorEEEEESE_EESE_EEE10setTxPowerEa
00000000 W _ZN3ble9interface9LegacyGapINS_7generic10GenericGapINS_3pal6vendor6cordio3GapENS4_15SecurityManagerINS6_21CordioSecurityManagerINS2_22GenericSecurityManagerIS9_NS_6vendor6cordio19SigningEventMonitorEEEEESE_EESE_EEE11disconnect_EjNSI_21DisconnectionReason_tE
00000000 W _ZN3ble9interface9LegacyGapINS_7generic10GenericGapINS_3pal6vendor6cordio3GapENS4_15SecurityManagerINS6_21CordioSecurityManagerINS2_22GenericSecurityManagerIS9_NS_6vendor6cordio19SigningEventMonitorEEEEESE_EESE_EEE11disconnect_ENSI_21DisconnectionReason_tE
00000000 W _ZN3ble9interface9LegacyGapINS_7generic10GenericGapINS_3pal6vendor6cordio3GapENS4_15SecurityManagerINS6_21CordioSecurityManagerINS2_22GenericSecurityManagerIS9_NS_6vendor6cordio19SigningEventMonitorEEEEESE_EESE_EEE11getAddress_EPN11BLEProtocol11AddressType4TypeEPh
00000000 W _ZN3ble9interface9LegacyGapINS_7generic10GenericGapINS_3pal6vendor6cordio3GapENS4_15SecurityManagerINS6_21CordioSecurityManagerINS2_22GenericSecurityManagerIS9_NS_6vendor6cordio19SigningEventMonitorEEEEESE_EESE_EEE11setAddress_EN11BLEProtocol11AddressType4TypeEPKh
00000000 W _ZN3ble9interface9LegacyGapINS_7generic10GenericGapINS_3pal6vendor6cordio3GapENS4_15SecurityManagerINS6_21CordioSecurityManagerINS2_22GenericSecurityManagerIS9_NS_6vendor6cordio19SigningEventMonitorEEEEESE_EESE_EEE11setTxPower_Ea
00000000 W _ZN3ble9interface9LegacyGapINS_7generic10GenericGapINS_3pal6vendor6cordio3GapENS4_15SecurityManagerINS6_21CordioSecurityManagerINS2_22GenericSecurityManagerIS9_NS_6vendor6cordio19SigningEventMonitorEEEEESE_EESE_EEE12onConnectionE26FunctionPointerWithContextIPKNSI_26ConnectionCallbackParams_tEE
00000000 W _ZN3ble9interface9LegacyGapINS_7generic10GenericGapINS_3pal6vendor6cordio3GapENS4_15SecurityManagerINS6_21CordioSecurityManagerINS2_22GenericSecurityManagerIS9_NS_6vendor6cordio19SigningEventMonitorEEEEESE_EESE_EEE12onConnectionEv
00000000 W _ZN3ble9interface9LegacyGapINS_7generic10GenericGapINS_3pal6vendor6cordio3GapENS4_15SecurityManagerINS6_21CordioSecurityManagerINS2_22GenericSecurityManagerIS9_NS_6vendor6cordio19SigningEventMonitorEEEEESE_EESE_EEE12setWhitelistERKNSI_11Whitelist_tE
00000000 W _ZN3ble9interface9LegacyGapINS_7generic10GenericGapINS_3pal6vendor6cordio3GapENS4_15SecurityManagerINS6_21CordioSecurityManagerINS2_22GenericSecurityManagerIS9_NS_6vendor6cordio19SigningEventMonitorEEEEESE_EESE_EEE13getAppearanceEPN18GapAdvertisingData12Appearance_tE
00000000 W _ZN3ble9interface9LegacyGapINS_7generic10GenericGapINS_3pal6vendor6cordio3GapENS4_15SecurityManagerINS6_21CordioSecurityManagerINS2_22GenericSecurityManagerIS9_NS_6vendor6cordio19SigningEventMonitorEEEEESE_EESE_EEE13getDeviceNameEPhPj
00000000 W _ZN3ble9interface9LegacyGapINS_7generic10GenericGapINS_3pal6vendor6cordio3GapENS4_15SecurityManagerINS6_21CordioSecurityManagerINS2_22GenericSecurityManagerIS9_NS_6vendor6cordio19SigningEventMonitorEEEEESE_EESE_EEE13setAppearanceEN18GapAdvertisingData12Appearance_tE
00000000 W _ZN3ble9interface9LegacyGapINS_7generic10GenericGapINS_3pal6vendor6cordio3GapENS4_15SecurityManagerINS6_21CordioSecurityManagerINS2_22GenericSecurityManagerIS9_NS_6vendor6cordio19SigningEventMonitorEEEEESE_EESE_EEE13setDeviceNameEPKh
00000000 W _ZN3ble9interface9LegacyGapINS_7generic10GenericGapINS_3pal6vendor6cordio3GapENS4_15SecurityManagerINS6_21CordioSecurityManagerINS2_22GenericSecurityManagerIS9_NS_6vendor6cordio19SigningEventMonitorEEEEESE_EESE_EEE13setScanParamsERK17GapScanningParams
00000000 W _ZN3ble9interface9LegacyGapINS_7generic10GenericGapINS_3pal6vendor6cordio3GapENS4_15SecurityManagerINS6_21CordioSecurityManagerINS2_22GenericSecurityManagerIS9_NS_6vendor6cordio19SigningEventMonitorEEEEESE_EESE_EEE13setScanParamsEtttb
00000000 W _ZN3ble9interface9LegacyGapINS_7generic10GenericGapINS_3pal6vendor6cordio3GapENS4_15SecurityManagerINS6_21CordioSecurityManagerINS2_22GenericSecurityManagerIS9_NS_6vendor6cordio19SigningEventMonitorEEEEESE_EESE_EEE13setScanWindowEt
00000000 W _ZN3ble9interface9LegacyGapINS_7generic10GenericGapINS_3pal6vendor6cordio3GapENS4_15SecurityManagerINS6_21CordioSecurityManagerINS2_22GenericSecurityManagerIS9_NS_6vendor6cordio19SigningEventMonitorEEEEESE_EESE_EEE13setWhitelist_ERKNSI_11Whitelist_tE
00000000 W _ZN3ble9interface9LegacyGapINS_7generic10GenericGapINS_3pal6vendor6cordio3GapENS4_15SecurityManagerINS6_21CordioSecurityManagerINS2_22GenericSecurityManagerIS9_NS_6vendor6cordio19SigningEventMonitorEEEEESE_EESE_EEE14getAppearance_EPN18GapAdvertisingData12Appearance_tE
00000000 W _ZN3ble9interface9LegacyGapINS_7generic10GenericGapINS_3pal6vendor6cordio3GapENS4_15SecurityManagerINS6_21CordioSecurityManagerINS2_22GenericSecurityManagerIS9_NS_6vendor6cordio19SigningEventMonitorEEEEESE_EESE_EEE14getDeviceName_EPhPj
00000000 W _ZN3ble9interface9LegacyGapINS_7generic10GenericGapINS_3pal6vendor6cordio3GapENS4_15SecurityManagerINS6_21CordioSecurityManagerINS2_22GenericSecurityManagerIS9_NS_6vendor6cordio19SigningEventMonitorEEEEESE_EESE_EEE14setAppearance_EN18GapAdvertisingData12Appearance_tE
00000000 W _ZN3ble9interface9LegacyGapINS_7generic10GenericGapINS_3pal6vendor6cordio3GapENS4_15SecurityManagerINS6_21CordioSecurityManagerINS2_22GenericSecurityManagerIS9_NS_6vendor6cordio19SigningEventMonitorEEEEESE_EESE_EEE14setDeviceName_EPKh
00000000 W _ZN3ble9interface9LegacyGapINS_7generic10GenericGapINS_3pal6vendor6cordio3GapENS4_15SecurityManagerINS6_21CordioSecurityManagerINS2_22GenericSecurityManagerIS9_NS_6vendor6cordio19SigningEventMonitorEEEEESE_EESE_EEE14setScanTimeoutEt
00000000 W _ZN3ble9interface9LegacyGapINS_7generic10GenericGapINS_3pal6vendor6cordio3GapENS4_15SecurityManagerINS6_21CordioSecurityManagerINS2_22GenericSecurityManagerIS9_NS_6vendor6cordio19SigningEventMonitorEEEEESE_EESE_EEE14startRadioScanERK17GapScanningParams
00000000 W _ZN3ble9interface9LegacyGapINS_7generic10GenericGapINS_3pal6vendor6cordio3GapENS4_15SecurityManagerINS6_21CordioSecurityManagerINS2_22GenericSecurityManagerIS9_NS_6vendor6cordio19SigningEventMonitorEEEEESE_EESE_EEE15onDisconnectionE26FunctionPointerWithContextIPKNSI_29DisconnectionCallbackParams_tEE
00000000 W _ZN3ble9interface9LegacyGapINS_7generic10GenericGapINS_3pal6vendor6cordio3GapENS4_15SecurityManagerINS6_21CordioSecurityManagerINS2_22GenericSecurityManagerIS9_NS_6vendor6cordio19SigningEventMonitorEEEEESE_EESE_EEE15onDisconnectionEv
00000000 W _ZN3ble9interface9LegacyGapINS_7generic10GenericGapINS_3pal6vendor6cordio3GapENS4_15SecurityManagerINS6_21CordioSecurityManagerINS2_22GenericSecurityManagerIS9_NS_6vendor6cordio19SigningEventMonitorEEEEESE_EESE_EEE15setScanIntervalEt
00000000 W _ZN3ble9interface9LegacyGapINS_7generic10GenericGapINS_3pal6vendor6cordio3GapENS4_15SecurityManagerINS6_21CordioSecurityManagerINS2_22GenericSecurityManagerIS9_NS_6vendor6cordio19SigningEventMonitorEEEEESE_EESE_EEE15startRadioScan_ERK17GapScanningParams
00000000 W _ZN3ble9interface9LegacyGapINS_7generic10GenericGapINS_3pal6vendor6cordio3GapENS4_15SecurityManagerINS6_21CordioSecurityManagerINS2_22GenericSecurityManagerIS9_NS_6vendor6cordio19SigningEventMonitorEEEEESE_EESE_EEE15stopAdvertisingEv
00000000 W _ZN3ble9interface9LegacyGapINS_7generic10GenericGapINS_3pal6vendor6cordio3GapENS4_15SecurityManagerINS6_21CordioSecurityManagerINS2_22GenericSecurityManagerIS9_NS_6vendor6cordio19SigningEventMonitorEEEEESE_EESE_EEE16startAdvertisingERK20GapAdvertisingParams
00000000 W _ZN3ble9interface9LegacyGapINS_7generic10GenericGapINS_3pal6vendor6cordio3GapENS4_15SecurityManagerINS6_21CordioSecurityManagerINS2_22GenericSecurityManagerIS9_NS_6vendor6cordio19SigningEventMonitorEEEEESE_EESE_EEE16startAdvertisingEv
00000000 W _ZN3ble9interface9LegacyGapINS_7generic10GenericGapINS_3pal6vendor6cordio3GapENS4_15SecurityManagerINS6_21CordioSecurityManagerINS2_22GenericSecurityManagerIS9_NS_6vendor6cordio19SigningEventMonitorEEEEESE_EESE_EEE16stopAdvertising_Ev
00000000 W _ZN3ble9interface9LegacyGapINS_7generic10GenericGapINS_3pal6vendor6cordio3GapENS4_15SecurityManagerINS6_21CordioSecurityManagerINS2_22GenericSecurityManagerIS9_NS_6vendor6cordio19SigningEventMonitorEEEEESE_EESE_EEE17clearScanResponseEv
00000000 W _ZN3ble9interface9LegacyGapINS_7generic10GenericGapINS_3pal6vendor6cordio3GapENS4_15SecurityManagerINS6_21CordioSecurityManagerINS2_22GenericSecurityManagerIS9_NS_6vendor6cordio19SigningEventMonitorEEEEESE_EESE_EEE17setActiveScanningEb
00000000 W _ZN3ble9interface9LegacyGapINS_7generic10GenericGapINS_3pal6vendor6cordio3GapENS4_15SecurityManagerINS6_21CordioSecurityManagerINS2_22GenericSecurityManagerIS9_NS_6vendor6cordio19SigningEventMonitorEEEEESE_EESE_EEE17startAdvertising_ERK20GapAdvertisingParams
00000000 W _ZN3ble9interface9LegacyGapINS_7generic10GenericGapINS_3pal6vendor6cordio3GapENS4_15SecurityManagerINS6_21CordioSecurityManagerINS2_22GenericSecurityManagerIS9_NS_6vendor6cordio19SigningEventMonitorEEEEESE_EESE_EEE18setAdvertisingDataERK18GapAdvertisingDataSL_
00000000 W _ZN3ble9interface9LegacyGapINS_7generic10GenericGapINS_3pal6vendor6cordio3GapENS4_15SecurityManagerINS6_21CordioSecurityManagerINS2_22GenericSecurityManagerIS9_NS_6vendor6cordio19SigningEventMonitorEEEEESE_EESE_EEE18setAdvertisingTypeEN20GapAdvertisingParams17AdvertisingType_tE
00000000 W _ZN3ble9interface9LegacyGapINS_7generic10GenericGapINS_3pal6vendor6cordio3GapENS4_15SecurityManagerINS6_21CordioSecurityManagerINS2_22GenericSecurityManagerIS9_NS_6vendor6cordio19SigningEventMonitorEEEEESE_EESE_EEE19onRadioNotificationEPFvbE
00000000 W _ZN3ble9interface9LegacyGapINS_7generic10GenericGapINS_3pal6vendor6cordio3GapENS4_15SecurityManagerINS6_21CordioSecurityManagerINS2_22GenericSecurityManagerIS9_NS_6vendor6cordio19SigningEventMonitorEEEEESE_EESE_EEE19processTimeoutEventENSI_15TimeoutSource_tE
00000000 W _ZN3ble9interface9LegacyGapINS_7generic10GenericGapINS_3pal6vendor6cordio3GapENS4_15SecurityManagerINS6_21CordioSecurityManagerINS2_22GenericSecurityManagerIS9_NS_6vendor6cordio19SigningEventMonitorEEEEESE_EESE_EEE19setAdvertisingData_ERK18GapAdvertisingDataSL_
00000000 W _ZN3ble9interface9LegacyGapINS_7generic10GenericGapINS_3pal6vendor6cordio3GapENS4_15SecurityManagerINS6_21CordioSecurityManagerINS2_22GenericSecurityManagerIS9_NS_6vendor6cordio19SigningEventMonitorEEEEESE_EESE_EEE20getAdvertisingParamsEv
00000000 W _ZN3ble9interface9LegacyGapINS_7generic10GenericGapINS_3pal6vendor6cordio3GapENS4_15SecurityManagerINS6_21CordioSecurityManagerINS2_22GenericSecurityManagerIS9_NS_6vendor6cordio19SigningEventMonitorEEEEESE_EESE_EEE20getRandomAddressTypeEPKhPNS_21random_address_type_tE
00000000 W _ZN3ble9interface9LegacyGapINS_7generic10GenericGapINS_3pal6vendor6cordio3GapENS4_15SecurityManagerINS6_21CordioSecurityManagerINS2_22GenericSecurityManagerIS9_NS_6vendor6cordio19SigningEventMonitorEEEEESE_EESE_EEE20setAdvertisingParamsERK20GapAdvertisingParams
00000000 W _ZN3ble9interface9LegacyGapINS_7generic10GenericGapINS_3pal6vendor6cordio3GapENS4_15SecurityManagerINS6_21CordioSecurityManagerINS2_22GenericSecurityManagerIS9_NS_6vendor6cordio19SigningEventMonitorEEEEESE_EESE_EEE21initRadioNotificationEv
00000000 W _ZN3ble9interface9LegacyGapINS_7generic10GenericGapINS_3pal6vendor6cordio3GapENS4_15SecurityManagerINS6_21CordioSecurityManagerINS2_22GenericSecurityManagerIS9_NS_6vendor6cordio19SigningEventMonitorEEEEESE_EESE_EEE21setAdvertisingPayloadERK18GapAdvertisingData
00000000 W _ZN3ble9interface9LegacyGapINS_7generic10GenericGapINS_3pal6vendor6cordio3GapENS4_15SecurityManagerINS6_21CordioSecurityManagerINS2_22GenericSecurityManagerIS9_NS_6vendor6cordio19SigningEventMonitorEEEEESE_EESE_EEE21setAdvertisingTimeoutEt
00000000 W _ZN3ble9interface9LegacyGapINS_7generic10GenericGapINS_3pal6vendor6cordio3GapENS4_15SecurityManagerINS6_21CordioSecurityManagerINS2_22GenericSecurityManagerIS9_NS_6vendor6cordio19SigningEventMonitorEEEEESE_EESE_EEE21setScanningPolicyModeENSI_20ScanningPolicyMode_tE
00000000 W _ZN3ble9interface9LegacyGapINS_7generic10GenericGapINS_3pal6vendor6cordio3GapENS4_15SecurityManagerINS6_21CordioSecurityManagerINS2_22GenericSecurityManagerIS9_NS_6vendor6cordio19SigningEventMonitorEEEEESE_EESE_EEE22accumulateScanResponseEN18GapAdvertisingData10DataType_tEPKhh
00000000 W _ZN3ble9interface9LegacyGapINS_7generic10GenericGapINS_3pal6vendor6cordio3GapENS4_15SecurityManagerINS6_21CordioSecurityManagerINS2_22GenericSecurityManagerIS9_NS_6vendor6cordio19SigningEventMonitorEEEEESE_EESE_EEE22initRadioNotification_Ev
00000000 W _ZN3ble9interface9LegacyGapINS_7generic10GenericGapINS_3pal6vendor6cordio3GapENS4_15SecurityManagerINS6_21CordioSecurityManagerINS2_22GenericSecurityManagerIS9_NS_6vendor6cordio19SigningEventMonitorEEEEESE_EESE_EEE22processConnectionEventEjNSI_6Role_tEN11BLEProtocol11AddressType4TypeEPKhSM_SO_PKNSI_18ConnectionParams_tESO_SO_
00000000 W _ZN3ble9interface9LegacyGapINS_7generic10GenericGapINS_3pal6vendor6cordio3GapENS4_15SecurityManagerINS6_21CordioSecurityManagerINS2_22GenericSecurityManagerIS9_NS_6vendor6cordio19SigningEventMonitorEEEEESE_EESE_EEE22processConnectionEventEjNSI_6Role_tENS_19peer_address_type_tEPKhN11BLEProtocol11AddressType4TypeESM_PKNSI_18ConnectionParams_tESM_SM_
00000000 W _ZN3ble9interface9LegacyGapINS_7generic10GenericGapINS_3pal6vendor6cordio3GapENS4_15SecurityManagerINS6_21CordioSecurityManagerINS2_22GenericSecurityManagerIS9_NS_6vendor6cordio19SigningEventMonitorEEEEESE_EESE_EEE22setAdvertisingIntervalEt
00000000 W _ZN3ble9interface9LegacyGapINS_7generic10GenericGapINS_3pal6vendor6cordio3GapENS4_15SecurityManagerINS6_21CordioSecurityManagerINS2_22GenericSecurityManagerIS9_NS_6vendor6cordio19SigningEventMonitorEEEEESE_EESE_EEE22setInitiatorPolicyModeENSI_21InitiatorPolicyMode_tE
00000000 W _ZN3ble9interface9LegacyGapINS_7generic10GenericGapINS_3pal6vendor6cordio3GapENS4_15SecurityManagerINS6_21CordioSecurityManagerINS2_22GenericSecurityManagerIS9_NS_6vendor6cordio19SigningEventMonitorEEEEESE_EESE_EEE22setScanningPolicyMode_ENSI_20ScanningPolicyMode_tE
00000000 W _ZN3ble9interface9LegacyGapINS_7generic10GenericGapINS_3pal6vendor6cordio3GapENS4_15SecurityManagerINS6_21CordioSecurityManagerINS2_22GenericSecurityManagerIS9_NS_6vendor6cordio19SigningEventMonitorEEEEESE_EESE_EEE22updateConnectionParamsEjPKNSI_18ConnectionParams_tE
00000000 W _ZN3ble9interface9LegacyGapINS_7generic10GenericGapINS_3pal6vendor6cordio3GapENS4_15SecurityManagerINS6_21CordioSecurityManagerINS2_22GenericSecurityManagerIS9_NS_6vendor6cordio19SigningEventMonitorEEEEESE_EESE_EEE23clearAdvertisingPayloadEv
00000000 W _ZN3ble9interface9LegacyGapINS_7generic10GenericGapINS_3pal6vendor6cordio3GapENS4_15SecurityManagerINS6_21CordioSecurityManagerINS2_22GenericSecurityManagerIS9_NS_6vendor6cordio19SigningEventMonitorEEEEESE_EESE_EEE23setInitiatorPolicyMode_ENSI_21InitiatorPolicyMode_tE
00000000 W _ZN3ble9interface9LegacyGapINS_7generic10GenericGapINS_3pal6vendor6cordio3GapENS4_15SecurityManagerINS6_21CordioSecurityManagerINS2_22GenericSecurityManagerIS9_NS_6vendor6cordio19SigningEventMonitorEEEEESE_EESE_EEE23updateConnectionParams_EjPKNSI_18ConnectionParams_tE
00000000 W _ZN3ble9interface9LegacyGapINS_7generic10GenericGapINS_3pal6vendor6cordio3GapENS4_15SecurityManagerINS6_21CordioSecurityManagerINS2_22GenericSecurityManagerIS9_NS_6vendor6cordio19SigningEventMonitorEEEEESE_EESE_EEE24setAdvertisingPolicyModeENSI_23AdvertisingPolicyMode_tE
00000000 W _ZN3ble9interface9LegacyGapINS_7generic10GenericGapINS_3pal6vendor6cordio3GapENS4_15SecurityManagerINS6_21CordioSecurityManagerINS2_22GenericSecurityManagerIS9_NS_6vendor6cordio19SigningEventMonitorEEEEESE_EESE_EEE24updateAdvertisingPayloadEN18GapAdvertisingData10DataType_tEPKhh
00000000 W _ZN3ble9interface9LegacyGapINS_7generic10GenericGapINS_3pal6vendor6cordio3GapENS4_15SecurityManagerINS6_21CordioSecurityManagerINS2_22GenericSecurityManagerIS9_NS_6vendor6cordio19SigningEventMonitorEEEEESE_EESE_EEE25getPermittedTxPowerValuesEPPKaPj
00000000 W _ZN3ble9interface9LegacyGapINS_7generic10GenericGapINS_3pal6vendor6cordio3GapENS4_15SecurityManagerINS6_21CordioSecurityManagerINS2_22GenericSecurityManagerIS9_NS_6vendor6cordio19SigningEventMonitorEEEEESE_EESE_EEE25processDisconnectionEventEjNSI_21DisconnectionReason_tE
00000000 W _ZN3ble9interface9LegacyGapINS_7generic10GenericGapINS_3pal6vendor6cordio3GapENS4_15SecurityManagerINS6_21CordioSecurityManagerINS2_22GenericSecurityManagerIS9_NS_6vendor6cordio19SigningEventMonitorEEEEESE_EESE_EEE25setAdvertisingPolicyMode_ENSI_23AdvertisingPolicyMode_tE
00000000 W _ZN3ble9interface9LegacyGapINS_7generic10GenericGapINS_3pal6vendor6cordio3GapENS4_15SecurityManagerINS6_21CordioSecurityManagerINS2_22GenericSecurityManagerIS9_NS_6vendor6cordio19SigningEventMonitorEEEEESE_EESE_EEE26ConnectionCallbackParams_t18constructor_helperEPKhSL_SL_SL_
00000000 W _ZN3ble9interface9LegacyGapINS_7generic10GenericGapINS_3pal6vendor6cordio3GapENS4_15SecurityManagerINS6_21CordioSecurityManagerINS2_22GenericSecurityManagerIS9_NS_6vendor6cordio19SigningEventMonitorEEEEESE_EESE_EEE26ConnectionCallbackParams_tC1EjNSI_6Role_tEN11BLEProtocol11AddressType4TypeEPKhSN_SP_PKNSI_18ConnectionParams_tESP_SP_
00000000 W _ZN3ble9interface9LegacyGapINS_7generic10GenericGapINS_3pal6vendor6cordio3GapENS4_15SecurityManagerINS6_21CordioSecurityManagerINS2_22GenericSecurityManagerIS9_NS_6vendor6cordio19SigningEventMonitorEEEEESE_EESE_EEE26ConnectionCallbackParams_tC1EjNSI_6Role_tENS_19peer_address_type_tEPKhN11BLEProtocol11AddressType4TypeESN_PKNSI_18ConnectionParams_tESN_SN_
00000000 W _ZN3ble9interface9LegacyGapINS_7generic10GenericGapINS_3pal6vendor6cordio3GapENS4_15SecurityManagerINS6_21CordioSecurityManagerINS2_22GenericSecurityManagerIS9_NS_6vendor6cordio19SigningEventMonitorEEEEESE_EESE_EEE26ConnectionCallbackParams_tC2EjNSI_6Role_tEN11BLEProtocol11AddressType4TypeEPKhSN_SP_PKNSI_18ConnectionParams_tESP_SP_
00000000 W _ZN3ble9interface9LegacyGapINS_7generic10GenericGapINS_3pal6vendor6cordio3GapENS4_15SecurityManagerINS6_21CordioSecurityManagerINS2_22GenericSecurityManagerIS9_NS_6vendor6cordio19SigningEventMonitorEEEEESE_EESE_EEE26ConnectionCallbackParams_tC2EjNSI_6Role_tENS_19peer_address_type_tEPKhN11BLEProtocol11AddressType4TypeESN_PKNSI_18ConnectionParams_tESN_SN_
00000000 n _ZN3ble9interface9LegacyGapINS_7generic10GenericGapINS_3pal6vendor6cordio3GapENS4_15SecurityManagerINS6_21CordioSecurityManagerINS2_22GenericSecurityManagerIS9_NS_6vendor6cordio19SigningEventMonitorEEEEESE_EESE_EEE26ConnectionCallbackParams_tC5EjNSI_6Role_tEN11BLEProtocol11AddressType4TypeEPKhSN_SP_PKNSI_18ConnectionParams_tESP_SP_
00000000 n _ZN3ble9interface9LegacyGapINS_7generic10GenericGapINS_3pal6vendor6cordio3GapENS4_15SecurityManagerINS6_21CordioSecurityManagerINS2_22GenericSecurityManagerIS9_NS_6vendor6cordio19SigningEventMonitorEEEEESE_EESE_EEE26ConnectionCallbackParams_tC5EjNSI_6Role_tENS_19peer_address_type_tEPKhN11BLEProtocol11AddressType4TypeESN_PKNSI_18ConnectionParams_tESN_SN_
00000000 W _ZN3ble9interface9LegacyGapINS_7generic10GenericGapINS_3pal6vendor6cordio3GapENS4_15SecurityManagerINS6_21CordioSecurityManagerINS2_22GenericSecurityManagerIS9_NS_6vendor6cordio19SigningEventMonitorEEEEESE_EESE_EEE26getPermittedTxPowerValues_EPPKaPj
00000000 W _ZN3ble9interface9LegacyGapINS_7generic10GenericGapINS_3pal6vendor6cordio3GapENS4_15SecurityManagerINS6_21CordioSecurityManagerINS2_22GenericSecurityManagerIS9_NS_6vendor6cordio19SigningEventMonitorEEEEESE_EESE_EEE26MSEC_TO_GAP_DURATION_UNITSEm
00000000 W _ZN3ble9interface9LegacyGapINS_7generic10GenericGapINS_3pal6vendor6cordio3GapENS4_15SecurityManagerINS6_21CordioSecurityManagerINS2_22GenericSecurityManagerIS9_NS_6vendor6cordio19SigningEventMonitorEEEEESE_EESE_EEE26processAdvertisementReportEPKhabN20GapAdvertisingParams17AdvertisingType_tEhSK_N11BLEProtocol11AddressType4TypeE
00000000 W _ZN3ble9interface9LegacyGapINS_7generic10GenericGapINS_3pal6vendor6cordio3GapENS4_15SecurityManagerINS6_21CordioSecurityManagerINS2_22GenericSecurityManagerIS9_NS_6vendor6cordio19SigningEventMonitorEEEEESE_EESE_EEE26processAdvertisementReportEPKhabN20GapAdvertisingParams17AdvertisingType_tEhSK_NS_19peer_address_type_tE
00000000 W _ZN3ble9interface9LegacyGapINS_7generic10GenericGapINS_3pal6vendor6cordio3GapENS4_15SecurityManagerINS6_21CordioSecurityManagerINS2_22GenericSecurityManagerIS9_NS_6vendor6cordio19SigningEventMonitorEEEEESE_EESE_EEE28accumulateAdvertisingPayloadEh
00000000 W _ZN3ble9interface9LegacyGapINS_7generic10GenericGapINS_3pal6vendor6cordio3GapENS4_15SecurityManagerINS6_21CordioSecurityManagerINS2_22GenericSecurityManagerIS9_NS_6vendor6cordio19SigningEventMonitorEEEEESE_EESE_EEE28accumulateAdvertisingPayloadEN18GapAdvertisingData10DataType_tEPKhh
00000000 W _ZN3ble9interface9LegacyGapINS_7generic10GenericGapINS_3pal6vendor6cordio3GapENS4_15SecurityManagerINS6_21CordioSecurityManagerINS2_22GenericSecurityManagerIS9_NS_6vendor6cordio19SigningEventMonitorEEEEESE_EESE_EEE28accumulateAdvertisingPayloadEN18GapAdvertisingData12Appearance_tE
00000000 W _ZN3ble9interface9LegacyGapINS_7generic10GenericGapINS_3pal6vendor6cordio3GapENS4_15SecurityManagerINS6_21CordioSecurityManagerINS2_22GenericSecurityManagerIS9_NS_6vendor6cordio19SigningEventMonitorEEEEESE_EESE_EEE28getPreferredConnectionParamsEPNSI_18ConnectionParams_tE
00000000 W _ZN3ble9interface9LegacyGapINS_7generic10GenericGapINS_3pal6vendor6cordio3GapENS4_15SecurityManagerINS6_21CordioSecurityManagerINS2_22GenericSecurityManagerIS9_NS_6vendor6cordio19SigningEventMonitorEEEEESE_EESE_EEE28setPreferredConnectionParamsEPKNSI_18ConnectionParams_tE
00000000 W _ZN3ble9interface9LegacyGapINS_7generic10GenericGapINS_3pal6vendor6cordio3GapENS4_15SecurityManagerINS6_21CordioSecurityManagerINS2_22GenericSecurityManagerIS9_NS_6vendor6cordio19SigningEventMonitorEEEEESE_EESE_EEE29AdvertisementCallbackParams_tC1Ev
00000000 W _ZN3ble9interface9LegacyGapINS_7generic10GenericGapINS_3pal6vendor6cordio3GapENS4_15SecurityManagerINS6_21CordioSecurityManagerINS2_22GenericSecurityManagerIS9_NS_6vendor6cordio19SigningEventMonitorEEEEESE_EESE_EEE29AdvertisementCallbackParams_tC2Ev
00000000 n _ZN3ble9interface9LegacyGapINS_7generic10GenericGapINS_3pal6vendor6cordio3GapENS4_15SecurityManagerINS6_21CordioSecurityManagerINS2_22GenericSecurityManagerIS9_NS_6vendor6cordio19SigningEventMonitorEEEEESE_EESE_EEE29AdvertisementCallbackParams_tC5Ev
00000000 W _ZN3ble9interface9LegacyGapINS_7generic10GenericGapINS_3pal6vendor6cordio3GapENS4_15SecurityManagerINS6_21CordioSecurityManagerINS2_22GenericSecurityManagerIS9_NS_6vendor6cordio19SigningEventMonitorEEEEESE_EESE_EEE29DisconnectionCallbackParams_tC1EjNSI_21DisconnectionReason_tE
00000000 W _ZN3ble9interface9LegacyGapINS_7generic10GenericGapINS_3pal6vendor6cordio3GapENS4_15SecurityManagerINS6_21CordioSecurityManagerINS2_22GenericSecurityManagerIS9_NS_6vendor6cordio19SigningEventMonitorEEEEESE_EESE_EEE29DisconnectionCallbackParams_tC2EjNSI_21DisconnectionReason_tE
00000000 n _ZN3ble9interface9LegacyGapINS_7generic10GenericGapINS_3pal6vendor6cordio3GapENS4_15SecurityManagerINS6_21CordioSecurityManagerINS2_22GenericSecurityManagerIS9_NS_6vendor6cordio19SigningEventMonitorEEEEESE_EESE_EEE29DisconnectionCallbackParams_tC5EjNSI_21DisconnectionReason_tE
00000000 W _ZN3ble9interface9LegacyGapINS_7generic10GenericGapINS_3pal6vendor6cordio3GapENS4_15SecurityManagerINS6_21CordioSecurityManagerINS2_22GenericSecurityManagerIS9_NS_6vendor6cordio19SigningEventMonitorEEEEESE_EESE_EEE29getPreferredConnectionParams_EPNSI_18ConnectionParams_tE
00000000 W _ZN3ble9interface9LegacyGapINS_7generic10GenericGapINS_3pal6vendor6cordio3GapENS4_15SecurityManagerINS6_21CordioSecurityManagerINS2_22GenericSecurityManagerIS9_NS_6vendor6cordio19SigningEventMonitorEEEEESE_EESE_EEE29setPreferredConnectionParams_EPKNSI_18ConnectionParams_tE
00000000 W _ZN3ble9interface9LegacyGapINS_7generic10GenericGapINS_3pal6vendor6cordio3GapENS4_15SecurityManagerINS6_21CordioSecurityManagerINS2_22GenericSecurityManagerIS9_NS_6vendor6cordio19SigningEventMonitorEEEEESE_EESE_EEE35accumulateAdvertisingPayloadTxPowerEa
00000000 W _ZN3ble9interface9LegacyGapINS_7generic10GenericGapINS_3pal6vendor6cordio3GapENS4_15SecurityManagerINS6_21CordioSecurityManagerINS2_22GenericSecurityManagerIS9_NS_6vendor6cordio19SigningEventMonitorEEEEESE_EESE_EEE5resetEv
00000000 W _ZN3ble9interface9LegacyGapINS_7generic10GenericGapINS_3pal6vendor6cordio3GapENS4_15SecurityManagerINS6_21CordioSecurityManagerINS2_22GenericSecurityManagerIS9_NS_6vendor6cordio19SigningEventMonitorEEEEESE_EESE_EEE6reset_Ev
00000000 W _ZN3ble9interface9LegacyGapINS_7generic10GenericGapINS_3pal6vendor6cordio3GapENS4_15SecurityManagerINS6_21CordioSecurityManagerINS2_22GenericSecurityManagerIS9_NS_6vendor6cordio19SigningEventMonitorEEEEESE_EESE_EEE7connectEPKhN11BLEProtocol11AddressType4TypeEPKNSI_18ConnectionParams_tEPK17GapScanningParams
00000000 W _ZN3ble9interface9LegacyGapINS_7generic10GenericGapINS_3pal6vendor6cordio3GapENS4_15SecurityManagerINS6_21CordioSecurityManagerINS2_22GenericSecurityManagerIS9_NS_6vendor6cordio19SigningEventMonitorEEEEESE_EESE_EEE7connectEPKhNS_19peer_address_type_tEPKNSI_18ConnectionParams_tEPK17GapScanningParams
00000000 W _ZN3ble9interface9LegacyGapINS_7generic10GenericGapINS_3pal6vendor6cordio3GapENS4_15SecurityManagerINS6_21CordioSecurityManagerINS2_22GenericSecurityManagerIS9_NS_6vendor6cordio19SigningEventMonitorEEEEESE_EESE_EEE7connectEPKhNSI_23DeprecatedAddressType_tEPKNSI_18ConnectionParams_tEPK17GapScanningParams
00000000 W _ZN3ble9interface9LegacyGapINS_7generic10GenericGapINS_3pal6vendor6cordio3GapENS4_15SecurityManagerINS6_21CordioSecurityManagerINS2_22GenericSecurityManagerIS9_NS_6vendor6cordio19SigningEventMonitorEEEEESE_EESE_EEE8connect_EPKhN11BLEProtocol11AddressType4TypeEPKNSI_18ConnectionParams_tEPK17GapScanningParams
00000000 W _ZN3ble9interface9LegacyGapINS_7generic10GenericGapINS_3pal6vendor6cordio3GapENS4_15SecurityManagerINS6_21CordioSecurityManagerINS2_22GenericSecurityManagerIS9_NS_6vendor6cordio19SigningEventMonitorEEEEESE_EESE_EEE8connect_EPKhNS_19peer_address_type_tEPKNSI_18ConnectionParams_tEPK17GapScanningParams
00000000 W _ZN3ble9interface9LegacyGapINS_7generic10GenericGapINS_3pal6vendor6cordio3GapENS4_15SecurityManagerINS6_21CordioSecurityManagerINS2_22GenericSecurityManagerIS9_NS_6vendor6cordio19SigningEventMonitorEEEEESE_EESE_EEE9onTimeoutE26FunctionPointerWithContextINSI_15TimeoutSource_tEE
00000000 W _ZN3ble9interface9LegacyGapINS_7generic10GenericGapINS_3pal6vendor6cordio3GapENS4_15SecurityManagerINS6_21CordioSecurityManagerINS2_22GenericSecurityManagerIS9_NS_6vendor6cordio19SigningEventMonitorEEEEESE_EESE_EEE9onTimeoutEv
00000000 W _ZN3ble9interface9LegacyGapINS_7generic10GenericGapINS_3pal6vendor6cordio3GapENS4_15SecurityManagerINS6_21CordioSecurityManagerINS2_22GenericSecurityManagerIS9_NS_6vendor6cordio19SigningEventMonitorEEEEESE_EESE_EEE9startScanEPFvPKNSI_29AdvertisementCallbackParams_tEE
00000000 W _ZN3ble9interface9LegacyGapINS_7generic10GenericGapINS_3pal6vendor6cordio3GapENS4_15SecurityManagerINS6_21CordioSecurityManagerINS2_22GenericSecurityManagerIS9_NS_6vendor6cordio19SigningEventMonitorEEEEESE_EESE_EEEC1Ev
00000000 W _ZN3ble9interface9LegacyGapINS_7generic10GenericGapINS_3pal6vendor6cordio3GapENS4_15SecurityManagerINS6_21CordioSecurityManagerINS2_22GenericSecurityManagerIS9_NS_6vendor6cordio19SigningEventMonitorEEEEESE_EESE_EEEC2Ev
00000000 n _ZN3ble9interface9LegacyGapINS_7generic10GenericGapINS_3pal6vendor6cordio3GapENS4_15SecurityManagerINS6_21CordioSecurityManagerINS2_22GenericSecurityManagerIS9_NS_6vendor6cordio19SigningEventMonitorEEEEESE_EESE_EEEC5Ev
00000000 t _ZN3ble9phy_set_t9set_codedEb.isra.12
00000000 W _ZN3bleeqERKNS_12byte_array_tILj6EEES3_
00000000 r _ZN3bleL25LEGACY_ADVERTISING_HANDLEE
         U _ZN4mbed10TimerEventD2Ev
00000000 W _ZN4mbed14LowPowerTickerC1Ev
00000000 W _ZN4mbed14LowPowerTickerC2Ev
00000000 n _ZN4mbed14LowPowerTickerC5Ev
00000000 W _ZN4mbed14LowPowerTickerD0Ev
00000000 W _ZN4mbed14LowPowerTickerD1Ev
00000000 W _ZN4mbed14LowPowerTickerD2Ev
00000000 n _ZN4mbed14LowPowerTickerD5Ev
00000000 W _ZN4mbed15LowPowerTimeout7handlerEv
00000000 W _ZN4mbed15LowPowerTimeoutD0Ev
00000000 W _ZN4mbed15LowPowerTimeoutD1Ev
00000000 W _ZN4mbed15LowPowerTimeoutD2Ev
00000000 n _ZN4mbed15LowPowerTimeoutD5Ev
00000000 W _ZN4mbed4SpanIKhLin1EEC1EPS1_i
00000000 W _ZN4mbed4SpanIKhLin1EEC2EPS1_i
00000000 n _ZN4mbed4SpanIKhLin1EEC5EPS1_i
         U _ZN4mbed6Ticker6detachEv
         U _ZN4mbed6Ticker7handlerEv
         U _ZN4mbed6Ticker9attach_usENS_8CallbackIFvvEEEy
         U _ZN4mbed6TickerC2EPK13ticker_data_t
00000000 W _ZN4mbed6TickerD0Ev
00000000 W _ZN4mbed6TickerD1Ev
00000000 W _ZN4mbed6TickerD2Ev
00000000 n _ZN4mbed6TickerD5Ev
00000000 W _ZN4mbed8CallbackIFvjEE13function_callINS2_14method_contextIN3ble3pal10GattClientINS6_28AttClientToGattClientAdapterINS6_6vendor6cordio15CordioAttClientENS5_7generic17GenericGattClientINSA_16CordioGattClientENSC_22GenericSecurityManagerINSA_21CordioSecurityManagerENS5_6vendor6cordio19SigningEventMonitorEEEEEEESL_EEMSN_FvjEEEEEvPKvj
00000000 W _ZN4mbed8CallbackIFvjEE13function_callINS2_14method_contextIN3ble7generic17GenericGattClientINS5_3pal6vendor6cordio16CordioGattClientENS6_22GenericSecurityManagerINSA_21CordioSecurityManagerENS5_6vendor6cordio19SigningEventMonitorEEEEEMSI_FvjEEEEEvPKvj
00000000 W _ZN4mbed8CallbackIFvjEE13function_dtorINS2_14method_contextIN3ble3pal10GattClientINS6_28AttClientToGattClientAdapterINS6_6vendor6cordio15CordioAttClientENS5_7generic17GenericGattClientINSA_16CordioGattClientENSC_22GenericSecurityManagerINSA_21CordioSecurityManagerENS5_6vendor6cordio19SigningEventMonitorEEEEEEESL_EEMSN_FvjEEEEEvPv
00000000 W _ZN4mbed8CallbackIFvjEE13function_dtorINS2_14method_contextIN3ble7generic17GenericGattClientINS5_3pal6vendor6cordio16CordioGattClientENS6_22GenericSecurityManagerINSA_21CordioSecurityManagerENS5_6vendor6cordio19SigningEventMonitorEEEEEMSI_FvjEEEEEvPv
00000000 W _ZN4mbed8CallbackIFvjEE13function_moveINS2_14method_contextIN3ble3pal10GattClientINS6_28AttClientToGattClientAdapterINS6_6vendor6cordio15CordioAttClientENS5_7generic17GenericGattClientINSA_16CordioGattClientENSC_22GenericSecurityManagerINSA_21CordioSecurityManagerENS5_6vendor6cordio19SigningEventMonitorEEEEEEESL_EEMSN_FvjEEEEEvPvPKv
00000000 W _ZN4mbed8CallbackIFvjEE13function_moveINS2_14method_contextIN3ble7generic17GenericGattClientINS5_3pal6vendor6cordio16CordioGattClientENS6_22GenericSecurityManagerINSA_21CordioSecurityManagerENS5_6vendor6cordio19SigningEventMonitorEEEEEMSI_FvjEEEEEvPvPKv
00000000 W _ZN4mbed8CallbackIFvjEEC1ERKS2_
00000000 W _ZN4mbed8CallbackIFvjEEC2ERKS2_
00000000 n _ZN4mbed8CallbackIFvjEEC5ERKS2_
00000000 W _ZN4mbed8CallbackIFvjEED1Ev
00000000 W _ZN4mbed8CallbackIFvjEED2Ev
00000000 n _ZN4mbed8CallbackIFvjEED5Ev
00000000 W _ZN4mbed8CallbackIFvjRKN3ble3pal16AttServerMessageEEE13function_callINS7_14method_contextINS1_7generic17GenericGattClientINS2_6vendor6cordio16CordioGattClientENSA_22GenericSecurityManagerINSD_21CordioSecurityManagerENS1_6vendor6cordio19SigningEventMonitorEEEEEMSL_FvjS5_EEEEEvPKvjS5_
00000000 W _ZN4mbed8CallbackIFvjRKN3ble3pal16AttServerMessageEEE13function_callINS7_14method_contextINS2_10GattClientINS2_28AttClientToGattClientAdapterINS2_6vendor6cordio15CordioAttClientENS1_7generic17GenericGattClientINSD_16CordioGattClientENSF_22GenericSecurityManagerINSD_21CordioSecurityManagerENS1_6vendor6cordio19SigningEventMonitorEEEEEEESO_EEMSQ_FvjS5_EEEEEvPKvjS5_
00000000 W _ZN4mbed8CallbackIFvjRKN3ble3pal16AttServerMessageEEE13function_dtorINS7_14method_contextINS1_7generic17GenericGattClientINS2_6vendor6cordio16CordioGattClientENSA_22GenericSecurityManagerINSD_21CordioSecurityManagerENS1_6vendor6cordio19SigningEventMonitorEEEEEMSL_FvjS5_EEEEEvPv
00000000 W _ZN4mbed8CallbackIFvjRKN3ble3pal16AttServerMessageEEE13function_dtorINS7_14method_contextINS2_10GattClientINS2_28AttClientToGattClientAdapterINS2_6vendor6cordio15CordioAttClientENS1_7generic17GenericGattClientINSD_16CordioGattClientENSF_22GenericSecurityManagerINSD_21CordioSecurityManagerENS1_6vendor6cordio19SigningEventMonitorEEEEEEESO_EEMSQ_FvjS5_EEEEEvPv
00000000 W _ZN4mbed8CallbackIFvjRKN3ble3pal16AttServerMessageEEE13function_moveINS7_14method_contextINS1_7generic17GenericGattClientINS2_6vendor6cordio16CordioGattClientENSA_22GenericSecurityManagerINSD_21CordioSecurityManagerENS1_6vendor6cordio19SigningEventMonitorEEEEEMSL_FvjS5_EEEEEvPvPKv
00000000 W _ZN4mbed8CallbackIFvjRKN3ble3pal16AttServerMessageEEE13function_moveINS7_14method_contextINS2_10GattClientINS2_28AttClientToGattClientAdapterINS2_6vendor6cordio15CordioAttClientENS1_7generic17GenericGattClientINSD_16CordioGattClientENSF_22GenericSecurityManagerINSD_21CordioSecurityManagerENS1_6vendor6cordio19SigningEventMonitorEEEEEEESO_EEMSQ_FvjS5_EEEEEvPvPKv
00000000 W _ZN4mbed8CallbackIFvjRKN3ble3pal16AttServerMessageEEEC1ERKS7_
00000000 W _ZN4mbed8CallbackIFvjRKN3ble3pal16AttServerMessageEEEC2ERKS7_
00000000 n _ZN4mbed8CallbackIFvjRKN3ble3pal16AttServerMessageEEEC5ERKS7_
00000000 W _ZN4mbed8CallbackIFvjRKN3ble3pal16AttServerMessageEEED1Ev
00000000 W _ZN4mbed8CallbackIFvjRKN3ble3pal16AttServerMessageEEED2Ev
00000000 n _ZN4mbed8CallbackIFvjRKN3ble3pal16AttServerMessageEEED5Ev
00000000 W _ZN4mbed8CallbackIFvPN3ble9interface9LegacyGapINS1_7generic10GenericGapINS1_3pal6vendor6cordio3GapENS6_15SecurityManagerINS8_21CordioSecurityManagerINS4_22GenericSecurityManagerISB_NS1_6vendor6cordio19SigningEventMonitorEEEEESG_EESG_EEE11Whitelist_tEEE13function_callINSO_14method_contextINS2_15SecurityManagerISG_E12EventHandlerEMST_FvSM_EEEEEvPKvSM_
00000000 W _ZN4mbed8CallbackIFvPN3ble9interface9LegacyGapINS1_7generic10GenericGapINS1_3pal6vendor6cordio3GapENS6_15SecurityManagerINS8_21CordioSecurityManagerINS4_22GenericSecurityManagerISB_NS1_6vendor6cordio19SigningEventMonitorEEEEESG_EESG_EEE11Whitelist_tEEE13function_dtorINSO_14method_contextINS2_15SecurityManagerISG_E12EventHandlerEMST_FvSM_EEEEEvPv
00000000 W _ZN4mbed8CallbackIFvPN3ble9interface9LegacyGapINS1_7generic10GenericGapINS1_3pal6vendor6cordio3GapENS6_15SecurityManagerINS8_21CordioSecurityManagerINS4_22GenericSecurityManagerISB_NS1_6vendor6cordio19SigningEventMonitorEEEEESG_EESG_EEE11Whitelist_tEEE13function_moveINSO_14method_contextINS2_15SecurityManagerISG_E12EventHandlerEMST_FvSM_EEEEEvPvPKv
00000000 W _ZN4mbed8CallbackIFvPvPKN3ble7generic19SecurityEntryKeys_tEEE13function_callINS8_14method_contextINS3_22GenericSecurityManagerINS2_3pal6vendor6cordio21CordioSecurityManagerENS2_6vendor6cordio19SigningEventMonitorEEEMSJ_FvS1_S6_EEEEEvPKvS1_S6_
00000000 W _ZN4mbed8CallbackIFvPvPKN3ble7generic19SecurityEntryKeys_tEEE13function_dtorINS8_14method_contextINS3_22GenericSecurityManagerINS2_3pal6vendor6cordio21CordioSecurityManagerENS2_6vendor6cordio19SigningEventMonitorEEEMSJ_FvS1_S6_EEEEEvS1_
00000000 W _ZN4mbed8CallbackIFvPvPKN3ble7generic19SecurityEntryKeys_tEEE13function_moveINS8_14method_contextINS3_22GenericSecurityManagerINS2_3pal6vendor6cordio21CordioSecurityManagerENS2_6vendor6cordio19SigningEventMonitorEEEMSJ_FvS1_S6_EEEEEvS1_PKv
00000000 W _ZN4mbed8CallbackIFvPvPKN3ble7generic19SecurityEntryKeys_tEEE8generateINS8_14method_contextINS3_22GenericSecurityManagerINS2_3pal6vendor6cordio21CordioSecurityManagerENS2_6vendor6cordio19SigningEventMonitorEEEMSJ_FvS1_S6_EEEEEvRKT_
00000000 W _ZN4mbed8CallbackIFvPvPKN3ble7generic19SecurityEntryKeys_tEEED1Ev
00000000 W _ZN4mbed8CallbackIFvPvPKN3ble7generic19SecurityEntryKeys_tEEED2Ev
00000000 n _ZN4mbed8CallbackIFvPvPKN3ble7generic19SecurityEntryKeys_tEEED5Ev
00000000 W _ZN4mbed8CallbackIFvPvPKN3ble7generic22SecurityEntrySigning_tEEE13function_callINS8_14method_contextINS3_22GenericSecurityManagerINS2_3pal6vendor6cordio21CordioSecurityManagerENS2_6vendor6cordio19SigningEventMonitorEEEMSJ_FvS1_S6_EEEEEvPKvS1_S6_
00000000 W _ZN4mbed8CallbackIFvPvPKN3ble7generic22SecurityEntrySigning_tEEE13function_dtorINS8_14method_contextINS3_22GenericSecurityManagerINS2_3pal6vendor6cordio21CordioSecurityManagerENS2_6vendor6cordio19SigningEventMonitorEEEMSJ_FvS1_S6_EEEEEvS1_
00000000 W _ZN4mbed8CallbackIFvPvPKN3ble7generic22SecurityEntrySigning_tEEE13function_moveINS8_14method_contextINS3_22GenericSecurityManagerINS2_3pal6vendor6cordio21CordioSecurityManagerENS2_6vendor6cordio19SigningEventMonitorEEEMSJ_FvS1_S6_EEEEEvS1_PKv
00000000 W _ZN4mbed8CallbackIFvPvPKN3ble7generic22SecurityEntrySigning_tEEEC1INS3_22GenericSecurityManagerINS2_3pal6vendor6cordio21CordioSecurityManagerENS2_6vendor6cordio19SigningEventMonitorEEESI_EEPT0_MT_FvS1_S6_E
00000000 W _ZN4mbed8CallbackIFvPvPKN3ble7generic22SecurityEntrySigning_tEEEC2INS3_22GenericSecurityManagerINS2_3pal6vendor6cordio21CordioSecurityManagerENS2_6vendor6cordio19SigningEventMonitorEEESI_EEPT0_MT_FvS1_S6_E
00000000 n _ZN4mbed8CallbackIFvPvPKN3ble7generic22SecurityEntrySigning_tEEEC5INS3_22GenericSecurityManagerINS2_3pal6vendor6cordio21CordioSecurityManagerENS2_6vendor6cordio19SigningEventMonitorEEESI_EEPT0_MT_FvS1_S6_E
00000000 W _ZN4mbed8CallbackIFvPvPKN3ble7generic22SecurityEntrySigning_tEEED1Ev
00000000 W _ZN4mbed8CallbackIFvPvPKN3ble7generic22SecurityEntrySigning_tEEED2Ev
00000000 n _ZN4mbed8CallbackIFvPvPKN3ble7generic22SecurityEntrySigning_tEEED5Ev
00000000 W _ZN4mbed8CallbackIFvPvPKN3ble7generic23SecurityEntryIdentity_tEEE13function_callINS8_14method_contextINS3_22GenericSecurityManagerINS2_3pal6vendor6cordio21CordioSecurityManagerENS2_6vendor6cordio19SigningEventMonitorEEEMSJ_FvS1_S6_EEEEEvPKvS1_S6_
00000000 W _ZN4mbed8CallbackIFvPvPKN3ble7generic23SecurityEntryIdentity_tEEE13function_dtorINS8_14method_contextINS3_22GenericSecurityManagerINS2_3pal6vendor6cordio21CordioSecurityManagerENS2_6vendor6cordio19SigningEventMonitorEEEMSJ_FvS1_S6_EEEEEvS1_
00000000 W _ZN4mbed8CallbackIFvPvPKN3ble7generic23SecurityEntryIdentity_tEEE13function_moveINS8_14method_contextINS3_22GenericSecurityManagerINS2_3pal6vendor6cordio21CordioSecurityManagerENS2_6vendor6cordio19SigningEventMonitorEEEMSJ_FvS1_S6_EEEEEvS1_PKv
00000000 W _ZN4mbed8CallbackIFvRKN3ble3pal8GapEventEEE13function_callINS7_14method_contextINS1_7generic10GenericGapINS2_6vendor6cordio3GapENS2_15SecurityManagerINSD_21CordioSecurityManagerINSA_22GenericSecurityManagerISG_NS1_6vendor6cordio19SigningEventMonitorEEEEESL_EESL_EEMSO_FvS5_EEEEEvPKvS5_
00000000 W _ZN4mbed8CallbackIFvRKN3ble3pal8GapEventEEE13function_dtorINS7_14method_contextINS1_7generic10GenericGapINS2_6vendor6cordio3GapENS2_15SecurityManagerINSD_21CordioSecurityManagerINSA_22GenericSecurityManagerISG_NS1_6vendor6cordio19SigningEventMonitorEEEEESL_EESL_EEMSO_FvS5_EEEEEvPv
00000000 W _ZN4mbed8CallbackIFvRKN3ble3pal8GapEventEEE13function_moveINS7_14method_contextINS1_7generic10GenericGapINS2_6vendor6cordio3GapENS2_15SecurityManagerINSD_21CordioSecurityManagerINSA_22GenericSecurityManagerISG_NS1_6vendor6cordio19SigningEventMonitorEEEEESL_EESL_EEMSO_FvS5_EEEEEvPvPKv
00000000 W _ZN4mbed8CallbackIFvRKN3ble3pal8GapEventEEED1Ev
00000000 W _ZN4mbed8CallbackIFvRKN3ble3pal8GapEventEEED2Ev
00000000 n _ZN4mbed8CallbackIFvRKN3ble3pal8GapEventEEED5Ev
00000000 W _ZN4mbed8CallbackIFvRNS_4SpanIN3ble7generic23SecurityEntryIdentity_tELin1EEEjEE13function_callINS8_14method_contextINS3_22GenericSecurityManagerINS2_3pal6vendor6cordio21CordioSecurityManagerENS2_6vendor6cordio19SigningEventMonitorEEEMSJ_FvS6_jEEEEEvPKvS6_j
00000000 W _ZN4mbed8CallbackIFvRNS_4SpanIN3ble7generic23SecurityEntryIdentity_tELin1EEEjEE13function_dtorINS8_14method_contextINS3_22GenericSecurityManagerINS2_3pal6vendor6cordio21CordioSecurityManagerENS2_6vendor6cordio19SigningEventMonitorEEEMSJ_FvS6_jEEEEEvPv
00000000 W _ZN4mbed8CallbackIFvRNS_4SpanIN3ble7generic23SecurityEntryIdentity_tELin1EEEjEE13function_moveINS8_14method_contextINS3_22GenericSecurityManagerINS2_3pal6vendor6cordio21CordioSecurityManagerENS2_6vendor6cordio19SigningEventMonitorEEEMSJ_FvS6_jEEEEEvPvPKv
00000000 W _ZN4mbed8CallbackIFvvEE13function_callINS2_14method_contextIN3ble7generic10GenericGapINS5_3pal6vendor6cordio3GapENS8_15SecurityManagerINSA_21CordioSecurityManagerINS6_22GenericSecurityManagerISD_NS5_6vendor6cordio19SigningEventMonitorEEEEESI_EESI_EEMSL_FvvEEEEEvPKv
00000000 W _ZN4mbed8CallbackIFvvEE13function_dtorINS2_14method_contextIN3ble7generic10GenericGapINS5_3pal6vendor6cordio3GapENS8_15SecurityManagerINSA_21CordioSecurityManagerINS6_22GenericSecurityManagerISD_NS5_6vendor6cordio19SigningEventMonitorEEEEESI_EESI_EEMSL_FvvEEEEEvPv
00000000 W _ZN4mbed8CallbackIFvvEE13function_moveINS2_14method_contextIN3ble7generic10GenericGapINS5_3pal6vendor6cordio3GapENS8_15SecurityManagerINSA_21CordioSecurityManagerINS6_22GenericSecurityManagerISD_NS5_6vendor6cordio19SigningEventMonitorEEEEESI_EESI_EEMSL_FvvEEEEEvPvPKv
00000000 W _ZN4mbed8CallbackIFvvEE8generateINS2_14method_contextIN3ble7generic10GenericGapINS5_3pal6vendor6cordio3GapENS8_15SecurityManagerINSA_21CordioSecurityManagerINS6_22GenericSecurityManagerISD_NS5_6vendor6cordio19SigningEventMonitorEEEEESI_EESI_EEMSL_FvvEEEEEvRKT_
00000000 W _ZN4mbed8CallbackIFvvEED1Ev
00000000 W _ZN4mbed8CallbackIFvvEED2Ev
00000000 n _ZN4mbed8CallbackIFvvEED5Ev
00000000 W _ZN4UUIDC1EPKhNS_11ByteOrder_tE
00000000 W _ZN4UUIDC1ERKS_
00000000 W _ZN4UUIDC1Et
00000000 W _ZN4UUIDC2EPKhNS_11ByteOrder_tE
00000000 W _ZN4UUIDC2ERKS_
00000000 W _ZN4UUIDC2Et
00000000 n _ZN4UUIDC5EPKhNS_11ByteOrder_tE
00000000 n _ZN4UUIDC5ERKS_
00000000 n _ZN4UUIDC5Et
         U _Znaj
         U _ZnajRKSt9nothrow_t
00000000 W _ZNK26FunctionPointerWithContextIPK17DiscoveredServiceE4callES2_
00000000 W _ZNK38CallChainOfFunctionPointersWithContextIPK22GattReadCallbackParamsE4callES2_
00000000 W _ZNK38CallChainOfFunctionPointersWithContextIPK23GattWriteCallbackParamsE4callES2_
00000000 W _ZNK38CallChainOfFunctionPointersWithContextIPKN3ble9interface9LegacyGapINS0_7generic10GenericGapINS0_3pal6vendor6cordio3GapENS5_15SecurityManagerINS7_21CordioSecurityManagerINS3_22GenericSecurityManagerISA_NS0_6vendor6cordio19SigningEventMonitorEEEEESF_EESF_EEE26ConnectionCallbackParams_tEE4callESM_
00000000 W _ZNK3ble20ConnectionParameters20getFirstEnabledIndexEv
00000000 W _ZNK3ble20ConnectionParameters9getPhySetEv
00000000 W _ZNK3ble3pal6vendor6cordio21CordioSecurityManagerINS_7generic22GenericSecurityManagerIS3_NS_6vendor6cordio19SigningEventMonitorEEEE19PrivacyControlBlock4nextEv
00000000 W _ZNK3ble3pal6vendor6cordio3GapINS_7generic10GenericGapIS3_NS0_15SecurityManagerINS2_21CordioSecurityManagerINS4_22GenericSecurityManagerIS7_NS_6vendor6cordio19SigningEventMonitorEEEEESC_EESC_EEE36GapAdvertisingReportMessageConverter31CordioGapAdvertisingReportEvent4sizeEv
00000000 W _ZNK3ble3pal6vendor6cordio3GapINS_7generic10GenericGapIS3_NS0_15SecurityManagerINS2_21CordioSecurityManagerINS4_22GenericSecurityManagerIS7_NS_6vendor6cordio19SigningEventMonitorEEEEESC_EESC_EEE36GapAdvertisingReportMessageConverter31CordioGapAdvertisingReportEventixEh
00000000 W _ZNK3ble7generic10GenericGapINS_3pal6vendor6cordio3GapENS2_15SecurityManagerINS4_21CordioSecurityManagerINS0_22GenericSecurityManagerIS7_NS_6vendor6cordio19SigningEventMonitorEEEEESC_EESC_E13getWhitelist_ERNS_9interface9LegacyGapISF_E11Whitelist_tE
00000000 W _ZNK3ble7generic10GenericGapINS_3pal6vendor6cordio3GapENS2_15SecurityManagerINS4_21CordioSecurityManagerINS0_22GenericSecurityManagerIS7_NS_6vendor6cordio19SigningEventMonitorEEEEESC_EESC_E17useVersionOneAPI_Ev
00000000 W _ZNK3ble7generic10GenericGapINS_3pal6vendor6cordio3GapENS2_15SecurityManagerINS4_21CordioSecurityManagerINS0_22GenericSecurityManagerIS7_NS_6vendor6cordio19SigningEventMonitorEEEEESC_EESC_E17useVersionTwoAPI_Ev
00000000 W _ZNK3ble7generic10GenericGapINS_3pal6vendor6cordio3GapENS2_15SecurityManagerINS4_21CordioSecurityManagerINS0_22GenericSecurityManagerIS7_NS_6vendor6cordio19SigningEventMonitorEEEEESC_EESC_E20getMaxWhitelistSize_Ev
00000000 W _ZNK3ble7generic10GenericGapINS_3pal6vendor6cordio3GapENS2_15SecurityManagerINS4_21CordioSecurityManagerINS0_22GenericSecurityManagerIS7_NS_6vendor6cordio19SigningEventMonitorEEEEESC_EESC_E20initialize_whitelistEv
00000000 W _ZNK3ble7generic10GenericGapINS_3pal6vendor6cordio3GapENS2_15SecurityManagerINS4_21CordioSecurityManagerINS0_22GenericSecurityManagerIS7_NS_6vendor6cordio19SigningEventMonitorEEEEESC_EESC_E22getScanningPolicyMode_Ev
00000000 W _ZNK3ble7generic10GenericGapINS_3pal6vendor6cordio3GapENS2_15SecurityManagerINS4_21CordioSecurityManagerINS0_22GenericSecurityManagerIS7_NS_6vendor6cordio19SigningEventMonitorEEEEESC_EESC_E23getInitiatorPolicyMode_Ev
00000000 W _ZNK3ble7generic10GenericGapINS_3pal6vendor6cordio3GapENS2_15SecurityManagerINS4_21CordioSecurityManagerINS0_22GenericSecurityManagerIS7_NS_6vendor6cordio19SigningEventMonitorEEEEESC_EESC_E25getAdvertisingPolicyMode_Ev
00000000 W _ZNK3ble7generic10GenericGapINS_3pal6vendor6cordio3GapENS2_15SecurityManagerINS4_21CordioSecurityManagerINS0_22GenericSecurityManagerIS7_NS_6vendor6cordio19SigningEventMonitorEEEEESC_EESC_E26getMaxAdvertisingInterval_Ev
00000000 W _ZNK3ble7generic10GenericGapINS_3pal6vendor6cordio3GapENS2_15SecurityManagerINS4_21CordioSecurityManagerINS0_22GenericSecurityManagerIS7_NS_6vendor6cordio19SigningEventMonitorEEEEESC_EESC_E26getMinAdvertisingInterval_Ev
00000000 W _ZNK3ble7generic10GenericGapINS_3pal6vendor6cordio3GapENS2_15SecurityManagerINS4_21CordioSecurityManagerINS0_22GenericSecurityManagerIS7_NS_6vendor6cordio19SigningEventMonitorEEEEESC_EESC_E40getMinNonConnectableAdvertisingInterval_Ev
00000000 W _ZNK3ble7generic10GenericGapINS_3pal6vendor6cordio3GapENS2_15SecurityManagerINS4_21CordioSecurityManagerINS0_22GenericSecurityManagerIS7_NS_6vendor6cordio19SigningEventMonitorEEEEESC_EESC_E8BitArrayILj15EE3getEj
00000000 W _ZNK3ble7generic17GenericGattClientINS_3pal6vendor6cordio16CordioGattClientENS0_22GenericSecurityManagerINS4_21CordioSecurityManagerENS_6vendor6cordio19SigningEventMonitorEEEE17get_control_blockEj
00000000 W _ZNK3ble7generic17GenericGattClientINS_3pal6vendor6cordio16CordioGattClientENS0_22GenericSecurityManagerINS4_21CordioSecurityManagerENS_6vendor6cordio19SigningEventMonitorEEEE20insert_control_blockEPNSC_21ProcedureControlBlockE
00000000 W _ZNK3ble7generic17GenericGattClientINS_3pal6vendor6cordio16CordioGattClientENS0_22GenericSecurityManagerINS4_21CordioSecurityManagerENS_6vendor6cordio19SigningEventMonitorEEEE20remove_control_blockEPNSC_21ProcedureControlBlockE
00000000 W _ZNK3ble7generic17GenericGattClientINS_3pal6vendor6cordio16CordioGattClientENS0_22GenericSecurityManagerINS4_21CordioSecurityManagerENS_6vendor6cordio19SigningEventMonitorEEEE21DiscoveryControlBlock16characteristic_t8is_validEv
00000000 W _ZNK3ble7generic17GenericGattClientINS_3pal6vendor6cordio16CordioGattClientENS0_22GenericSecurityManagerINS4_21CordioSecurityManagerENS_6vendor6cordio19SigningEventMonitorEEEE25isServiceDiscoveryActive_Ev
00000000 W _ZNK3ble7generic17GenericGattClientINS_3pal6vendor6cordio16CordioGattClientENS0_22GenericSecurityManagerINS4_21CordioSecurityManagerENS_6vendor6cordio19SigningEventMonitorEEEE42isCharacteristicDescriptorDiscoveryActive_ERK24DiscoveredCharacteristic
00000000 W _ZNK3ble7generic17GenericGattClientINS_3pal6vendor6cordio16CordioGattClientENS0_22GenericSecurityManagerINS4_21CordioSecurityManagerENS_6vendor6cordio19SigningEventMonitorEEEE5read_Ejtt
00000000 W _ZNK3ble7generic17GenericGattClientINS_3pal6vendor6cordio16CordioGattClientENS0_22GenericSecurityManagerINS4_21CordioSecurityManagerENS_6vendor6cordio19SigningEventMonitorEEEE6write_ENS_9interface10GattClientISC_E9WriteOp_tEjtjPKh
00000000 W _ZNK3ble7generic17GenericGattClientINS_3pal6vendor6cordio16CordioGattClientENS0_22GenericSecurityManagerINS4_21CordioSecurityManagerENS_6vendor6cordio19SigningEventMonitorEEEE7get_mtuEj
00000000 W _ZNK3ble7generic22GenericSecurityManagerINS_3pal6vendor6cordio21CordioSecurityManagerENS_6vendor6cordio19SigningEventMonitorEE31generateWhitelistFromBondTable_EPNS_9interface9LegacyGapINS0_10GenericGapINS4_3GapENS2_15SecurityManagerINS5_IS9_EES9_EES9_EEE11Whitelist_tE
00000000 W _ZNK3ble9interface10GattClientINS_7generic17GenericGattClientINS_3pal6vendor6cordio16CordioGattClientENS2_22GenericSecurityManagerINS6_21CordioSecurityManagerENS_6vendor6cordio19SigningEventMonitorEEEEEE24isServiceDiscoveryActiveEv
00000000 W _ZNK3ble9interface10GattClientINS_7generic17GenericGattClientINS_3pal6vendor6cordio16CordioGattClientENS2_22GenericSecurityManagerINS6_21CordioSecurityManagerENS_6vendor6cordio19SigningEventMonitorEEEEEE25isServiceDiscoveryActive_Ev
00000000 W _ZNK3ble9interface10GattClientINS_7generic17GenericGattClientINS_3pal6vendor6cordio16CordioGattClientENS2_22GenericSecurityManagerINS6_21CordioSecurityManagerENS_6vendor6cordio19SigningEventMonitorEEEEEE41isCharacteristicDescriptorDiscoveryActiveERK24DiscoveredCharacteristic
00000000 W _ZNK3ble9interface10GattClientINS_7generic17GenericGattClientINS_3pal6vendor6cordio16CordioGattClientENS2_22GenericSecurityManagerINS6_21CordioSecurityManagerENS_6vendor6cordio19SigningEventMonitorEEEEEE42isCharacteristicDescriptorDiscoveryActive_ERK24DiscoveredCharacteristic
00000000 W _ZNK3ble9interface10GattClientINS_7generic17GenericGattClientINS_3pal6vendor6cordio16CordioGattClientENS2_22GenericSecurityManagerINS6_21CordioSecurityManagerENS_6vendor6cordio19SigningEventMonitorEEEEEE4readEjtt
00000000 W _ZNK3ble9interface10GattClientINS_7generic17GenericGattClientINS_3pal6vendor6cordio16CordioGattClientENS2_22GenericSecurityManagerINS6_21CordioSecurityManagerENS_6vendor6cordio19SigningEventMonitorEEEEEE5read_Ejtt
00000000 W _ZNK3ble9interface10GattClientINS_7generic17GenericGattClientINS_3pal6vendor6cordio16CordioGattClientENS2_22GenericSecurityManagerINS6_21CordioSecurityManagerENS_6vendor6cordio19SigningEventMonitorEEEEEE5writeENSF_9WriteOp_tEjtjPKh
00000000 W _ZNK3ble9interface10GattClientINS_7generic17GenericGattClientINS_3pal6vendor6cordio16CordioGattClientENS2_22GenericSecurityManagerINS6_21CordioSecurityManagerENS_6vendor6cordio19SigningEventMonitorEEEEEE6write_ENSF_9WriteOp_tEjtjPKh
00000000 W _ZNK3ble9interface15SecurityManagerINS_7generic22GenericSecurityManagerINS_3pal6vendor6cordio21CordioSecurityManagerENS_6vendor6cordio19SigningEventMonitorEEEE25getAddressesFromBondTableERNS0_9LegacyGapINS2_10GenericGapINS6_3GapENS4_15SecurityManagerINS7_ISB_EESB_EESB_EEE11Whitelist_tE
00000000 W _ZNK3ble9interface15SecurityManagerINS_7generic22GenericSecurityManagerINS_3pal6vendor6cordio21CordioSecurityManagerENS_6vendor6cordio19SigningEventMonitorEEEE26getAddressesFromBondTable_ERNS0_9LegacyGapINS2_10GenericGapINS6_3GapENS4_15SecurityManagerINS7_ISB_EESB_EESB_EEE11Whitelist_tE
00000000 W _ZNK3ble9interface15SecurityManagerINS_7generic22GenericSecurityManagerINS_3pal6vendor6cordio21CordioSecurityManagerENS_6vendor6cordio19SigningEventMonitorEEEE30generateWhitelistFromBondTableEPNS0_9LegacyGapINS2_10GenericGapINS6_3GapENS4_15SecurityManagerINS7_ISB_EESB_EESB_EEE11Whitelist_tE
00000000 W _ZNK3ble9interface15SecurityManagerINS_7generic22GenericSecurityManagerINS_3pal6vendor6cordio21CordioSecurityManagerENS_6vendor6cordio19SigningEventMonitorEEEE31generateWhitelistFromBondTable_EPNS0_9LegacyGapINS2_10GenericGapINS6_3GapENS4_15SecurityManagerINS7_ISB_EESB_EESB_EEE11Whitelist_tE
00000000 W _ZNK3ble9interface3GapINS_7generic10GenericGapINS_3pal6vendor6cordio3GapENS4_15SecurityManagerINS6_21CordioSecurityManagerINS2_22GenericSecurityManagerIS9_NS_6vendor6cordio19SigningEventMonitorEEEEESE_EESE_EEE16useVersionOneAPIEv
00000000 W _ZNK3ble9interface3GapINS_7generic10GenericGapINS_3pal6vendor6cordio3GapENS4_15SecurityManagerINS6_21CordioSecurityManagerINS2_22GenericSecurityManagerIS9_NS_6vendor6cordio19SigningEventMonitorEEEEESE_EESE_EEE16useVersionTwoAPIEv
00000000 W _ZNK3ble9interface3GapINS_7generic10GenericGapINS_3pal6vendor6cordio3GapENS4_15SecurityManagerINS6_21CordioSecurityManagerINS2_22GenericSecurityManagerIS9_NS_6vendor6cordio19SigningEventMonitorEEEEESE_EESE_EEE17useVersionOneAPI_Ev
00000000 W _ZNK3ble9interface3GapINS_7generic10GenericGapINS_3pal6vendor6cordio3GapENS4_15SecurityManagerINS6_21CordioSecurityManagerINS2_22GenericSecurityManagerIS9_NS_6vendor6cordio19SigningEventMonitorEEEEESE_EESE_EEE17useVersionTwoAPI_Ev
00000000 W _ZNK3ble9interface9LegacyGapINS_7generic10GenericGapINS_3pal6vendor6cordio3GapENS4_15SecurityManagerINS6_21CordioSecurityManagerINS2_22GenericSecurityManagerIS9_NS_6vendor6cordio19SigningEventMonitorEEEEESE_EESE_EEE12getWhitelistERNSI_11Whitelist_tE
00000000 W _ZNK3ble9interface9LegacyGapINS_7generic10GenericGapINS_3pal6vendor6cordio3GapENS4_15SecurityManagerINS6_21CordioSecurityManagerINS2_22GenericSecurityManagerIS9_NS_6vendor6cordio19SigningEventMonitorEEEEESE_EESE_EEE13getWhitelist_ERNSI_11Whitelist_tE
00000000 W _ZNK3ble9interface9LegacyGapINS_7generic10GenericGapINS_3pal6vendor6cordio3GapENS4_15SecurityManagerINS6_21CordioSecurityManagerINS2_22GenericSecurityManagerIS9_NS_6vendor6cordio19SigningEventMonitorEEEEESE_EESE_EEE19getMaxWhitelistSizeEv
00000000 W _ZNK3ble9interface9LegacyGapINS_7generic10GenericGapINS_3pal6vendor6cordio3GapENS4_15SecurityManagerINS6_21CordioSecurityManagerINS2_22GenericSecurityManagerIS9_NS_6vendor6cordio19SigningEventMonitorEEEEESE_EESE_EEE20getAdvertisingParamsEv
00000000 W _ZNK3ble9interface9LegacyGapINS_7generic10GenericGapINS_3pal6vendor6cordio3GapENS4_15SecurityManagerINS6_21CordioSecurityManagerINS2_22GenericSecurityManagerIS9_NS_6vendor6cordio19SigningEventMonitorEEEEESE_EESE_EEE20getMaxWhitelistSize_Ev
00000000 W _ZNK3ble9interface9LegacyGapINS_7generic10GenericGapINS_3pal6vendor6cordio3GapENS4_15SecurityManagerINS6_21CordioSecurityManagerINS2_22GenericSecurityManagerIS9_NS_6vendor6cordio19SigningEventMonitorEEEEESE_EESE_EEE21getAdvertisingPayloadEv
00000000 W _ZNK3ble9interface9LegacyGapINS_7generic10GenericGapINS_3pal6vendor6cordio3GapENS4_15SecurityManagerINS6_21CordioSecurityManagerINS2_22GenericSecurityManagerIS9_NS_6vendor6cordio19SigningEventMonitorEEEEESE_EESE_EEE21getScanningPolicyModeEv
00000000 W _ZNK3ble9interface9LegacyGapINS_7generic10GenericGapINS_3pal6vendor6cordio3GapENS4_15SecurityManagerINS6_21CordioSecurityManagerINS2_22GenericSecurityManagerIS9_NS_6vendor6cordio19SigningEventMonitorEEEEESE_EESE_EEE22getInitiatorPolicyModeEv
00000000 W _ZNK3ble9interface9LegacyGapINS_7generic10GenericGapINS_3pal6vendor6cordio3GapENS4_15SecurityManagerINS6_21CordioSecurityManagerINS2_22GenericSecurityManagerIS9_NS_6vendor6cordio19SigningEventMonitorEEEEESE_EESE_EEE22getScanningPolicyMode_Ev
00000000 W _ZNK3ble9interface9LegacyGapINS_7generic10GenericGapINS_3pal6vendor6cordio3GapENS4_15SecurityManagerINS6_21CordioSecurityManagerINS2_22GenericSecurityManagerIS9_NS_6vendor6cordio19SigningEventMonitorEEEEESE_EESE_EEE23getInitiatorPolicyMode_Ev
00000000 W _ZNK3ble9interface9LegacyGapINS_7generic10GenericGapINS_3pal6vendor6cordio3GapENS4_15SecurityManagerINS6_21CordioSecurityManagerINS2_22GenericSecurityManagerIS9_NS_6vendor6cordio19SigningEventMonitorEEEEESE_EESE_EEE24getAdvertisingPolicyModeEv
00000000 W _ZNK3ble9interface9LegacyGapINS_7generic10GenericGapINS_3pal6vendor6cordio3GapENS4_15SecurityManagerINS6_21CordioSecurityManagerINS2_22GenericSecurityManagerIS9_NS_6vendor6cordio19SigningEventMonitorEEEEESE_EESE_EEE25getAdvertisingPolicyMode_Ev
00000000 W _ZNK3ble9interface9LegacyGapINS_7generic10GenericGapINS_3pal6vendor6cordio3GapENS4_15SecurityManagerINS6_21CordioSecurityManagerINS2_22GenericSecurityManagerIS9_NS_6vendor6cordio19SigningEventMonitorEEEEESE_EESE_EEE25getMaxAdvertisingIntervalEv
00000000 W _ZNK3ble9interface9LegacyGapINS_7generic10GenericGapINS_3pal6vendor6cordio3GapENS4_15SecurityManagerINS6_21CordioSecurityManagerINS2_22GenericSecurityManagerIS9_NS_6vendor6cordio19SigningEventMonitorEEEEESE_EESE_EEE25getMinAdvertisingIntervalEv
00000000 W _ZNK3ble9interface9LegacyGapINS_7generic10GenericGapINS_3pal6vendor6cordio3GapENS4_15SecurityManagerINS6_21CordioSecurityManagerINS2_22GenericSecurityManagerIS9_NS_6vendor6cordio19SigningEventMonitorEEEEESE_EESE_EEE26getMaxAdvertisingInterval_Ev
00000000 W _ZNK3ble9interface9LegacyGapINS_7generic10GenericGapINS_3pal6vendor6cordio3GapENS4_15SecurityManagerINS6_21CordioSecurityManagerINS2_22GenericSecurityManagerIS9_NS_6vendor6cordio19SigningEventMonitorEEEEESE_EESE_EEE26getMinAdvertisingInterval_Ev
00000000 W _ZNK3ble9interface9LegacyGapINS_7generic10GenericGapINS_3pal6vendor6cordio3GapENS4_15SecurityManagerINS6_21CordioSecurityManagerINS2_22GenericSecurityManagerIS9_NS_6vendor6cordio19SigningEventMonitorEEEEESE_EESE_EEE39getMinNonConnectableAdvertisingIntervalEv
00000000 W _ZNK3ble9interface9LegacyGapINS_7generic10GenericGapINS_3pal6vendor6cordio3GapENS4_15SecurityManagerINS6_21CordioSecurityManagerINS2_22GenericSecurityManagerIS9_NS_6vendor6cordio19SigningEventMonitorEEEEESE_EESE_EEE40getMinNonConnectableAdvertisingInterval_Ev
00000000 W _ZNK3ble9interface9LegacyGapINS_7generic10GenericGapINS_3pal6vendor6cordio3GapENS4_15SecurityManagerINS6_21CordioSecurityManagerINS2_22GenericSecurityManagerIS9_NS_6vendor6cordio19SigningEventMonitorEEEEESE_EESE_EEE8getStateEv
00000000 W _ZNK3ble9phy_set_t5countEv
00000000 W _ZNK4mbed4SpanIKhLin1EE7subspanEii
00000000 W _ZNK4mbed8CallbackIFvPN3ble9interface9LegacyGapINS1_7generic10GenericGapINS1_3pal6vendor6cordio3GapENS6_15SecurityManagerINS8_21CordioSecurityManagerINS4_22GenericSecurityManagerISB_NS1_6vendor6cordio19SigningEventMonitorEEEEESG_EESG_EEE11Whitelist_tEEE4callESM_
00000000 W _ZNK4mbed8CallbackIFvPvPKN3ble7generic19SecurityEntryKeys_tEEE4callES1_S6_
00000000 W _ZNK4mbed8CallbackIFvPvPKN3ble7generic23SecurityEntryIdentity_tEEE4callES1_S6_
00000000 W _ZNK4UUIDeqERKS_
00000000 W _ZNK9SafeBool_4base7trueTagEv
         U _Znwj
         U _ZnwjRKSt9nothrow_t
         U _ZSt7nothrow
00000000 V _ZTV38CallChainOfFunctionPointersWithContextIN3ble9interface9LegacyGapINS0_7generic10GenericGapINS0_3pal6vendor6cordio3GapENS5_15SecurityManagerINS7_21CordioSecurityManagerINS3_22GenericSecurityManagerISA_NS0_6vendor6cordio19SigningEventMonitorEEEEESF_EESF_EEE15TimeoutSource_tEE
00000000 V _ZTV38CallChainOfFunctionPointersWithContextIPK21GattHVXCallbackParamsE
00000000 V _ZTV38CallChainOfFunctionPointersWithContextIPK22GattReadCallbackParamsE
00000000 V _ZTV38CallChainOfFunctionPointersWithContextIPK23GattWriteCallbackParamsE
00000000 V _ZTV38CallChainOfFunctionPointersWithContextIPKN3ble9interface10GattClientINS0_7generic17GenericGattClientINS0_3pal6vendor6cordio16CordioGattClientENS3_22GenericSecurityManagerINS7_21CordioSecurityManagerENS0_6vendor6cordio19SigningEventMonitorEEEEEEEE
00000000 V _ZTV38CallChainOfFunctionPointersWithContextIPKN3ble9interface15SecurityManagerINS0_7generic22GenericSecurityManagerINS0_3pal6vendor6cordio21CordioSecurityManagerENS0_6vendor6cordio19SigningEventMonitorEEEEEE
00000000 V _ZTV38CallChainOfFunctionPointersWithContextIPKN3ble9interface9LegacyGapINS0_7generic10GenericGapINS0_3pal6vendor6cordio3GapENS5_15SecurityManagerINS7_21CordioSecurityManagerINS3_22GenericSecurityManagerISA_NS0_6vendor6cordio19SigningEventMonitorEEEEESF_EESF_EEE26ConnectionCallbackParams_tEE
00000000 V _ZTV38CallChainOfFunctionPointersWithContextIPKN3ble9interface9LegacyGapINS0_7generic10GenericGapINS0_3pal6vendor6cordio3GapENS5_15SecurityManagerINS7_21CordioSecurityManagerINS3_22GenericSecurityManagerISA_NS0_6vendor6cordio19SigningEventMonitorEEEEESF_EESF_EEE29DisconnectionCallbackParams_tEE
00000000 V _ZTV38CallChainOfFunctionPointersWithContextIPKN3ble9interface9LegacyGapINS0_7generic10GenericGapINS0_3pal6vendor6cordio3GapENS5_15SecurityManagerINS7_21CordioSecurityManagerINS3_22GenericSecurityManagerISA_NS0_6vendor6cordio19SigningEventMonitorEEEEESF_EESF_EEEEE
00000000 V _ZTVN3ble3pal6vendor6cordio21CordioSecurityManagerINS_7generic22GenericSecurityManagerIS3_NS_6vendor6cordio19SigningEventMonitorEEEE19PrivacyControlBlockE
00000000 V _ZTVN3ble3pal6vendor6cordio21CordioSecurityManagerINS_7generic22GenericSecurityManagerIS3_NS_6vendor6cordio19SigningEventMonitorEEEE31PrivacyClearResListControlBlockE
00000000 V _ZTVN3ble3pal6vendor6cordio21CordioSecurityManagerINS_7generic22GenericSecurityManagerIS3_NS_6vendor6cordio19SigningEventMonitorEEEE34PrivacyAddDevToResListControlBlockE
00000000 V _ZTVN3ble3pal6vendor6cordio21CordioSecurityManagerINS_7generic22GenericSecurityManagerIS3_NS_6vendor6cordio19SigningEventMonitorEEEE39PrivacyRemoveDevFromResListControlBlockE
00000000 V _ZTVN3ble3pal6vendor6cordio3GapINS_7generic10GenericGapIS3_NS0_15SecurityManagerINS2_21CordioSecurityManagerINS4_22GenericSecurityManagerIS7_NS_6vendor6cordio19SigningEventMonitorEEEEESC_EESC_EEE36GapAdvertisingReportMessageConverter31CordioGapAdvertisingReportEventE
00000000 V _ZTVN3ble7generic10SecurityDbE
00000000 V _ZTVN3ble7generic16MemorySecurityDbE
00000000 V _ZTVN3ble7generic17GenericGattClientINS_3pal6vendor6cordio16CordioGattClientENS0_22GenericSecurityManagerINS4_21CordioSecurityManagerENS_6vendor6cordio19SigningEventMonitorEEEE16ReadControlBlockE
00000000 V _ZTVN3ble7generic17GenericGattClientINS_3pal6vendor6cordio16CordioGattClientENS0_22GenericSecurityManagerINS4_21CordioSecurityManagerENS_6vendor6cordio19SigningEventMonitorEEEE17WriteControlBlockE
00000000 V _ZTVN3ble7generic17GenericGattClientINS_3pal6vendor6cordio16CordioGattClientENS0_22GenericSecurityManagerINS4_21CordioSecurityManagerENS_6vendor6cordio19SigningEventMonitorEEEE21DiscoveryControlBlockE
00000000 V _ZTVN3ble7generic17GenericGattClientINS_3pal6vendor6cordio16CordioGattClientENS0_22GenericSecurityManagerINS4_21CordioSecurityManagerENS_6vendor6cordio19SigningEventMonitorEEEE21ProcedureControlBlockE
00000000 V _ZTVN3ble7generic17GenericGattClientINS_3pal6vendor6cordio16CordioGattClientENS0_22GenericSecurityManagerINS4_21CordioSecurityManagerENS_6vendor6cordio19SigningEventMonitorEEEE31DescriptorDiscoveryControlBlockE
00000000 V _ZTVN3ble9interface10GattClientINS_7generic17GenericGattClientINS_3pal6vendor6cordio16CordioGattClientENS2_22GenericSecurityManagerINS6_21CordioSecurityManagerENS_6vendor6cordio19SigningEventMonitorEEEEEE12EventHandlerE
00000000 V _ZTVN3ble9interface15SecurityManagerINS_7generic22GenericSecurityManagerINS_3pal6vendor6cordio21CordioSecurityManagerENS_6vendor6cordio19SigningEventMonitorEEEE12EventHandlerE
00000000 V _ZTVN3ble9interface15SecurityManagerINS_7generic22GenericSecurityManagerINS_3pal6vendor6cordio21CordioSecurityManagerENS_6vendor6cordio19SigningEventMonitorEEEE18LegacyEventHandlerE
00000000 V _ZTVN3ble9interface3GapINS_7generic10GenericGapINS_3pal6vendor6cordio3GapENS4_15SecurityManagerINS6_21CordioSecurityManagerINS2_22GenericSecurityManagerIS9_NS_6vendor6cordio19SigningEventMonitorEEEEESE_EESE_EEE12EventHandlerE
00000000 V _ZTVN4mbed14LowPowerTickerE
00000000 V _ZTVN4mbed15LowPowerTimeoutE
         U _ZTVN4mbed6TickerE
00000000 V _ZZN3ble3pal6vendor6cordio15CordioAttClient10get_clientEvE7_client
00000000 V _ZZN3ble3pal6vendor6cordio21CordioSecurityManagerINS_7generic22GenericSecurityManagerIS3_NS_6vendor6cordio19SigningEventMonitorEEEE20get_security_managerEvE17_security_manager
00000000 V _ZZN3ble3pal6vendor6cordio3GapINS_7generic10GenericGapIS3_NS0_15SecurityManagerINS2_21CordioSecurityManagerINS4_22GenericSecurityManagerIS7_NS_6vendor6cordio19SigningEventMonitorEEEEESC_EESC_EEE11gap_handlerEPK11wsfMsgHdr_tE8handlers
00000000 V _ZZN3ble3pal6vendor6cordio3GapINS_7generic10GenericGapIS3_NS0_15SecurityManagerINS2_21CordioSecurityManagerINS4_22GenericSecurityManagerIS7_NS_6vendor6cordio19SigningEventMonitorEEEEESC_EESC_EEE7get_gapEvE4_gap
00000000 V _ZZN4mbed8CallbackIFvjEE8generateINS2_14method_contextIN3ble3pal10GattClientINS6_28AttClientToGattClientAdapterINS6_6vendor6cordio15CordioAttClientENS5_7generic17GenericGattClientINSA_16CordioGattClientENSC_22GenericSecurityManagerINSA_21CordioSecurityManagerENS5_6vendor6cordio19SigningEventMonitorEEEEEEESL_EEMSN_FvjEEEEEvRKT_E3ops
00000000 V _ZZN4mbed8CallbackIFvjEE8generateINS2_14method_contextIN3ble7generic17GenericGattClientINS5_3pal6vendor6cordio16CordioGattClientENS6_22GenericSecurityManagerINSA_21CordioSecurityManagerENS5_6vendor6cordio19SigningEventMonitorEEEEEMSI_FvjEEEEEvRKT_E3ops
00000000 V _ZZN4mbed8CallbackIFvjRKN3ble3pal16AttServerMessageEEE8generateINS7_14method_contextINS1_7generic17GenericGattClientINS2_6vendor6cordio16CordioGattClientENSA_22GenericSecurityManagerINSD_21CordioSecurityManagerENS1_6vendor6cordio19SigningEventMonitorEEEEEMSL_FvjS5_EEEEEvRKT_E3ops
00000000 V _ZZN4mbed8CallbackIFvjRKN3ble3pal16AttServerMessageEEE8generateINS7_14method_contextINS2_10GattClientINS2_28AttClientToGattClientAdapterINS2_6vendor6cordio15CordioAttClientENS1_7generic17GenericGattClientINSD_16CordioGattClientENSF_22GenericSecurityManagerINSD_21CordioSecurityManagerENS1_6vendor6cordio19SigningEventMonitorEEEEEEESO_EEMSQ_FvjS5_EEEEEvRKT_E3ops
00000000 V _ZZN4mbed8CallbackIFvPN3ble9interface9LegacyGapINS1_7generic10GenericGapINS1_3pal6vendor6cordio3GapENS6_15SecurityManagerINS8_21CordioSecurityManagerINS4_22GenericSecurityManagerISB_NS1_6vendor6cordio19SigningEventMonitorEEEEESG_EESG_EEE11Whitelist_tEEE8generateINSO_14method_contextINS2_15SecurityManagerISG_E12EventHandlerEMST_FvSM_EEEEEvRKT_E3ops
00000000 V _ZZN4mbed8CallbackIFvPvPKN3ble7generic19SecurityEntryKeys_tEEE8generateINS8_14method_contextINS3_22GenericSecurityManagerINS2_3pal6vendor6cordio21CordioSecurityManagerENS2_6vendor6cordio19SigningEventMonitorEEEMSJ_FvS1_S6_EEEEEvRKT_E3ops
00000000 V _ZZN4mbed8CallbackIFvPvPKN3ble7generic22SecurityEntrySigning_tEEE8generateINS8_14method_contextINS3_22GenericSecurityManagerINS2_3pal6vendor6cordio21CordioSecurityManagerENS2_6vendor6cordio19SigningEventMonitorEEEMSJ_FvS1_S6_EEEEEvRKT_E3ops
00000000 V _ZZN4mbed8CallbackIFvPvPKN3ble7generic23SecurityEntryIdentity_tEEE8generateINS8_14method_contextINS3_22GenericSecurityManagerINS2_3pal6vendor6cordio21CordioSecurityManagerENS2_6vendor6cordio19SigningEventMonitorEEEMSJ_FvS1_S6_EEEEEvRKT_E3ops
00000000 V _ZZN4mbed8CallbackIFvRKN3ble3pal8GapEventEEE8generateINS7_14method_contextINS1_7generic10GenericGapINS2_6vendor6cordio3GapENS2_15SecurityManagerINSD_21CordioSecurityManagerINSA_22GenericSecurityManagerISG_NS1_6vendor6cordio19SigningEventMonitorEEEEESL_EESL_EEMSO_FvS5_EEEEEvRKT_E3ops
00000000 V _ZZN4mbed8CallbackIFvRNS_4SpanIN3ble7generic23SecurityEntryIdentity_tELin1EEEjEE8generateINS8_14method_contextINS3_22GenericSecurityManagerINS2_3pal6vendor6cordio21CordioSecurityManagerENS2_6vendor6cordio19SigningEventMonitorEEEMSJ_FvS6_jEEEEEvRKT_E3ops
00000000 V _ZZN4mbed8CallbackIFvvEE8generateINS2_14method_contextIN3ble7generic10GenericGapINS5_3pal6vendor6cordio3GapENS8_15SecurityManagerINSA_21CordioSecurityManagerINS6_22GenericSecurityManagerISD_NS5_6vendor6cordio19SigningEventMonitorEEEEESI_EESI_EEMSL_FvvEEEEEvRKT_E3ops
         U AttcExecuteWriteReq
         U AttcFindByTypeValueReq
         U AttcFindInfoReq
         U AttcMtuReq
         U AttcPrepareWriteReq
         U AttcReadByGroupTypeReq
         U AttcReadByTypeReq
         U AttcReadLongReq
         U AttcReadReq
         U AttcSignedWriteCmd
         U AttcWriteCmd
         U AttcWriteReq
         U AttGetMtu
         U AttsSetCsrk
         U AttsSetSignCounter
00000000 r CSWTCH.1149
00000000 r CSWTCH.1153
00000000 r CSWTCH.538
00000000 r CSWTCH.936
         U DmAddDeviceToPerAdvList
         U DmAdvClearAdvSets
         U DmAdvConfig
         U DmAdvIncTxPwr
         U DmAdvOmitAdvAddr
         U DmAdvRemoveAdvSet
         U DmAdvScanReqNotifEnable
         U DmAdvSetAddrType
         U DmAdvSetChannelMap
         U DmAdvSetData
         U DmAdvSetFragPref
         U DmAdvSetInterval
         U DmAdvSetPhyParam
         U DmAdvSetRandAddr
         U DmAdvStart
         U DmAdvStop
         U DmAdvUseLegacyPdu
         U DmClearPerAdvList
         U DmConnCheckIdle
         U DmConnClose
         U DmConnOpen
         U DmConnSetAddrType
         U DmConnSetConnSpec
         U DmConnSetScanInterval
         U DmConnUpdate
         U DmDevSetExtFilterPolicy
         U DmDevSetFilterPolicy
         U DmDevSetRandAddr
         U DmDevWhiteListAdd
         U DmDevWhiteListClear
         U DmDevWhiteListRemove
         U DmExtConnSetConnSpec
         U DmExtConnSetScanInterval
         U DmPerAdvConfig
         U DmPerAdvIncTxPwr
         U DmPerAdvSetData
         U DmPerAdvSetInterval
         U DmPerAdvStart
         U DmPerAdvStop
         U DmPrivAddDevToResList
         U DmPrivClearResList
         U DmPrivRemDevFromResList
         U DmPrivSetAddrResEnable
         U DmPrivSetResolvablePrivateAddrTimeout
         U DmReadPhy
         U DmRemoteConnParamReqNegReply
         U DmRemoteConnParamReqReply
         U DmRemoveDeviceFromPerAdvList
         U DmScanSetAddrType
         U DmScanSetInterval
         U DmScanStart
         U DmScanStop
         U DmSecAuthRsp
         U DmSecCalcOobReq
         U DmSecCancelReq
         U DmSecCompareRsp
         U DmSecEncryptReq
         U DmSecGetCompareValue
         U DmSecGetLocalIrk
         U DmSecKeypressReq
         U DmSecLtkRsp
         U DmSecPairReq
         U DmSecPairRsp
         U DmSecSetEccKey
         U DmSecSetLocalCsrk
         U DmSecSetLocalIrk
         U DmSecSetOob
         U DmSecSlaveReq
         U DmSetDefaultPhy
         U DmSetPhy
         U DmSyncStart
         U DmSyncStop
         U DmWriteAuthPayloadTimeout
         U free
         U get_lp_ticker_data
         U hciCoreCb
         U HciGetBdAddr
         U HciGetLeSupFeat
         U HciGetMaxAdvDataLen
         U HciGetNumSupAdvSets
         U HciGetPerAdvListSize
         U HciGetWhiteListSize
         U HciLlPrivacySupported
         U malloc
         U mbed_assert_internal
         U mbed_error
         U mbed_warning
         U memcmp
         U memcpy
         U memmove
         U memset
         U pAttCfg
         U pSmpCfg
         U realloc
         U SecRand

dm_conn_sm.o:
0000000c C dmConnActSet
         U dmConnSmActNone
00000000 T dmConnSmExecute
00000000 r dmConnStateTbl

dm_dev.o:
         U BdaCpy
         U dmCb
00000000 T dmDevActReset
00000004 C dmDevCb
00000000 R dmDevFcnIf
00000000 T dmDevHciHandler
00000000 T dmDevMsgHandler
00000000 T dmDevPassEvtToConnCte
00000000 T dmDevPassEvtToDevPriv
00000000 T DmDevReset
00000000 T DmDevSetExtFilterPolicy
00000000 T dmDevSetFilterPolicy
00000000 T DmDevSetFilterPolicy
00000000 T DmDevSetRandAddr
00000000 T DmDevVsInit
00000000 T DmDevWhiteListAdd
00000000 T DmDevWhiteListClear
00000000 T DmDevWhiteListRemove
         U dmEmptyReset
         U dmFcnIfTbl
         U HciLeAddDevWhiteListCmd
         U HciLeClearWhiteListCmd
         U HciLeRemoveDevWhiteListCmd
         U HciLeSetRandAddrCmd
         U HciResetSequence
         U HciVsInit
         U WsfMsgAlloc
         U WsfMsgSend

dm_main.o:
00000018 C dmCb
         U dmDevFcnIf
00000000 T dmDevPassHciEvtToConn
00000000 T dmEmptyHandler
00000000 T dmEmptyReset
00000000 r dmEvtCbackLen
00000000 r dmFcnDefault
00000000 D dmFcnIfTbl
00000000 T DmFindAdType
00000000 T DmHandler
00000000 T DmHandlerInit
00000000 t dmHciEvtCback
00000000 r dmHciToIdTbl
00000000 T DmHostAddrType
00000000 T dmInitPhyToIdx
00000000 T DmInitPhyToIdx
00000000 T DmLlAddrType
00000000 T DmLlPrivEnabled
00000000 T DmRegister
00000000 T DmScanPhyToIdx
00000000 T DmSizeOfEvt
         U HciEvtRegister
         U HciGetMaxRxAclLen

dm_phy.o:
         U dmConnCb
         U dmConnCcbByHandle
         U dmConnCcbById
         U dmEmptyHandler
         U dmEmptyReset
         U dmFcnIfTbl
00000000 r dmPhyFcnIf
00000000 T dmPhyHciHandler
00000000 T DmPhyInit
00000000 T DmReadPhy
00000000 T DmSetDefaultPhy
00000000 T DmSetPhy
         U HciLeReadPhyCmd
         U HciLeSetDefaultPhyCmd
         U HciLeSetPhyCmd
         U WsfTaskLock
         U WsfTaskUnlock

dm_past.o:
         U dmCb
         U dmConnCcbByHandle
         U dmConnCcbById
         U dmEmptyReset
         U dmFcnIfTbl
00000000 r dmPastAct
00000000 T dmPastActConfig
00000000 T dmPastActDefaultConfig
00000000 T dmPastActRptRcvEnable
00000000 T dmPastActSetInfoTrsf
00000000 T dmPastActSyncTsfr
00000000 T DmPastConfig
00000000 T DmPastDefaultConfig
00000000 r dmPastFcnIf
00000000 T dmPastHciHandler
00000000 T DmPastInit
00000000 T dmPastMsgHandler
00000000 T DmPastRptRcvEnable
00000000 T DmPastSetInfoTrsf
00000000 T DmPastSyncTrsf
         U dmPerAdvState
         U dmSyncCbById
         U HciLePerAdvSetInfoTrsfCmd
         U HciLePerAdvSyncTrsfCmd
         U HciLeSetDefaultPerAdvSyncTrsfParamsCmd
         U HciLeSetPerAdvRcvEnableCmd
         U HciLeSetPerAdvSyncTrsfParamsCmd
         U WsfMsgAlloc
         U WsfMsgSend

dm_dev_priv.o:
         U BdaCpy
         U BdaIsZeros
         U DmAdvSetAddrType
         U dmCb
         U DmConnSetAddrType
         U dmDevCb
00000000 r dmDevPrivAct
00000000 T dmDevPrivActAesCmpl
00000000 T dmDevPrivActCtrl
00000000 T dmDevPrivActRpaStart
00000000 T dmDevPrivActRpaStop
00000000 T dmDevPrivActStart
00000000 T dmDevPrivActStop
00000000 T dmDevPrivActTimeout
00000000 t dmDevPrivAddrCalc
00000000 t dmDevPrivAdvertising.part.0
00000000 b dmDevPrivCb
00000000 r dmDevPrivFcnIf
00000000 T dmDevPrivHciHandler
00000000 T DmDevPrivInit
00000000 T dmDevPrivMsgHandler
00000000 T dmDevPrivReset
00000000 t dmDevPrivSetPendingRpa
00000000 t dmDevPrivSetRpa
00000000 T DmDevPrivStart
00000000 T DmDevPrivStop
00000000 t dmDevPrivTimerStart
         U dmFcnIfTbl
         U DmPrivClearResList
         U DmPrivSetResolvablePrivateAddrTimeout
         U DmScanSetAddrType
         U DmSecGetLocalIrk
         U HciLeSetRandAddrCmd
         U HciLlPrivacySupported
         U memset
         U SecAes
         U SecRand
         U WsfMsgAlloc
         U WsfMsgSend
         U WsfTimerStartSec
         U WsfTimerStop

dm_scan.o:
         U dmCb
00000024 C dmScanCb
00000000 T dmScanInit
         U DmScanPhyToIdx
00000000 T DmScanSetAddrType
00000000 T DmScanSetInterval
00000000 T DmScanStart
00000000 T DmScanStop
         U WsfMsgAlloc
         U WsfMsgSend
         U WsfTaskLock
         U WsfTaskUnlock

dm_scan_ae.o:
         U dmCb
         U dmDevPassEvtToDevPriv
00000000 T dmExtScanActStart
00000000 T dmExtScanActStop
00000000 T dmExtScanActTimeout
00000000 T dmExtScanHciHandler
00000000 T DmExtScanInit
00000000 T dmExtScanMsgHandler
00000000 T dmExtScanReset
         U dmFcnIfTbl
         U DmFindAdType
         U DmLlAddrType
00000000 r dmScanAct
         U dmScanCb
00000000 r dmScanFcnIf
         U dmScanInit
00000000 T DmScanModeExt
         U DmScanPhyToIdx
         U dmSyncInit
00000000 b filtered.7953
00000000 d firstFrag.7954
         U HciLeExtScanEnableCmd
         U HciLeSetExtScanParamCmd
         U WsfTaskLock
         U WsfTaskUnlock

dm_scan_leg.o:
         U dmCb
         U dmDevPassEvtToDevPriv
         U dmFcnIfTbl
         U DmFindAdType
         U DmLlAddrType
00000000 r dmScanAct
00000000 T dmScanActStart
00000000 T dmScanActStop
00000000 T dmScanActTimeout
         U dmScanCb
00000000 r dmScanFcnIf
00000000 T dmScanHciHandler
         U dmScanInit
00000000 T DmScanInit
00000000 T DmScanModeLeg
00000000 T dmScanMsgHandler
         U DmScanPhyToIdx
00000000 T dmScanReset
         U HciLeSetScanEnableCmd
         U HciLeSetScanParamCmd
         U WsfTaskLock
         U WsfTaskUnlock
         U WsfTimerStartMs
         U WsfTimerStop

dm_priv.o:
         U BdaCpy
         U Calc128Cpy
         U dmCb
         U dmDevPassEvtToDevPriv
         U dmFcnIfTbl
00000000 r dmPrivAct
00000000 T dmPrivActAddDevToResList
00000000 T dmPrivActClearResList
00000000 T dmPrivActGenAddr
00000000 T dmPrivActGenAddrAesCmpl
00000000 T dmPrivActRemDevFromResList
00000000 T dmPrivActResAddrAesCmpl
00000000 T dmPrivActResolveAddr
00000000 T dmPrivActSetAddrResEnable
00000000 T dmPrivActSetPrivacyMode
00000000 T DmPrivAddDevToResList
0000001a C dmPrivCb
00000000 T DmPrivClearResList
00000000 r dmPrivFcnIf
00000000 T DmPrivGenerateAddr
00000000 T dmPrivHciHandler
00000000 T DmPrivInit
00000000 T dmPrivMsgHandler
00000000 T DmPrivReadLocalResolvableAddr
00000000 T DmPrivReadPeerResolvableAddr
00000000 T DmPrivRemDevFromResList
00000000 T dmPrivReset
00000000 T DmPrivResolveAddr
00000000 T DmPrivSetAddrResEnable
00000000 T DmPrivSetPrivacyMode
00000000 T DmPrivSetResolvablePrivateAddrTimeout
         U HciLeAddDeviceToResolvingListCmd
         U HciLeClearResolvingList
         U HciLeReadLocalResolvableAddr
         U HciLeReadPeerResolvableAddr
         U HciLeRemoveDeviceFromResolvingList
         U HciLeSetAddrResolutionEnable
         U HciLeSetPrivacyModeCmd
         U HciLeSetResolvablePrivateAddrTimeout
         U memcmp
         U memset
         U SecAes
         U SecRand
         U WsfMsgAlloc
         U WsfMsgSend

dm_sec_slave.o:
         U Calc128Cpy
         U dmCb
00000000 T DmSecLtkRsp
00000000 T DmSecPairRsp
00000000 T DmSecSlaveReq
         U SmpDmMsgSend
         U WsfMsgAlloc
         U WsfMsgSend

dm_sec.o:
         U calc128Zeros
         U dmCb
         U dmConnCb
         U dmConnCcbByHandle
         U dmConnCcbById
         U DmConnSetIdle
         U dmFcnIfTbl
00000000 T dmSecApiLtkMsg
00000000 T DmSecAuthRsp
00000000 T DmSecCancelReq
00000008 C dmSecCb
00000000 r dmSecFcnIf
00000000 T DmSecGetLocalCsrk
00000000 T DmSecGetLocalIrk
00000000 T dmSecHciHandler
00000000 T DmSecInit
00000000 T dmSecMsgHandler
00000000 T dmSecReset
00000000 T DmSecSetLocalCsrk
00000000 T DmSecSetLocalIrk
00000000 T DmSmpCbackExec
         U HciLeLtkReqNegReplCmd
         U HciLeLtkReqReplCmd
         U HciLeStartEncryptionCmd
         U memcmp
         U memcpy
         U SmpDbInit
         U SmpDmEncryptInd
         U SmpDmGetStk
         U SmpDmMsgSend
         U WsfMsgAlloc
         U WsfMsgSend
         U WsfTaskLock
         U WsfTaskUnlock

hci_main.o:
00000000 T HciAclRegister
0000001c C hciCb
         U HciCoreHandler
         U HciCoreInit
00000000 T HciEvtRegister
00000000 T HciHandler
00000000 T HciHandlerInit
00000000 T HciSecRegister

dm_sec_lesc.o:
         U Calc128Cpy
         U dmCb
         U dmEmptyHandler
         U dmEmptyReset
         U dmFcnIfTbl
00000000 T DmSecCalcOobReq
00000000 T DmSecCompareRsp
00000000 T DmSecGenerateEccKeyReq
00000000 T DmSecGetCompareValue
00000000 T DmSecGetEccKey
00000000 T DmSecKeypressReq
00000000 r dmSecLescFcnIf
00000000 T DmSecLescInit
00000000 T dmSecLescMsgHandler
00000000 b dmSecOobRand
00000000 T DmSecSetDebugEccKey
00000000 T DmSecSetEccKey
00000000 T DmSecSetOob
00000000 b localEccKey
         U memcpy
         U memset
         U SecCmac
         U SecEccGenKey
         U SmpDmMsgSend
         U SmpScCat
         U SmpScGetCancelMsgWithReattempt
         U SmpScSetOobCfg
         U WsfBufAlloc
         U WsfBufFree
         U WsfMsgAlloc

dm_sec_master.o:
         U calc128Zeros
         U dmCb
         U dmConnCcbById
00000000 T DmSecEncryptReq
00000000 T DmSecPairReq
00000000 T DmSmpEncryptReq
         U HciLeStartEncryptionCmd
         U SmpDmMsgSend
         U WsfMsgAlloc
         U WsfMsgSend

l2c_main.o:
         U DmConnIdByHandle
         U DmConnRole
         U HciAclRegister
         U HciSendAclData
00000028 C l2cCb
00000000 T L2cDataReq
00000000 t l2cDefaultCtrlCback
00000000 t l2cDefaultDataCback
00000000 t l2cDefaultDataCidCback
00000000 t l2cHciAclCback
00000000 t l2cHciFlowCback
00000000 T L2cInit
00000000 T l2cMsgAlloc
00000000 T L2cRegister
00000000 T l2cRxSignalingPkt
00000000 T l2cSendCmdReject
         U WsfMsgDataAlloc
         U WsfMsgFree

dm_sync_ae.o:
         U BdaCmp
         U BdaCpy
00000000 T DmAddDeviceToPerAdvList
         U dmCb
00000000 T DmClearPerAdvList
         U dmFcnIfTbl
         U DmHostAddrType
00000000 T DmRemoveDeviceFromPerAdvList
00000000 r dmSyncAct
00000000 b dmSyncCb
00000000 t dmSyncCbAlloc
00000000 T dmSyncCbById
00000000 T dmSyncCbBySidBdAddr
00000000 r dmSyncFcnIf
00000000 T dmSyncHciHandler
00000000 T dmSyncInit
00000000 T DmSyncInitialRptEnable
00000000 T dmSyncMsgHandler
00000000 T dmSyncReset
00000000 T dmSyncSmActCancelStart
00000000 T dmSyncSmActNone
00000000 T dmSyncSmActStart
00000000 T dmSyncSmActStop
00000000 T dmSyncSmActSyncEst
00000000 T dmSyncSmActSyncEstFailed
00000000 T dmSyncSmActSyncLost
00000000 T dmSyncSmActSyncTrsfEst
00000000 T dmSyncSmActSyncTrsfEstFailed
00000000 T dmSyncSmExecute
00000000 T DmSyncStart
00000000 r dmSyncStateTbl
00000000 T DmSyncStop
         U HciLeAddDeviceToPerAdvListCmd
         U HciLeClearPerAdvListCmd
         U HciLePerAdvCreateSyncCancelCmd
         U HciLePerAdvCreateSyncCmd
         U HciLePerAdvTerminateSyncCmd
         U HciLeRemoveDeviceFromPerAdvListCmd
         U memset
         U WsfMsgAlloc
         U WsfMsgSend
         U WsfTaskLock
         U WsfTaskUnlock

l2c_master.o:
         U DmL2cConnUpdateInd
         U l2cCb
         U L2cDataReq
00000000 T L2cDmConnUpdateRsp
00000000 T L2cMasterInit
00000000 t l2cMasterRxSignalingPkt
         U l2cMsgAlloc
         U l2cSendCmdReject

l2c_slave.o:
         U DmL2cCmdRejInd
         U DmL2cConnUpdateCnf
         U l2cCb
         U L2cDataReq
00000000 T L2cDmConnUpdateReq
00000000 T L2cDmSigReq
         U l2cMsgAlloc
         U l2cSendCmdReject
00000000 b l2cSlaveCb
00000000 T L2cSlaveHandler
00000000 T L2cSlaveHandlerInit
00000000 T L2cSlaveInit
00000000 t l2cSlaveRxSignalingPkt
         U memcpy
         U WsfTimerStartSec
         U WsfTimerStop

l2c_coc.o:
         U DmConnIdByHandle
         U DmConnRegister
         U DmConnSecLevel
         U HciGetMaxRxAclLen
         U l2cCb
00000000 T l2cChanCbAlloc
00000000 T l2cChanCbByCid
00000000 T l2cChanCbByCidCheck
00000000 T l2cChanCbByCidState
00000000 T l2cChanCbConnecting
00000000 T l2cChanCbDealloc
00000000 T l2cChanCbDeallocAll
00000000 t l2cChanCbDeallocAll.part.5
00000000 T l2cCheckPeerCid
00000000 t l2cCheckPeerCid.part.0
00000000 T l2cCheckSecurity
00000064 C l2cCocCb
00000000 T L2cCocConnectReq
00000000 T L2cCocCreditSendTest
00000000 t l2cCocCtrlCback
00000000 t l2cCocDataCidCback
00000000 T L2cCocDataReq
00000000 T L2cCocDeregister
00000000 T L2cCocDisconnectReq
00000000 t l2cCocDmConnCback
00000000 T L2cCocErrorTest
00000000 T L2cCocHandler
00000000 T L2cCocHandlerInit
00000000 T L2cCocInit
00000000 T L2cCocRegister
00000000 t l2cCocSendData
00000000 T l2cCocSignalingCback
00000000 T l2cConnCbById
00000000 t l2cConnectInd
00000000 t l2cDataCnf
         U L2cDataReq
00000000 t l2cDisconnectChannel
00000000 t l2cDisconnectIndAndDealloc
         U l2cMsgAlloc
00000000 T l2cRegCbAccept
00000000 T l2cRegCbAlloc
00000000 T l2cRegCbById
00000000 T l2cRegCbDealloc
         U l2cRxSignalingPkt
         U l2cSendCmdReject
00000000 T l2cSendConnectReq
00000000 T l2cSendConnectRsp
00000000 T l2cSendDisconnectReq
00000000 t l2cSendFlowControlCredit
         U memcpy
         U pL2cCfg
         U WsfMsgAlloc
         U WsfMsgDataAlloc
         U WsfMsgFree
         U WsfMsgSend
         U WsfTaskLock
         U WsfTaskUnlock
         U WsfTimerStartSec
         U WsfTimerStop

smp_act.o:
         U BdaCpy
         U Calc128Cpy
         U DmConnRole
         U DmConnSetIdle
         U DmSecGetLocalCsrk
         U DmSecGetLocalIrk
         U DmSmpCbackExec
         U HciGetBdAddr
         U memcpy
         U memset
         U pSmpCfg
         U SecRand
00000000 T smpActAttemptRcvd
00000000 T smpActCheckAttempts
00000000 T smpActCleanup
00000000 T smpActMaxAttempts
00000000 T smpActNone
00000000 T smpActNotifyDmAttemptsFailure
00000000 T smpActNotifyDmRspToFailure
00000000 T smpActPairCnfCalc1
00000000 T smpActPairCnfCalc2
00000000 T smpActPairCnfVerCalc1
00000000 T smpActPairCnfVerCalc2
00000000 T smpActPairingCancel
00000000 T smpActPairingCmpl
00000000 T smpActPairingFailed
00000000 T smpActSendPairCnf
00000000 T smpActStorePin
00000000 T smpAuthReq
         U smpCalcC1Part1
         U smpCalcC1Part2
         U smpCb
00000000 T smpCleanup
         U SmpDbMaxAttemptReached
         U smpGenerateLtk
         U smpGetScSecLevel
         U smpMsgAlloc
00000000 T smpProcPairing
00000000 T smpProcRcvKey
00000000 T smpSendKey
00000000 T smpSendPairingFailed
         U smpSendPkt
00000000 T smpSmExecute
00000000 T smpStartRspTimer
         U WsfBufFree
         U WsfMsgAlloc
         U WsfMsgFree
         U WsfMsgSend
         U WsfTimerStartMs
         U WsfTimerStartSec
         U WsfTimerStop

smp_db.o:
         U BdaCmp
         U BdaCpy
         U DmConnPeerAddr
         U DmConnPeerAddrType
         U DmHostAddrType
         U memset
         U pSmpCfg
         U smpCb
00000000 b smpDbCb
00000000 T SmpDbGetFailureCount
00000000 T SmpDbGetPairingDisabledTime
00000000 t smpDbGetRecord
00000000 T SmpDbInit
00000000 T SmpDbMaxAttemptReached
00000000 T SmpDbPairingFailed
00000000 t smpDbRecordInUse
00000000 T SmpDbRemoveAllDevices
00000000 T SmpDbRemoveDevice
00000000 T SmpDbService
00000000 T SmpDbSetFailureCount
00000000 t smpDbStartServiceTimer
         U WsfTimerStartMs
         U WsfTimerStop

smp_non.o:
         U DmConnIdByHandle
         U DmConnRole
         U L2cDataReq
         U L2cRegister
         U smpMsgAlloc
00000000 T SmpNonInit
00000000 t smpNonL2cCtrlCback
00000000 T smpNonL2cDataCback

smp_main.o:
         U BdaIsZeros
         U Calc128Cpy64
         U DmConnIdByHandle
         U DmConnLocalAddr
         U DmConnLocalAddrType
         U DmConnLocalRpa
         U DmConnPeerAddr
         U DmConnPeerAddrType
         U DmConnPeerRpa
         U DmConnRegister
         U DmConnRole
         U DmSmpCbackExec
         U L2cDataReq
         U L2cRegister
         U memset
         U SecAes
         U SecRand
00000000 T smpCalcC1Part1
00000000 T smpCalcC1Part2
00000000 T smpCalcS1
000000f0 C smpCb
00000000 T smpCcbByConnId
00000000 T smpCcbByHandle
         U SmpDbGetFailureCount
         U SmpDbGetPairingDisabledTime
         U SmpDbInit
         U SmpDbService
         U SmpDbSetFailureCount
00000000 t smpDmConnCback
00000000 T SmpDmEncryptInd
00000000 T SmpDmGetLtk
00000000 T SmpDmGetStk
00000000 T SmpDmMsgSend
00000000 T smpGenerateLtk
00000000 T smpGetScSecLevel
00000000 T SmpHandler
00000000 T SmpHandlerInit
00000000 t smpL2cCtrlCback
00000000 t smpL2cDataCback
00000000 T smpMsgAlloc
00000000 R smpPktLenTbl
00000000 T smpSendPkt
         U smpSmExecute
00000000 T smpStateIdle
         U WsfBufFree
         U WsfMsgDataAlloc
         U WsfMsgFree
         U WsfMsgSend
         U WsfTimerStartMs

smp_sc_main.o:
         U Calc128Cpy
00000000 r CSWTCH.6
         U DmConnSetIdle
         U memcpy
         U pSmpCfg
         U SecCmac
00000054 C SMP_ScCcb
         U smpCb
         U smpCcbByConnId
         U SmpDbPairingFailed
00000000 T smpEventStr
00000000 T smpGetPeerPublicKey
00000000 T smpGetPkBit
         U smpiStateStr
00000000 T smpLogByteArray
         U smpMsgAlloc
         U smprStateStr
00000000 T SmpScAlloc
00000000 T SmpScAllocScratchBuffers
         U smpScAuthReq
00000000 T SmpScCalcF4
00000000 T SmpScCat
00000000 T SmpScCat128
00000000 T SmpScCmac
00000000 T smpScFailWithReattempt
00000000 T SmpScFree
00000000 T SmpScFreeScratchBuffers
